
freertos_xcore.elf:     file format elf32-big


freertos_xcore.elf:     file format elf32-microblaze

Disassembly of section .vectors.reset:

00000000 <_start>:
   0:	b0009000 	imm	-28672
   4:	b8080800 	brai	2048
Disassembly of section .vectors.sw_exception:

00000008 <_vector_sw_exception>:
   8:	b0009000 	imm	-28672
   c:	b8085c00 	brai	23552
Disassembly of section .vectors.interrupt:

00000010 <_vector_interrupt>:
  10:	b0009000 	imm	-28672
  14:	b8084bd0 	brai	19408
Disassembly of section .vectors.hw_exception:

00000020 <_vector_hw_exception>:
  20:	b0009000 	imm	-28672
  24:	b8085c18 	brai	23576
Disassembly of section .text:

90000800 <_start1>:
90000800:	b0009001 	imm	-28671
90000804:	31a03cd8 	addik	r13, r0, 15576
90000808:	b0009001 	imm	-28671
9000080c:	304036f8 	addik	r2, r0, 14072
90000810:	b00090a1 	imm	-28511
90000814:	30207068 	addik	r1, r0, 28776
90000818:	b9f400ec 	brlid	r15, 236	// 90000904 <_crtinit>
9000081c:	80000000 	or	r0, r0, r0
90000820:	b9f4693c 	brlid	r15, 26940	// 9000715c <exit>
90000824:	30a30000 	addik	r5, r3, 0

90000828 <_exit>:
90000828:	b8000000 	bri	0		// 90000828

9000082c <__do_global_dtors_aux>:
9000082c:	b0009001 	imm	-28671
90000830:	e0603cd8 	lbui	r3, r0, 15576
90000834:	3021ffe4 	addik	r1, r1, -28
90000838:	be030020 	beqid	r3, 32		// 90000858
9000083c:	f9e10000 	swi	r15, r1, 0
90000840:	b8100058 	brid	88		// 90000898
90000844:	e9e10000 	lwi	r15, r1, 0
90000848:	b0009001 	imm	-28671
9000084c:	f8603700 	swi	r3, r0, 14080
90000850:	99fc2000 	brald	r15, r4
90000854:	80000000 	or	r0, r0, r0
90000858:	b0009001 	imm	-28671
9000085c:	e8603700 	lwi	r3, r0, 14080
90000860:	e8830000 	lwi	r4, r3, 0
90000864:	be24ffe4 	bneid	r4, -28		// 90000848
90000868:	30630004 	addik	r3, r3, 4
9000086c:	b0000000 	imm	0
90000870:	30600000 	addik	r3, r0, 0
90000874:	bc030014 	beqi	r3, 20		// 90000888
90000878:	b0009001 	imm	-28671
9000087c:	30a03ccc 	addik	r5, r0, 15564
90000880:	99fc1800 	brald	r15, r3
90000884:	80000000 	or	r0, r0, r0
90000888:	30600001 	addik	r3, r0, 1
9000088c:	b0009001 	imm	-28671
90000890:	f0603cd8 	sbi	r3, r0, 15576
90000894:	e9e10000 	lwi	r15, r1, 0
90000898:	b60f0008 	rtsd	r15, 8
9000089c:	3021001c 	addik	r1, r1, 28

900008a0 <frame_dummy>:
900008a0:	b0000000 	imm	0
900008a4:	30600000 	addik	r3, r0, 0
900008a8:	3021ffe4 	addik	r1, r1, -28
900008ac:	b0009001 	imm	-28671
900008b0:	30a03ccc 	addik	r5, r0, 15564
900008b4:	b0009001 	imm	-28671
900008b8:	30c03cdc 	addik	r6, r0, 15580
900008bc:	be030010 	beqid	r3, 16		// 900008cc
900008c0:	f9e10000 	swi	r15, r1, 0
900008c4:	99fc1800 	brald	r15, r3
900008c8:	80000000 	or	r0, r0, r0
900008cc:	b0009001 	imm	-28671
900008d0:	e8603cd0 	lwi	r3, r0, 15568
900008d4:	b0000000 	imm	0
900008d8:	30800000 	addik	r4, r0, 0
900008dc:	be030020 	beqid	r3, 32		// 900008fc
900008e0:	e9e10000 	lwi	r15, r1, 0
900008e4:	b0009001 	imm	-28671
900008e8:	30a03cd0 	addik	r5, r0, 15568
900008ec:	bc040010 	beqi	r4, 16		// 900008fc
900008f0:	99fc2000 	brald	r15, r4
900008f4:	80000000 	or	r0, r0, r0
900008f8:	e9e10000 	lwi	r15, r1, 0
900008fc:	b60f0008 	rtsd	r15, 8
90000900:	3021001c 	addik	r1, r1, 28

90000904 <_crtinit>:
90000904:	2021ffec 	addi	r1, r1, -20
90000908:	f9e10000 	swi	r15, r1, 0
9000090c:	b0009001 	imm	-28671
90000910:	20c03cd8 	addi	r6, r0, 15576
90000914:	b0009001 	imm	-28671
90000918:	20e03cd8 	addi	r7, r0, 15576
9000091c:	06463800 	rsub	r18, r6, r7
90000920:	bc720014 	blei	r18, 20		// 90000934
90000924:	f8060000 	swi	r0, r6, 0
90000928:	20c60004 	addi	r6, r6, 4
9000092c:	06463800 	rsub	r18, r6, r7
90000930:	bc92fff4 	bgti	r18, -12		// 90000924
90000934:	b0009001 	imm	-28671
90000938:	20c03cd8 	addi	r6, r0, 15576
9000093c:	b0009001 	imm	-28671
90000940:	20e05074 	addi	r7, r0, 20596
90000944:	06463800 	rsub	r18, r6, r7
90000948:	bc720014 	blei	r18, 20		// 9000095c
9000094c:	f8060000 	swi	r0, r6, 0
90000950:	20c60004 	addi	r6, r6, 4
90000954:	06463800 	rsub	r18, r6, r7
90000958:	bc92fff4 	bgti	r18, -12		// 9000094c
9000095c:	b9f452b4 	brlid	r15, 21172	// 90005c10 <_program_init>
90000960:	80000000 	or	r0, r0, r0
90000964:	b0000001 	imm	1
90000968:	b9f425c4 	brlid	r15, 9668	// 90012f2c <__init>
9000096c:	80000000 	or	r0, r0, r0
90000970:	20c00000 	addi	r6, r0, 0
90000974:	20e00000 	addi	r7, r0, 0
90000978:	b9f447c0 	brlid	r15, 18368	// 90005138 <main>
9000097c:	20a00000 	addi	r5, r0, 0
90000980:	32630000 	addik	r19, r3, 0
90000984:	b0000001 	imm	1
90000988:	b9f425e4 	brlid	r15, 9700	// 90012f6c <__fini>
9000098c:	80000000 	or	r0, r0, r0
90000990:	b9f45278 	brlid	r15, 21112	// 90005c08 <_program_clean>
90000994:	80000000 	or	r0, r0, r0
90000998:	c9e10000 	lw	r15, r1, r0
9000099c:	30730000 	addik	r3, r19, 0
900009a0:	b60f0008 	rtsd	r15, 8
900009a4:	20210014 	addi	r1, r1, 20

900009a8 <vListInitialise>:
900009a8:	3021fff8 	addik	r1, r1, -8
900009ac:	fa610004 	swi	r19, r1, 4
900009b0:	12610000 	addk	r19, r1, r0
900009b4:	f8b3000c 	swi	r5, r19, 12
900009b8:	e873000c 	lwi	r3, r19, 12
900009bc:	30630008 	addik	r3, r3, 8
900009c0:	10830000 	addk	r4, r3, r0
900009c4:	e873000c 	lwi	r3, r19, 12
900009c8:	f8830004 	swi	r4, r3, 4
900009cc:	e893000c 	lwi	r4, r19, 12
900009d0:	3060ffff 	addik	r3, r0, -1
900009d4:	f8640008 	swi	r3, r4, 8
900009d8:	e873000c 	lwi	r3, r19, 12
900009dc:	30630008 	addik	r3, r3, 8
900009e0:	10830000 	addk	r4, r3, r0
900009e4:	e873000c 	lwi	r3, r19, 12
900009e8:	f883000c 	swi	r4, r3, 12
900009ec:	e873000c 	lwi	r3, r19, 12
900009f0:	30630008 	addik	r3, r3, 8
900009f4:	10830000 	addk	r4, r3, r0
900009f8:	e873000c 	lwi	r3, r19, 12
900009fc:	f8830010 	swi	r4, r3, 16
90000a00:	e873000c 	lwi	r3, r19, 12
90000a04:	f8030000 	swi	r0, r3, 0
90000a08:	10330000 	addk	r1, r19, r0
90000a0c:	ea610004 	lwi	r19, r1, 4
90000a10:	30210008 	addik	r1, r1, 8
90000a14:	b60f0008 	rtsd	r15, 8
90000a18:	80000000 	or	r0, r0, r0

90000a1c <vListInitialiseItem>:
90000a1c:	3021fff8 	addik	r1, r1, -8
90000a20:	fa610004 	swi	r19, r1, 4
90000a24:	12610000 	addk	r19, r1, r0
90000a28:	f8b3000c 	swi	r5, r19, 12
90000a2c:	e873000c 	lwi	r3, r19, 12
90000a30:	f8030010 	swi	r0, r3, 16
90000a34:	10330000 	addk	r1, r19, r0
90000a38:	ea610004 	lwi	r19, r1, 4
90000a3c:	30210008 	addik	r1, r1, 8
90000a40:	b60f0008 	rtsd	r15, 8
90000a44:	80000000 	or	r0, r0, r0

90000a48 <vListInsertEnd>:
90000a48:	3021fff4 	addik	r1, r1, -12
90000a4c:	fa610008 	swi	r19, r1, 8
90000a50:	12610000 	addk	r19, r1, r0
90000a54:	f8b30010 	swi	r5, r19, 16
90000a58:	f8d30014 	swi	r6, r19, 20
90000a5c:	e8730010 	lwi	r3, r19, 16
90000a60:	e8630004 	lwi	r3, r3, 4
90000a64:	f8730004 	swi	r3, r19, 4
90000a68:	e8730004 	lwi	r3, r19, 4
90000a6c:	e8830004 	lwi	r4, r3, 4
90000a70:	e8730014 	lwi	r3, r19, 20
90000a74:	f8830004 	swi	r4, r3, 4
90000a78:	e8730010 	lwi	r3, r19, 16
90000a7c:	e8830004 	lwi	r4, r3, 4
90000a80:	e8730014 	lwi	r3, r19, 20
90000a84:	f8830008 	swi	r4, r3, 8
90000a88:	e8730004 	lwi	r3, r19, 4
90000a8c:	e8830004 	lwi	r4, r3, 4
90000a90:	e8730014 	lwi	r3, r19, 20
90000a94:	f8640008 	swi	r3, r4, 8
90000a98:	e8930014 	lwi	r4, r19, 20
90000a9c:	e8730004 	lwi	r3, r19, 4
90000aa0:	f8830004 	swi	r4, r3, 4
90000aa4:	e8930014 	lwi	r4, r19, 20
90000aa8:	e8730010 	lwi	r3, r19, 16
90000aac:	f8830004 	swi	r4, r3, 4
90000ab0:	e8930014 	lwi	r4, r19, 20
90000ab4:	e8730010 	lwi	r3, r19, 16
90000ab8:	f8640010 	swi	r3, r4, 16
90000abc:	e8730010 	lwi	r3, r19, 16
90000ac0:	e8630000 	lwi	r3, r3, 0
90000ac4:	30830001 	addik	r4, r3, 1
90000ac8:	e8730010 	lwi	r3, r19, 16
90000acc:	f8830000 	swi	r4, r3, 0
90000ad0:	10330000 	addk	r1, r19, r0
90000ad4:	ea610008 	lwi	r19, r1, 8
90000ad8:	3021000c 	addik	r1, r1, 12
90000adc:	b60f0008 	rtsd	r15, 8
90000ae0:	80000000 	or	r0, r0, r0

90000ae4 <vListInsert>:
90000ae4:	3021fff0 	addik	r1, r1, -16
90000ae8:	fa61000c 	swi	r19, r1, 12
90000aec:	12610000 	addk	r19, r1, r0
90000af0:	f8b30014 	swi	r5, r19, 20
90000af4:	f8d30018 	swi	r6, r19, 24
90000af8:	e8730018 	lwi	r3, r19, 24
90000afc:	e8630000 	lwi	r3, r3, 0
90000b00:	f8730004 	swi	r3, r19, 4
90000b04:	e8730004 	lwi	r3, r19, 4
90000b08:	aa43ffff 	xori	r18, r3, -1
90000b0c:	bc320014 	bnei	r18, 20		// 90000b20
90000b10:	e8730014 	lwi	r3, r19, 20
90000b14:	e8630010 	lwi	r3, r3, 16
90000b18:	f8730008 	swi	r3, r19, 8
90000b1c:	b8000038 	bri	56		// 90000b54
90000b20:	e8730014 	lwi	r3, r19, 20
90000b24:	30630008 	addik	r3, r3, 8
90000b28:	f8730008 	swi	r3, r19, 8
90000b2c:	b8000010 	bri	16		// 90000b3c
90000b30:	e8730008 	lwi	r3, r19, 8
90000b34:	e8630004 	lwi	r3, r3, 4
90000b38:	f8730008 	swi	r3, r19, 8
90000b3c:	e8730008 	lwi	r3, r19, 8
90000b40:	e8630004 	lwi	r3, r3, 4
90000b44:	e8830000 	lwi	r4, r3, 0
90000b48:	e8730004 	lwi	r3, r19, 4
90000b4c:	16441803 	cmpu	r18, r4, r3
90000b50:	bcb2ffe0 	bgei	r18, -32		// 90000b30
90000b54:	e8730008 	lwi	r3, r19, 8
90000b58:	e8830004 	lwi	r4, r3, 4
90000b5c:	e8730018 	lwi	r3, r19, 24
90000b60:	f8830004 	swi	r4, r3, 4
90000b64:	e8730018 	lwi	r3, r19, 24
90000b68:	e8830004 	lwi	r4, r3, 4
90000b6c:	e8730018 	lwi	r3, r19, 24
90000b70:	f8640008 	swi	r3, r4, 8
90000b74:	e8930018 	lwi	r4, r19, 24
90000b78:	e8730008 	lwi	r3, r19, 8
90000b7c:	f8640008 	swi	r3, r4, 8
90000b80:	e8930018 	lwi	r4, r19, 24
90000b84:	e8730008 	lwi	r3, r19, 8
90000b88:	f8830004 	swi	r4, r3, 4
90000b8c:	e8930018 	lwi	r4, r19, 24
90000b90:	e8730014 	lwi	r3, r19, 20
90000b94:	f8640010 	swi	r3, r4, 16
90000b98:	e8730014 	lwi	r3, r19, 20
90000b9c:	e8630000 	lwi	r3, r3, 0
90000ba0:	30830001 	addik	r4, r3, 1
90000ba4:	e8730014 	lwi	r3, r19, 20
90000ba8:	f8830000 	swi	r4, r3, 0
90000bac:	10330000 	addk	r1, r19, r0
90000bb0:	ea61000c 	lwi	r19, r1, 12
90000bb4:	30210010 	addik	r1, r1, 16
90000bb8:	b60f0008 	rtsd	r15, 8
90000bbc:	80000000 	or	r0, r0, r0

90000bc0 <vListRemove>:
90000bc0:	3021fff4 	addik	r1, r1, -12
90000bc4:	fa610008 	swi	r19, r1, 8
90000bc8:	12610000 	addk	r19, r1, r0
90000bcc:	f8b30010 	swi	r5, r19, 16
90000bd0:	e8730010 	lwi	r3, r19, 16
90000bd4:	e8830004 	lwi	r4, r3, 4
90000bd8:	e8730010 	lwi	r3, r19, 16
90000bdc:	e8630008 	lwi	r3, r3, 8
90000be0:	f8640008 	swi	r3, r4, 8
90000be4:	e8730010 	lwi	r3, r19, 16
90000be8:	e8830008 	lwi	r4, r3, 8
90000bec:	e8730010 	lwi	r3, r19, 16
90000bf0:	e8630004 	lwi	r3, r3, 4
90000bf4:	f8640004 	swi	r3, r4, 4
90000bf8:	e8730010 	lwi	r3, r19, 16
90000bfc:	e8630010 	lwi	r3, r3, 16
90000c00:	f8730004 	swi	r3, r19, 4
90000c04:	e8730004 	lwi	r3, r19, 4
90000c08:	e8830004 	lwi	r4, r3, 4
90000c0c:	e8730010 	lwi	r3, r19, 16
90000c10:	16432000 	rsubk	r18, r3, r4
90000c14:	bc320014 	bnei	r18, 20		// 90000c28
90000c18:	e8730010 	lwi	r3, r19, 16
90000c1c:	e8830008 	lwi	r4, r3, 8
90000c20:	e8730004 	lwi	r3, r19, 4
90000c24:	f8830004 	swi	r4, r3, 4
90000c28:	e8730010 	lwi	r3, r19, 16
90000c2c:	f8030010 	swi	r0, r3, 16
90000c30:	e8730004 	lwi	r3, r19, 4
90000c34:	e8630000 	lwi	r3, r3, 0
90000c38:	3083ffff 	addik	r4, r3, -1
90000c3c:	e8730004 	lwi	r3, r19, 4
90000c40:	f8830000 	swi	r4, r3, 0
90000c44:	10330000 	addk	r1, r19, r0
90000c48:	ea610008 	lwi	r19, r1, 8
90000c4c:	3021000c 	addik	r1, r1, 12
90000c50:	b60f0008 	rtsd	r15, 8
90000c54:	80000000 	or	r0, r0, r0

90000c58 <xTaskGenericCreate>:
90000c58:	3021ffc0 	addik	r1, r1, -64
90000c5c:	f9e10000 	swi	r15, r1, 0
90000c60:	fa61003c 	swi	r19, r1, 60
90000c64:	12610000 	addk	r19, r1, r0
90000c68:	f8b30044 	swi	r5, r19, 68
90000c6c:	f8d30048 	swi	r6, r19, 72
90000c70:	f8f3004c 	swi	r7, r19, 76
90000c74:	f5130050 	shi	r8, r19, 80
90000c78:	f9330054 	swi	r9, r19, 84
90000c7c:	f9530058 	swi	r10, r19, 88
90000c80:	f8130030 	swi	r0, r19, 48
90000c84:	f813002c 	swi	r0, r19, 44
90000c88:	b9f44468 	brlid	r15, 17512	// 900050f0 <xPortGetCurrentCPU>
90000c8c:	80000000 	or	r0, r0, r0
90000c90:	f8730024 	swi	r3, r19, 36
90000c94:	b0009001 	imm	-28671
90000c98:	e8603cf4 	lwi	r3, r0, 15604
90000c9c:	bc23031c 	bnei	r3, 796		// 90000fb8
90000ca0:	f8130030 	swi	r0, r19, 48
90000ca4:	b8000218 	bri	536		// 90000ebc
90000ca8:	e8730030 	lwi	r3, r19, 48
90000cac:	64830402 	bslli	r4, r3, 2
90000cb0:	b0009001 	imm	-28671
90000cb4:	30603d98 	addik	r3, r0, 15768
90000cb8:	10841800 	addk	r4, r4, r3
90000cbc:	30600003 	addik	r3, r0, 3
90000cc0:	f8640000 	swi	r3, r4, 0
90000cc4:	e8730030 	lwi	r3, r19, 48
90000cc8:	64830402 	bslli	r4, r3, 2
90000ccc:	b0009001 	imm	-28671
90000cd0:	30603da0 	addik	r3, r0, 15776
90000cd4:	10841800 	addk	r4, r4, r3
90000cd8:	30600003 	addik	r3, r0, 3
90000cdc:	f8640000 	swi	r3, r4, 0
90000ce0:	e8730030 	lwi	r3, r19, 48
90000ce4:	64830402 	bslli	r4, r3, 2
90000ce8:	b0009001 	imm	-28671
90000cec:	30603da8 	addik	r3, r0, 15784
90000cf0:	10641800 	addk	r3, r4, r3
90000cf4:	f8030000 	swi	r0, r3, 0
90000cf8:	e8730030 	lwi	r3, r19, 48
90000cfc:	64830402 	bslli	r4, r3, 2
90000d00:	b0009001 	imm	-28671
90000d04:	30603db0 	addik	r3, r0, 15792
90000d08:	10641800 	addk	r3, r4, r3
90000d0c:	f8030000 	swi	r0, r3, 0
90000d10:	e8730030 	lwi	r3, r19, 48
90000d14:	64830402 	bslli	r4, r3, 2
90000d18:	b0009001 	imm	-28671
90000d1c:	30603d78 	addik	r3, r0, 15736
90000d20:	10841800 	addk	r4, r4, r3
90000d24:	30600003 	addik	r3, r0, 3
90000d28:	f8640000 	swi	r3, r4, 0
90000d2c:	e8730030 	lwi	r3, r19, 48
90000d30:	64830402 	bslli	r4, r3, 2
90000d34:	b0009001 	imm	-28671
90000d38:	30603d80 	addik	r3, r0, 15744
90000d3c:	10841800 	addk	r4, r4, r3
90000d40:	30600003 	addik	r3, r0, 3
90000d44:	f8640000 	swi	r3, r4, 0
90000d48:	e8730030 	lwi	r3, r19, 48
90000d4c:	64830402 	bslli	r4, r3, 2
90000d50:	b0009001 	imm	-28671
90000d54:	30603d88 	addik	r3, r0, 15752
90000d58:	10641800 	addk	r3, r4, r3
90000d5c:	f8030000 	swi	r0, r3, 0
90000d60:	e8730030 	lwi	r3, r19, 48
90000d64:	64830402 	bslli	r4, r3, 2
90000d68:	b0009001 	imm	-28671
90000d6c:	30603d90 	addik	r3, r0, 15760
90000d70:	10641800 	addk	r3, r4, r3
90000d74:	f8030000 	swi	r0, r3, 0
90000d78:	e8730030 	lwi	r3, r19, 48
90000d7c:	64830402 	bslli	r4, r3, 2
90000d80:	b0009001 	imm	-28671
90000d84:	30603db8 	addik	r3, r0, 15800
90000d88:	10841800 	addk	r4, r4, r3
90000d8c:	30600003 	addik	r3, r0, 3
90000d90:	f8640000 	swi	r3, r4, 0
90000d94:	e8730030 	lwi	r3, r19, 48
90000d98:	64830402 	bslli	r4, r3, 2
90000d9c:	b0009001 	imm	-28671
90000da0:	30603dc0 	addik	r3, r0, 15808
90000da4:	10841800 	addk	r4, r4, r3
90000da8:	30600003 	addik	r3, r0, 3
90000dac:	f8640000 	swi	r3, r4, 0
90000db0:	e8730030 	lwi	r3, r19, 48
90000db4:	64830402 	bslli	r4, r3, 2
90000db8:	b0009001 	imm	-28671
90000dbc:	30603dc8 	addik	r3, r0, 15816
90000dc0:	10641800 	addk	r3, r4, r3
90000dc4:	f8030000 	swi	r0, r3, 0
90000dc8:	e8730030 	lwi	r3, r19, 48
90000dcc:	64830402 	bslli	r4, r3, 2
90000dd0:	b0009001 	imm	-28671
90000dd4:	30603dd0 	addik	r3, r0, 15824
90000dd8:	10641800 	addk	r3, r4, r3
90000ddc:	f8030000 	swi	r0, r3, 0
90000de0:	e8730030 	lwi	r3, r19, 48
90000de4:	64830402 	bslli	r4, r3, 2
90000de8:	b0009001 	imm	-28671
90000dec:	30603dd8 	addik	r3, r0, 15832
90000df0:	10841800 	addk	r4, r4, r3
90000df4:	30600003 	addik	r3, r0, 3
90000df8:	f8640000 	swi	r3, r4, 0
90000dfc:	e8730030 	lwi	r3, r19, 48
90000e00:	64830402 	bslli	r4, r3, 2
90000e04:	b0009001 	imm	-28671
90000e08:	30603de0 	addik	r3, r0, 15840
90000e0c:	10841800 	addk	r4, r4, r3
90000e10:	30600003 	addik	r3, r0, 3
90000e14:	f8640000 	swi	r3, r4, 0
90000e18:	e8730030 	lwi	r3, r19, 48
90000e1c:	64830402 	bslli	r4, r3, 2
90000e20:	b0009001 	imm	-28671
90000e24:	30603de8 	addik	r3, r0, 15848
90000e28:	10641800 	addk	r3, r4, r3
90000e2c:	f8030000 	swi	r0, r3, 0
90000e30:	e8730030 	lwi	r3, r19, 48
90000e34:	64830402 	bslli	r4, r3, 2
90000e38:	b0009001 	imm	-28671
90000e3c:	30603df0 	addik	r3, r0, 15856
90000e40:	10641800 	addk	r3, r4, r3
90000e44:	f8030000 	swi	r0, r3, 0
90000e48:	e8730030 	lwi	r3, r19, 48
90000e4c:	64830402 	bslli	r4, r3, 2
90000e50:	b0009001 	imm	-28671
90000e54:	30605030 	addik	r3, r0, 20528
90000e58:	10841800 	addk	r4, r4, r3
90000e5c:	30600003 	addik	r3, r0, 3
90000e60:	f8640000 	swi	r3, r4, 0
90000e64:	e8730030 	lwi	r3, r19, 48
90000e68:	64830402 	bslli	r4, r3, 2
90000e6c:	b0009001 	imm	-28671
90000e70:	30605020 	addik	r3, r0, 20512
90000e74:	10841800 	addk	r4, r4, r3
90000e78:	30600003 	addik	r3, r0, 3
90000e7c:	f8640000 	swi	r3, r4, 0
90000e80:	e8730030 	lwi	r3, r19, 48
90000e84:	64830402 	bslli	r4, r3, 2
90000e88:	b0009001 	imm	-28671
90000e8c:	30605038 	addik	r3, r0, 20536
90000e90:	10641800 	addk	r3, r4, r3
90000e94:	f8030000 	swi	r0, r3, 0
90000e98:	e8730030 	lwi	r3, r19, 48
90000e9c:	64830402 	bslli	r4, r3, 2
90000ea0:	b0009001 	imm	-28671
90000ea4:	30605018 	addik	r3, r0, 20504
90000ea8:	10641800 	addk	r3, r4, r3
90000eac:	f8030000 	swi	r0, r3, 0
90000eb0:	e8730030 	lwi	r3, r19, 48
90000eb4:	30630001 	addik	r3, r3, 1
90000eb8:	f8730030 	swi	r3, r19, 48
90000ebc:	e8730030 	lwi	r3, r19, 48
90000ec0:	22400001 	addi	r18, r0, 1
90000ec4:	16439003 	cmpu	r18, r3, r18
90000ec8:	bcb2fde0 	bgei	r18, -544		// 90000ca8
90000ecc:	f8130030 	swi	r0, r19, 48
90000ed0:	b80000cc 	bri	204		// 90000f9c
90000ed4:	f813002c 	swi	r0, r19, 44
90000ed8:	b80000a8 	bri	168		// 90000f80
90000edc:	e8b30030 	lwi	r5, r19, 48
90000ee0:	e873002c 	lwi	r3, r19, 44
90000ee4:	6083000c 	muli	r4, r3, 12
90000ee8:	60650078 	muli	r3, r5, 120
90000eec:	10841800 	addk	r4, r4, r3
90000ef0:	b0009001 	imm	-28671
90000ef4:	30604488 	addik	r3, r0, 17544
90000ef8:	10841800 	addk	r4, r4, r3
90000efc:	3060ffff 	addik	r3, r0, -1
90000f00:	f8640000 	swi	r3, r4, 0
90000f04:	e8b30030 	lwi	r5, r19, 48
90000f08:	e873002c 	lwi	r3, r19, 44
90000f0c:	6083000c 	muli	r4, r3, 12
90000f10:	60650078 	muli	r3, r5, 120
90000f14:	10841800 	addk	r4, r4, r3
90000f18:	b0009001 	imm	-28671
90000f1c:	3060448c 	addik	r3, r0, 17548
90000f20:	10641800 	addk	r3, r4, r3
90000f24:	f8030000 	swi	r0, r3, 0
90000f28:	e8730030 	lwi	r3, r19, 48
90000f2c:	e893002c 	lwi	r4, r19, 44
90000f30:	6063000a 	muli	r3, r3, 10
90000f34:	10632000 	addk	r3, r3, r4
90000f38:	64830403 	bslli	r4, r3, 3
90000f3c:	b0009001 	imm	-28671
90000f40:	30603df8 	addik	r3, r0, 15864
90000f44:	10841800 	addk	r4, r4, r3
90000f48:	3060ffff 	addik	r3, r0, -1
90000f4c:	f8640000 	swi	r3, r4, 0
90000f50:	e8730030 	lwi	r3, r19, 48
90000f54:	e893002c 	lwi	r4, r19, 44
90000f58:	6063000a 	muli	r3, r3, 10
90000f5c:	10632000 	addk	r3, r3, r4
90000f60:	64830403 	bslli	r4, r3, 3
90000f64:	b0009001 	imm	-28671
90000f68:	30603dfc 	addik	r3, r0, 15868
90000f6c:	10641800 	addk	r3, r4, r3
90000f70:	f8030000 	swi	r0, r3, 0
90000f74:	e873002c 	lwi	r3, r19, 44
90000f78:	30630001 	addik	r3, r3, 1
90000f7c:	f873002c 	swi	r3, r19, 44
90000f80:	e873002c 	lwi	r3, r19, 44
90000f84:	22400009 	addi	r18, r0, 9
90000f88:	16439003 	cmpu	r18, r3, r18
90000f8c:	bcb2ff50 	bgei	r18, -176		// 90000edc
90000f90:	e8730030 	lwi	r3, r19, 48
90000f94:	30630001 	addik	r3, r3, 1
90000f98:	f8730030 	swi	r3, r19, 48
90000f9c:	e8730030 	lwi	r3, r19, 48
90000fa0:	22400013 	addi	r18, r0, 19
90000fa4:	16439003 	cmpu	r18, r3, r18
90000fa8:	bcb2ff2c 	bgei	r18, -212		// 90000ed4
90000fac:	30600001 	addik	r3, r0, 1
90000fb0:	b0009001 	imm	-28671
90000fb4:	f8603cf4 	swi	r3, r0, 15604
90000fb8:	30a00008 	addik	r5, r0, 8	// 8 <_vector_sw_exception>
90000fbc:	b9f431e0 	brlid	r15, 12768	// 9000419c <pvPortMalloc>
90000fc0:	80000000 	or	r0, r0, r0
90000fc4:	f8730028 	swi	r3, r19, 40
90000fc8:	e8930028 	lwi	r4, r19, 40
90000fcc:	e8730054 	lwi	r3, r19, 84
90000fd0:	f8640000 	swi	r3, r4, 0
90000fd4:	e4b30050 	lhui	r5, r19, 80
90000fd8:	e8d30060 	lwi	r6, r19, 96
90000fdc:	b9f42cfc 	brlid	r15, 11516	// 90003cd8 <prvAllocateTCBAndStack>
90000fe0:	80000000 	or	r0, r0, r0
90000fe4:	f8730034 	swi	r3, r19, 52
90000fe8:	e8930028 	lwi	r4, r19, 40
90000fec:	e8730034 	lwi	r3, r19, 52
90000ff0:	f8640004 	swi	r3, r4, 4
90000ff4:	e8730044 	lwi	r3, r19, 68
90000ff8:	aa430003 	xori	r18, r3, 3
90000ffc:	bc32001c 	bnei	r18, 28		// 90001018
90001000:	e8730034 	lwi	r3, r19, 52
90001004:	30800003 	addik	r4, r0, 3
90001008:	f883003c 	swi	r4, r3, 60
9000100c:	e8730024 	lwi	r3, r19, 36
90001010:	f8730044 	swi	r3, r19, 68
90001014:	b8000010 	bri	16		// 90001024
90001018:	e8930034 	lwi	r4, r19, 52
9000101c:	e8730044 	lwi	r3, r19, 68
90001020:	f864003c 	swi	r3, r4, 60
90001024:	b0009001 	imm	-28671
90001028:	3060370c 	addik	r3, r0, 14092
9000102c:	e8b30024 	lwi	r5, r19, 36
90001030:	10c30000 	addk	r6, r3, r0
90001034:	b9f41db0 	brlid	r15, 7600	// 90002de4 <vCPUAcquireMutex>
90001038:	80000000 	or	r0, r0, r0
9000103c:	b0009001 	imm	-28671
90001040:	e8803708 	lwi	r4, r0, 14088
90001044:	e8730034 	lwi	r3, r19, 52
90001048:	f8830040 	swi	r4, r3, 64
9000104c:	b0009001 	imm	-28671
90001050:	e8603708 	lwi	r3, r0, 14088
90001054:	30630001 	addik	r3, r3, 1
90001058:	22400014 	addi	r18, r0, 20
9000105c:	16439003 	cmpu	r18, r3, r18
90001060:	bcb20014 	bgei	r18, 20		// 90001074
90001064:	30600001 	addik	r3, r0, 1
90001068:	b0009001 	imm	-28671
9000106c:	f8603708 	swi	r3, r0, 14088
90001070:	b8000018 	bri	24		// 90001088
90001074:	b0009001 	imm	-28671
90001078:	e8603708 	lwi	r3, r0, 14088
9000107c:	30630001 	addik	r3, r3, 1
90001080:	b0009001 	imm	-28671
90001084:	f8603708 	swi	r3, r0, 14088
90001088:	b0009001 	imm	-28671
9000108c:	3060370c 	addik	r3, r0, 14092
90001090:	e8b30024 	lwi	r5, r19, 36
90001094:	10c30000 	addk	r6, r3, r0
90001098:	b9f41fc8 	brlid	r15, 8136	// 90003060 <vCPUReleaseMutex>
9000109c:	80000000 	or	r0, r0, r0
900010a0:	e8730034 	lwi	r3, r19, 52
900010a4:	bc03031c 	beqi	r3, 796		// 900013c0
900010a8:	e8730034 	lwi	r3, r19, 52
900010ac:	e8830030 	lwi	r4, r3, 48
900010b0:	e4730050 	lhui	r3, r19, 80
900010b4:	64630402 	bslli	r3, r3, 2
900010b8:	10641800 	addk	r3, r4, r3
900010bc:	3063fffc 	addik	r3, r3, -4
900010c0:	f8730020 	swi	r3, r19, 32
900010c4:	e8730020 	lwi	r3, r19, 32
900010c8:	a463fffc 	andi	r3, r3, -4
900010cc:	f8730020 	swi	r3, r19, 32
900010d0:	e8b30034 	lwi	r5, r19, 52
900010d4:	e8d3004c 	lwi	r6, r19, 76
900010d8:	e8f30058 	lwi	r7, r19, 88
900010dc:	e9130064 	lwi	r8, r19, 100
900010e0:	e5330050 	lhui	r9, r19, 80
900010e4:	b9f42844 	brlid	r15, 10308	// 90003928 <prvInitialiseTCBVariables>
900010e8:	80000000 	or	r0, r0, r0
900010ec:	e8b30020 	lwi	r5, r19, 32
900010f0:	e8d30048 	lwi	r6, r19, 72
900010f4:	e8f30028 	lwi	r7, r19, 40
900010f8:	b9f43224 	brlid	r15, 12836	// 9000431c <pxPortInitialiseStack>
900010fc:	80000000 	or	r0, r0, r0
90001100:	10830000 	addk	r4, r3, r0
90001104:	e8730034 	lwi	r3, r19, 52
90001108:	f8830000 	swi	r4, r3, 0
9000110c:	e873005c 	lwi	r3, r19, 92
90001110:	bc030010 	beqi	r3, 16		// 90001120
90001114:	e893005c 	lwi	r4, r19, 92
90001118:	e8730034 	lwi	r3, r19, 52
9000111c:	f8640000 	swi	r3, r4, 0
90001120:	b0009001 	imm	-28671
90001124:	3060371c 	addik	r3, r0, 14108
90001128:	e8b30024 	lwi	r5, r19, 36
9000112c:	10c30000 	addk	r6, r3, r0
90001130:	b9f41cb4 	brlid	r15, 7348	// 90002de4 <vCPUAcquireMutex>
90001134:	80000000 	or	r0, r0, r0
90001138:	f813001c 	swi	r0, r19, 28
9000113c:	e8730044 	lwi	r3, r19, 68
90001140:	64830402 	bslli	r4, r3, 2
90001144:	b0009001 	imm	-28671
90001148:	30605028 	addik	r3, r0, 20520
9000114c:	10641800 	addk	r3, r4, r3
90001150:	e8630000 	lwi	r3, r3, 0
90001154:	bc03000c 	beqi	r3, 12		// 90001160
90001158:	30600001 	addik	r3, r0, 1
9000115c:	f873001c 	swi	r3, r19, 28
90001160:	b0009001 	imm	-28671
90001164:	e8603cfc 	lwi	r3, r0, 15612
90001168:	30630001 	addik	r3, r3, 1
9000116c:	b0009001 	imm	-28671
90001170:	f8603cfc 	swi	r3, r0, 15612
90001174:	e873001c 	lwi	r3, r19, 28
90001178:	bc23003c 	bnei	r3, 60		// 900011b4
9000117c:	e8730044 	lwi	r3, r19, 68
90001180:	64830402 	bslli	r4, r3, 2
90001184:	b0009001 	imm	-28671
90001188:	30605028 	addik	r3, r0, 20520
9000118c:	10841800 	addk	r4, r4, r3
90001190:	e8730034 	lwi	r3, r19, 52
90001194:	f8640000 	swi	r3, r4, 0
90001198:	b0009001 	imm	-28671
9000119c:	e8603cfc 	lwi	r3, r0, 15612
900011a0:	aa430001 	xori	r18, r3, 1
900011a4:	bc320160 	bnei	r18, 352		// 90001304
900011a8:	b9f42864 	brlid	r15, 10340	// 90003a0c <prvInitialiseTaskLists>
900011ac:	80000000 	or	r0, r0, r0
900011b0:	b8000154 	bri	340		// 90001304
900011b4:	b0009001 	imm	-28671
900011b8:	e8603d0c 	lwi	r3, r0, 15628
900011bc:	bc230148 	bnei	r3, 328		// 90001304
900011c0:	e8730044 	lwi	r3, r19, 68
900011c4:	64830402 	bslli	r4, r3, 2
900011c8:	b0009001 	imm	-28671
900011cc:	30605028 	addik	r3, r0, 20520
900011d0:	10641800 	addk	r3, r4, r3
900011d4:	e8630000 	lwi	r3, r3, 0
900011d8:	bc230024 	bnei	r3, 36		// 900011fc
900011dc:	e8730044 	lwi	r3, r19, 68
900011e0:	64830402 	bslli	r4, r3, 2
900011e4:	b0009001 	imm	-28671
900011e8:	30605028 	addik	r3, r0, 20520
900011ec:	10841800 	addk	r4, r4, r3
900011f0:	e8730034 	lwi	r3, r19, 52
900011f4:	f8640000 	swi	r3, r4, 0
900011f8:	b800010c 	bri	268		// 90001304
900011fc:	f8130030 	swi	r0, r19, 48
90001200:	b80000f4 	bri	244		// 900012f4
90001204:	e8730030 	lwi	r3, r19, 48
90001208:	64830402 	bslli	r4, r3, 2
9000120c:	b0009001 	imm	-28671
90001210:	30605028 	addik	r3, r0, 20520
90001214:	10641800 	addk	r3, r4, r3
90001218:	e8630000 	lwi	r3, r3, 0
9000121c:	bc230060 	bnei	r3, 96		// 9000127c
90001220:	e8730034 	lwi	r3, r19, 52
90001224:	e863003c 	lwi	r3, r3, 60
90001228:	aa430003 	xori	r18, r3, 3
9000122c:	bc120030 	beqi	r18, 48		// 9000125c
90001230:	e8730030 	lwi	r3, r19, 48
90001234:	64830402 	bslli	r4, r3, 2
90001238:	b0009001 	imm	-28671
9000123c:	30605028 	addik	r3, r0, 20520
90001240:	10641800 	addk	r3, r4, r3
90001244:	e8630000 	lwi	r3, r3, 0
90001248:	bc230034 	bnei	r3, 52		// 9000127c
9000124c:	e8930030 	lwi	r4, r19, 48
90001250:	e8730044 	lwi	r3, r19, 68
90001254:	16432000 	rsubk	r18, r3, r4
90001258:	bc320024 	bnei	r18, 36		// 9000127c
9000125c:	e8730030 	lwi	r3, r19, 48
90001260:	64830402 	bslli	r4, r3, 2
90001264:	b0009001 	imm	-28671
90001268:	30605028 	addik	r3, r0, 20520
9000126c:	10841800 	addk	r4, r4, r3
90001270:	e8730034 	lwi	r3, r19, 52
90001274:	f8640000 	swi	r3, r4, 0
90001278:	b800008c 	bri	140		// 90001304
9000127c:	e8730030 	lwi	r3, r19, 48
90001280:	64830402 	bslli	r4, r3, 2
90001284:	b0009001 	imm	-28671
90001288:	30605028 	addik	r3, r0, 20520
9000128c:	10641800 	addk	r3, r4, r3
90001290:	e8630000 	lwi	r3, r3, 0
90001294:	e883002c 	lwi	r4, r3, 44
90001298:	e8730058 	lwi	r3, r19, 88
9000129c:	16441803 	cmpu	r18, r4, r3
900012a0:	bc520048 	blti	r18, 72		// 900012e8
900012a4:	e8730034 	lwi	r3, r19, 52
900012a8:	e863003c 	lwi	r3, r3, 60
900012ac:	aa430003 	xori	r18, r3, 3
900012b0:	bc120018 	beqi	r18, 24		// 900012c8
900012b4:	e8730034 	lwi	r3, r19, 52
900012b8:	e883003c 	lwi	r4, r3, 60
900012bc:	e8730030 	lwi	r3, r19, 48
900012c0:	16432000 	rsubk	r18, r3, r4
900012c4:	bc320024 	bnei	r18, 36		// 900012e8
900012c8:	e8730030 	lwi	r3, r19, 48
900012cc:	64830402 	bslli	r4, r3, 2
900012d0:	b0009001 	imm	-28671
900012d4:	30605028 	addik	r3, r0, 20520
900012d8:	10841800 	addk	r4, r4, r3
900012dc:	e8730034 	lwi	r3, r19, 52
900012e0:	f8640000 	swi	r3, r4, 0
900012e4:	b8000020 	bri	32		// 90001304
900012e8:	e8730030 	lwi	r3, r19, 48
900012ec:	30630001 	addik	r3, r3, 1
900012f0:	f8730030 	swi	r3, r19, 48
900012f4:	e8730030 	lwi	r3, r19, 48
900012f8:	22400001 	addi	r18, r0, 1
900012fc:	16439003 	cmpu	r18, r3, r18
90001300:	bcb2ff04 	bgei	r18, -252		// 90001204
90001304:	e8730034 	lwi	r3, r19, 52
90001308:	e883002c 	lwi	r4, r3, 44
9000130c:	b0009001 	imm	-28671
90001310:	e8603d04 	lwi	r3, r0, 15620
90001314:	16441803 	cmpu	r18, r4, r3
90001318:	bcb20014 	bgei	r18, 20		// 9000132c
9000131c:	e8730034 	lwi	r3, r19, 52
90001320:	e863002c 	lwi	r3, r3, 44
90001324:	b0009001 	imm	-28671
90001328:	f8603d04 	swi	r3, r0, 15620
9000132c:	b0009001 	imm	-28671
90001330:	e8603d20 	lwi	r3, r0, 15648
90001334:	30630001 	addik	r3, r3, 1
90001338:	b0009001 	imm	-28671
9000133c:	f8603d20 	swi	r3, r0, 15648
90001340:	e8730034 	lwi	r3, r19, 52
90001344:	e883002c 	lwi	r4, r3, 44
90001348:	b0009001 	imm	-28671
9000134c:	e8603d08 	lwi	r3, r0, 15624
90001350:	16441803 	cmpu	r18, r4, r3
90001354:	bcb20014 	bgei	r18, 20		// 90001368
90001358:	e8730034 	lwi	r3, r19, 52
9000135c:	e863002c 	lwi	r3, r3, 44
90001360:	b0009001 	imm	-28671
90001364:	f8603d08 	swi	r3, r0, 15624
90001368:	e8730034 	lwi	r3, r19, 52
9000136c:	e863002c 	lwi	r3, r3, 44
90001370:	60630014 	muli	r3, r3, 20
90001374:	10830000 	addk	r4, r3, r0
90001378:	b0009001 	imm	-28671
9000137c:	30604e60 	addik	r3, r0, 20064
90001380:	10841800 	addk	r4, r4, r3
90001384:	e8730034 	lwi	r3, r19, 52
90001388:	30630004 	addik	r3, r3, 4
9000138c:	10a40000 	addk	r5, r4, r0
90001390:	10c30000 	addk	r6, r3, r0
90001394:	b9f4f6b4 	brlid	r15, -2380	// 90000a48 <vListInsertEnd>
90001398:	80000000 	or	r0, r0, r0
9000139c:	30600001 	addik	r3, r0, 1
900013a0:	f8730038 	swi	r3, r19, 56
900013a4:	b0009001 	imm	-28671
900013a8:	3060371c 	addik	r3, r0, 14108
900013ac:	e8b30024 	lwi	r5, r19, 36
900013b0:	10c30000 	addk	r6, r3, r0
900013b4:	b9f41cac 	brlid	r15, 7340	// 90003060 <vCPUReleaseMutex>
900013b8:	80000000 	or	r0, r0, r0
900013bc:	b800000c 	bri	12		// 900013c8
900013c0:	3060ffff 	addik	r3, r0, -1
900013c4:	f8730038 	swi	r3, r19, 56
900013c8:	e8730038 	lwi	r3, r19, 56
900013cc:	aa430001 	xori	r18, r3, 1
900013d0:	bc320034 	bnei	r18, 52		// 90001404
900013d4:	b0009001 	imm	-28671
900013d8:	e8603d0c 	lwi	r3, r0, 15628
900013dc:	bc030028 	beqi	r3, 40		// 90001404
900013e0:	e8730044 	lwi	r3, r19, 68
900013e4:	64830402 	bslli	r4, r3, 2
900013e8:	b0009001 	imm	-28671
900013ec:	30605028 	addik	r3, r0, 20520
900013f0:	10641800 	addk	r3, r4, r3
900013f4:	e8630000 	lwi	r3, r3, 0
900013f8:	bc23000c 	bnei	r3, 12		// 90001404
900013fc:	b9f43578 	brlid	r15, 13688	// 90004974 <vPortYield>
90001400:	80000000 	or	r0, r0, r0
90001404:	e8730038 	lwi	r3, r19, 56
90001408:	e9e10000 	lwi	r15, r1, 0
9000140c:	10330000 	addk	r1, r19, r0
90001410:	ea61003c 	lwi	r19, r1, 60
90001414:	30210040 	addik	r1, r1, 64
90001418:	b60f0008 	rtsd	r15, 8
9000141c:	80000000 	or	r0, r0, r0

90001420 <getTCBList>:
90001420:	3021fff8 	addik	r1, r1, -8
90001424:	fa610004 	swi	r19, r1, 4
90001428:	12610000 	addk	r19, r1, r0
9000142c:	b0009001 	imm	-28671
90001430:	e8605028 	lwi	r3, r0, 20520
90001434:	10330000 	addk	r1, r19, r0
90001438:	ea610004 	lwi	r19, r1, 4
9000143c:	30210008 	addik	r1, r1, 8
90001440:	b60f0008 	rtsd	r15, 8
90001444:	80000000 	or	r0, r0, r0

90001448 <vTaskDelete>:
90001448:	3021ffd4 	addik	r1, r1, -44
9000144c:	f9e10000 	swi	r15, r1, 0
90001450:	fa610028 	swi	r19, r1, 40
90001454:	12610000 	addk	r19, r1, r0
90001458:	f8b30030 	swi	r5, r19, 48
9000145c:	b9f43c94 	brlid	r15, 15508	// 900050f0 <xPortGetCurrentCPU>
90001460:	80000000 	or	r0, r0, r0
90001464:	f8730020 	swi	r3, r19, 32
90001468:	f813001c 	swi	r0, r19, 28
9000146c:	e8730030 	lwi	r3, r19, 48
90001470:	bc030104 	beqi	r3, 260		// 90001574
90001474:	b0009001 	imm	-28671
90001478:	3060371c 	addik	r3, r0, 14108
9000147c:	e8b30020 	lwi	r5, r19, 32
90001480:	10c30000 	addk	r6, r3, r0
90001484:	b9f41960 	brlid	r15, 6496	// 90002de4 <vCPUAcquireMutex>
90001488:	80000000 	or	r0, r0, r0
9000148c:	e8730020 	lwi	r3, r19, 32
90001490:	64830402 	bslli	r4, r3, 2
90001494:	b0009001 	imm	-28671
90001498:	30605028 	addik	r3, r0, 20520
9000149c:	10641800 	addk	r3, r4, r3
900014a0:	e8830000 	lwi	r4, r3, 0
900014a4:	e8730030 	lwi	r3, r19, 48
900014a8:	16432000 	rsubk	r18, r3, r4
900014ac:	bc32000c 	bnei	r18, 12		// 900014b8
900014b0:	30600001 	addik	r3, r0, 1
900014b4:	f873001c 	swi	r3, r19, 28
900014b8:	e8730030 	lwi	r3, r19, 48
900014bc:	f8730024 	swi	r3, r19, 36
900014c0:	e8730024 	lwi	r3, r19, 36
900014c4:	30630004 	addik	r3, r3, 4
900014c8:	10a30000 	addk	r5, r3, r0
900014cc:	b9f4f6f4 	brlid	r15, -2316	// 90000bc0 <vListRemove>
900014d0:	80000000 	or	r0, r0, r0
900014d4:	e8730024 	lwi	r3, r19, 36
900014d8:	e8630028 	lwi	r3, r3, 40
900014dc:	bc030018 	beqi	r3, 24		// 900014f4
900014e0:	e8730024 	lwi	r3, r19, 36
900014e4:	30630018 	addik	r3, r3, 24
900014e8:	10a30000 	addk	r5, r3, r0
900014ec:	b9f4f6d4 	brlid	r15, -2348	// 90000bc0 <vListRemove>
900014f0:	80000000 	or	r0, r0, r0
900014f4:	b0009001 	imm	-28671
900014f8:	30804f44 	addik	r4, r0, 20292
900014fc:	e8730024 	lwi	r3, r19, 36
90001500:	30630004 	addik	r3, r3, 4
90001504:	10a40000 	addk	r5, r4, r0
90001508:	10c30000 	addk	r6, r3, r0
9000150c:	b9f4f53c 	brlid	r15, -2756	// 90000a48 <vListInsertEnd>
90001510:	80000000 	or	r0, r0, r0
90001514:	b0009001 	imm	-28671
90001518:	e8603cf8 	lwi	r3, r0, 15608
9000151c:	30630001 	addik	r3, r3, 1
90001520:	b0009001 	imm	-28671
90001524:	f8603cf8 	swi	r3, r0, 15608
90001528:	b0009001 	imm	-28671
9000152c:	e8603d20 	lwi	r3, r0, 15648
90001530:	30630001 	addik	r3, r3, 1
90001534:	b0009001 	imm	-28671
90001538:	f8603d20 	swi	r3, r0, 15648
9000153c:	b0009001 	imm	-28671
90001540:	3060371c 	addik	r3, r0, 14108
90001544:	e8b30020 	lwi	r5, r19, 32
90001548:	10c30000 	addk	r6, r3, r0
9000154c:	b9f41b14 	brlid	r15, 6932	// 90003060 <vCPUReleaseMutex>
90001550:	80000000 	or	r0, r0, r0
90001554:	b0009001 	imm	-28671
90001558:	e8603d0c 	lwi	r3, r0, 15628
9000155c:	bc030018 	beqi	r3, 24		// 90001574
90001560:	e873001c 	lwi	r3, r19, 28
90001564:	aa430001 	xori	r18, r3, 1
90001568:	bc32000c 	bnei	r18, 12		// 90001574
9000156c:	b9f43408 	brlid	r15, 13320	// 90004974 <vPortYield>
90001570:	80000000 	or	r0, r0, r0
90001574:	e9e10000 	lwi	r15, r1, 0
90001578:	10330000 	addk	r1, r19, r0
9000157c:	ea610028 	lwi	r19, r1, 40
90001580:	3021002c 	addik	r1, r1, 44
90001584:	b60f0008 	rtsd	r15, 8
90001588:	80000000 	or	r0, r0, r0

9000158c <vTaskDelayUntil>:
9000158c:	3021ffc8 	addik	r1, r1, -56
90001590:	f9e10000 	swi	r15, r1, 0
90001594:	fa610034 	swi	r19, r1, 52
90001598:	12610000 	addk	r19, r1, r0
9000159c:	f8b3003c 	swi	r5, r19, 60
900015a0:	f8d30040 	swi	r6, r19, 64
900015a4:	f8f30044 	swi	r7, r19, 68
900015a8:	f8130024 	swi	r0, r19, 36
900015ac:	f8130020 	swi	r0, r19, 32
900015b0:	30600003 	addik	r3, r0, 3
900015b4:	f873001c 	swi	r3, r19, 28
900015b8:	e873003c 	lwi	r3, r19, 60
900015bc:	bc03015c 	beqi	r3, 348		// 90001718
900015c0:	e873003c 	lwi	r3, r19, 60
900015c4:	f8730030 	swi	r3, r19, 48
900015c8:	b9f40c28 	brlid	r15, 3112	// 900021f0 <vTaskSuspendAll>
900015cc:	80000000 	or	r0, r0, r0
900015d0:	f8130020 	swi	r0, r19, 32
900015d4:	b8000040 	bri	64		// 90001614
900015d8:	e8730020 	lwi	r3, r19, 32
900015dc:	64830402 	bslli	r4, r3, 2
900015e0:	b0009001 	imm	-28671
900015e4:	30605028 	addik	r3, r0, 20520
900015e8:	10641800 	addk	r3, r4, r3
900015ec:	e8830000 	lwi	r4, r3, 0
900015f0:	e873003c 	lwi	r3, r19, 60
900015f4:	16432000 	rsubk	r18, r3, r4
900015f8:	bc320010 	bnei	r18, 16		// 90001608
900015fc:	e8730020 	lwi	r3, r19, 32
90001600:	f873001c 	swi	r3, r19, 28
90001604:	b8000020 	bri	32		// 90001624
90001608:	e8730020 	lwi	r3, r19, 32
9000160c:	30630001 	addik	r3, r3, 1
90001610:	f8730020 	swi	r3, r19, 32
90001614:	e8730020 	lwi	r3, r19, 32
90001618:	22400001 	addi	r18, r0, 1
9000161c:	16439003 	cmpu	r18, r3, r18
90001620:	bcb2ffb8 	bgei	r18, -72		// 900015d8
90001624:	e8730040 	lwi	r3, r19, 64
90001628:	e8830000 	lwi	r4, r3, 0
9000162c:	e8730044 	lwi	r3, r19, 68
90001630:	10641800 	addk	r3, r4, r3
90001634:	f873002c 	swi	r3, r19, 44
90001638:	e8730040 	lwi	r3, r19, 64
9000163c:	e8830000 	lwi	r4, r3, 0
90001640:	b0009001 	imm	-28671
90001644:	e8603d00 	lwi	r3, r0, 15616
90001648:	16441803 	cmpu	r18, r4, r3
9000164c:	bcb20038 	bgei	r18, 56		// 90001684
90001650:	e8730040 	lwi	r3, r19, 64
90001654:	e8830000 	lwi	r4, r3, 0
90001658:	e873002c 	lwi	r3, r19, 44
9000165c:	16441803 	cmpu	r18, r4, r3
90001660:	bcb20054 	bgei	r18, 84		// 900016b4
90001664:	b0009001 	imm	-28671
90001668:	e8803d00 	lwi	r4, r0, 15616
9000166c:	e873002c 	lwi	r3, r19, 44
90001670:	16432003 	cmpu	r18, r3, r4
90001674:	bcb20040 	bgei	r18, 64		// 900016b4
90001678:	30600001 	addik	r3, r0, 1
9000167c:	f8730024 	swi	r3, r19, 36
90001680:	b8000034 	bri	52		// 900016b4
90001684:	e8730040 	lwi	r3, r19, 64
90001688:	e8830000 	lwi	r4, r3, 0
9000168c:	e873002c 	lwi	r3, r19, 44
90001690:	16441803 	cmpu	r18, r4, r3
90001694:	bc520018 	blti	r18, 24		// 900016ac
90001698:	b0009001 	imm	-28671
9000169c:	e8803d00 	lwi	r4, r0, 15616
900016a0:	e873002c 	lwi	r3, r19, 44
900016a4:	16432003 	cmpu	r18, r3, r4
900016a8:	bcb2000c 	bgei	r18, 12		// 900016b4
900016ac:	30600001 	addik	r3, r0, 1
900016b0:	f8730024 	swi	r3, r19, 36
900016b4:	e8730040 	lwi	r3, r19, 64
900016b8:	e893002c 	lwi	r4, r19, 44
900016bc:	f8830000 	swi	r4, r3, 0
900016c0:	e8730024 	lwi	r3, r19, 36
900016c4:	bc030028 	beqi	r3, 40		// 900016ec
900016c8:	e8730030 	lwi	r3, r19, 48
900016cc:	30630004 	addik	r3, r3, 4
900016d0:	10a30000 	addk	r5, r3, r0
900016d4:	b9f4f4ec 	brlid	r15, -2836	// 90000bc0 <vListRemove>
900016d8:	80000000 	or	r0, r0, r0
900016dc:	e8b3001c 	lwi	r5, r19, 28
900016e0:	e8d3002c 	lwi	r6, r19, 44
900016e4:	b9f4250c 	brlid	r15, 9484	// 90003bf0 <prvAddCurrentTaskToDelayedList>
900016e8:	80000000 	or	r0, r0, r0
900016ec:	b9f40b38 	brlid	r15, 2872	// 90002224 <xTaskResumeAll>
900016f0:	80000000 	or	r0, r0, r0
900016f4:	f8730028 	swi	r3, r19, 40
900016f8:	e8730028 	lwi	r3, r19, 40
900016fc:	bc23001c 	bnei	r3, 28		// 90001718
90001700:	e873001c 	lwi	r3, r19, 28
90001704:	22400001 	addi	r18, r0, 1
90001708:	16439003 	cmpu	r18, r3, r18
9000170c:	bc52000c 	blti	r18, 12		// 90001718
90001710:	b9f43264 	brlid	r15, 12900	// 90004974 <vPortYield>
90001714:	80000000 	or	r0, r0, r0
90001718:	e9e10000 	lwi	r15, r1, 0
9000171c:	10330000 	addk	r1, r19, r0
90001720:	ea610034 	lwi	r19, r1, 52
90001724:	30210038 	addik	r1, r1, 56
90001728:	b60f0008 	rtsd	r15, 8
9000172c:	80000000 	or	r0, r0, r0

90001730 <vTaskDelay>:
90001730:	3021ffd0 	addik	r1, r1, -48
90001734:	f9e10000 	swi	r15, r1, 0
90001738:	fa61002c 	swi	r19, r1, 44
9000173c:	12610000 	addk	r19, r1, r0
90001740:	f8b30034 	swi	r5, r19, 52
90001744:	f8d30038 	swi	r6, r19, 56
90001748:	f8130024 	swi	r0, r19, 36
9000174c:	b9f439a4 	brlid	r15, 14756	// 900050f0 <xPortGetCurrentCPU>
90001750:	80000000 	or	r0, r0, r0
90001754:	f8730020 	swi	r3, r19, 32
90001758:	e8730034 	lwi	r3, r19, 52
9000175c:	bc030070 	beqi	r3, 112		// 900017cc
90001760:	e8730034 	lwi	r3, r19, 52
90001764:	f873001c 	swi	r3, r19, 28
90001768:	e8730038 	lwi	r3, r19, 56
9000176c:	bc030050 	beqi	r3, 80		// 900017bc
90001770:	b9f40a80 	brlid	r15, 2688	// 900021f0 <vTaskSuspendAll>
90001774:	80000000 	or	r0, r0, r0
90001778:	b0009001 	imm	-28671
9000177c:	e8803d00 	lwi	r4, r0, 15616
90001780:	e8730038 	lwi	r3, r19, 56
90001784:	10641800 	addk	r3, r4, r3
90001788:	f8730028 	swi	r3, r19, 40
9000178c:	e873001c 	lwi	r3, r19, 28
90001790:	30630004 	addik	r3, r3, 4
90001794:	10a30000 	addk	r5, r3, r0
90001798:	b9f4f428 	brlid	r15, -3032	// 90000bc0 <vListRemove>
9000179c:	80000000 	or	r0, r0, r0
900017a0:	e8b30020 	lwi	r5, r19, 32
900017a4:	e8d30028 	lwi	r6, r19, 40
900017a8:	b9f42448 	brlid	r15, 9288	// 90003bf0 <prvAddCurrentTaskToDelayedList>
900017ac:	80000000 	or	r0, r0, r0
900017b0:	b9f40a74 	brlid	r15, 2676	// 90002224 <xTaskResumeAll>
900017b4:	80000000 	or	r0, r0, r0
900017b8:	f8730024 	swi	r3, r19, 36
900017bc:	e8730024 	lwi	r3, r19, 36
900017c0:	bc23000c 	bnei	r3, 12		// 900017cc
900017c4:	b9f431b0 	brlid	r15, 12720	// 90004974 <vPortYield>
900017c8:	80000000 	or	r0, r0, r0
900017cc:	e9e10000 	lwi	r15, r1, 0
900017d0:	10330000 	addk	r1, r19, r0
900017d4:	ea61002c 	lwi	r19, r1, 44
900017d8:	30210030 	addik	r1, r1, 48
900017dc:	b60f0008 	rtsd	r15, 8
900017e0:	80000000 	or	r0, r0, r0

900017e4 <uxTaskPriorityGet>:
900017e4:	3021ffd0 	addik	r1, r1, -48
900017e8:	f9e10000 	swi	r15, r1, 0
900017ec:	fa61002c 	swi	r19, r1, 44
900017f0:	12610000 	addk	r19, r1, r0
900017f4:	f8b30034 	swi	r5, r19, 52
900017f8:	b9f438f8 	brlid	r15, 14584	// 900050f0 <xPortGetCurrentCPU>
900017fc:	80000000 	or	r0, r0, r0
90001800:	f873001c 	swi	r3, r19, 28
90001804:	e8730034 	lwi	r3, r19, 52
90001808:	bc03005c 	beqi	r3, 92		// 90001864
9000180c:	e873001c 	lwi	r3, r19, 28
90001810:	b0009001 	imm	-28671
90001814:	3080372c 	addik	r4, r0, 14124
90001818:	10a30000 	addk	r5, r3, r0
9000181c:	10c40000 	addk	r6, r4, r0
90001820:	b9f415c4 	brlid	r15, 5572	// 90002de4 <vCPUAcquireMutex>
90001824:	80000000 	or	r0, r0, r0
90001828:	e8730034 	lwi	r3, r19, 52
9000182c:	f8730024 	swi	r3, r19, 36
90001830:	e8730024 	lwi	r3, r19, 36
90001834:	e863002c 	lwi	r3, r3, 44
90001838:	f8730020 	swi	r3, r19, 32
9000183c:	e873001c 	lwi	r3, r19, 28
90001840:	b0009001 	imm	-28671
90001844:	3080372c 	addik	r4, r0, 14124
90001848:	10a30000 	addk	r5, r3, r0
9000184c:	10c40000 	addk	r6, r4, r0
90001850:	b9f41810 	brlid	r15, 6160	// 90003060 <vCPUReleaseMutex>
90001854:	80000000 	or	r0, r0, r0
90001858:	e8730020 	lwi	r3, r19, 32
9000185c:	f8730028 	swi	r3, r19, 40
90001860:	b800000c 	bri	12		// 9000186c
90001864:	10600000 	addk	r3, r0, r0
90001868:	f8730028 	swi	r3, r19, 40
9000186c:	e8730028 	lwi	r3, r19, 40
90001870:	e9e10000 	lwi	r15, r1, 0
90001874:	10330000 	addk	r1, r19, r0
90001878:	ea61002c 	lwi	r19, r1, 44
9000187c:	30210030 	addik	r1, r1, 48
90001880:	b60f0008 	rtsd	r15, 8
90001884:	80000000 	or	r0, r0, r0

90001888 <vTaskPrioritySet>:
90001888:	3021ffc8 	addik	r1, r1, -56
9000188c:	f9e10000 	swi	r15, r1, 0
90001890:	fa610034 	swi	r19, r1, 52
90001894:	12610000 	addk	r19, r1, r0
90001898:	f8b3003c 	swi	r5, r19, 60
9000189c:	f8d30040 	swi	r6, r19, 64
900018a0:	b9f43850 	brlid	r15, 14416	// 900050f0 <xPortGetCurrentCPU>
900018a4:	80000000 	or	r0, r0, r0
900018a8:	f873002c 	swi	r3, r19, 44
900018ac:	f8130024 	swi	r0, r19, 36
900018b0:	f8130020 	swi	r0, r19, 32
900018b4:	3060ffff 	addik	r3, r0, -1
900018b8:	f873001c 	swi	r3, r19, 28
900018bc:	e873003c 	lwi	r3, r19, 60
900018c0:	bc0301f0 	beqi	r3, 496		// 90001ab0
900018c4:	e8730040 	lwi	r3, r19, 64
900018c8:	22400007 	addi	r18, r0, 7
900018cc:	16439003 	cmpu	r18, r3, r18
900018d0:	bcb2000c 	bgei	r18, 12		// 900018dc
900018d4:	30600007 	addik	r3, r0, 7
900018d8:	f8730040 	swi	r3, r19, 64
900018dc:	b0009001 	imm	-28671
900018e0:	3060371c 	addik	r3, r0, 14108
900018e4:	e8b3002c 	lwi	r5, r19, 44
900018e8:	10c30000 	addk	r6, r3, r0
900018ec:	b9f414f8 	brlid	r15, 5368	// 90002de4 <vCPUAcquireMutex>
900018f0:	80000000 	or	r0, r0, r0
900018f4:	e873003c 	lwi	r3, r19, 60
900018f8:	f8730030 	swi	r3, r19, 48
900018fc:	f8130024 	swi	r0, r19, 36
90001900:	b8000040 	bri	64		// 90001940
90001904:	e8730024 	lwi	r3, r19, 36
90001908:	64830402 	bslli	r4, r3, 2
9000190c:	b0009001 	imm	-28671
90001910:	30605028 	addik	r3, r0, 20520
90001914:	10641800 	addk	r3, r4, r3
90001918:	e8830000 	lwi	r4, r3, 0
9000191c:	e873003c 	lwi	r3, r19, 60
90001920:	16432000 	rsubk	r18, r3, r4
90001924:	bc320010 	bnei	r18, 16		// 90001934
90001928:	e8730024 	lwi	r3, r19, 36
9000192c:	f873001c 	swi	r3, r19, 28
90001930:	b8000020 	bri	32		// 90001950
90001934:	e8730024 	lwi	r3, r19, 36
90001938:	30630001 	addik	r3, r3, 1
9000193c:	f8730024 	swi	r3, r19, 36
90001940:	e8730024 	lwi	r3, r19, 36
90001944:	22400001 	addi	r18, r0, 1
90001948:	16439003 	cmpu	r18, r3, r18
9000194c:	bcb2ffb8 	bgei	r18, -72		// 90001904
90001950:	e8730030 	lwi	r3, r19, 48
90001954:	e8630044 	lwi	r3, r3, 68
90001958:	f8730028 	swi	r3, r19, 40
9000195c:	e8930028 	lwi	r4, r19, 40
90001960:	e8730040 	lwi	r3, r19, 64
90001964:	16432000 	rsubk	r18, r3, r4
90001968:	bc120130 	beqi	r18, 304		// 90001a98
9000196c:	e8930040 	lwi	r4, r19, 64
90001970:	e8730028 	lwi	r3, r19, 40
90001974:	16441803 	cmpu	r18, r4, r3
90001978:	bcb2001c 	bgei	r18, 28		// 90001994
9000197c:	e873001c 	lwi	r3, r19, 28
90001980:	aa43ffff 	xori	r18, r3, -1
90001984:	bc320028 	bnei	r18, 40		// 900019ac
90001988:	30600001 	addik	r3, r0, 1
9000198c:	f8730020 	swi	r3, r19, 32
90001990:	b800001c 	bri	28		// 900019ac
90001994:	e873001c 	lwi	r3, r19, 28
90001998:	3240ffff 	addik	r18, r0, -1
9000199c:	16439001 	cmp	r18, r3, r18
900019a0:	bcb2000c 	bgei	r18, 12		// 900019ac
900019a4:	30600001 	addik	r3, r0, 1
900019a8:	f8730020 	swi	r3, r19, 32
900019ac:	e8730030 	lwi	r3, r19, 48
900019b0:	e8830044 	lwi	r4, r3, 68
900019b4:	e8730030 	lwi	r3, r19, 48
900019b8:	e863002c 	lwi	r3, r3, 44
900019bc:	16432000 	rsubk	r18, r3, r4
900019c0:	bc320010 	bnei	r18, 16		// 900019d0
900019c4:	e8930030 	lwi	r4, r19, 48
900019c8:	e8730040 	lwi	r3, r19, 64
900019cc:	f864002c 	swi	r3, r4, 44
900019d0:	e8930030 	lwi	r4, r19, 48
900019d4:	e8730040 	lwi	r3, r19, 64
900019d8:	f8640044 	swi	r3, r4, 68
900019dc:	e8730040 	lwi	r3, r19, 64
900019e0:	34830008 	rsubik	r4, r3, 8
900019e4:	e8730030 	lwi	r3, r19, 48
900019e8:	f8830018 	swi	r4, r3, 24
900019ec:	e8730030 	lwi	r3, r19, 48
900019f0:	e8a30014 	lwi	r5, r3, 20
900019f4:	e8730028 	lwi	r3, r19, 40
900019f8:	60630014 	muli	r3, r3, 20
900019fc:	10830000 	addk	r4, r3, r0
90001a00:	b0009001 	imm	-28671
90001a04:	30604e60 	addik	r3, r0, 20064
90001a08:	10641800 	addk	r3, r4, r3
90001a0c:	16432800 	rsubk	r18, r3, r5
90001a10:	bc320074 	bnei	r18, 116		// 90001a84
90001a14:	e8730030 	lwi	r3, r19, 48
90001a18:	30630004 	addik	r3, r3, 4
90001a1c:	10a30000 	addk	r5, r3, r0
90001a20:	b9f4f1a0 	brlid	r15, -3680	// 90000bc0 <vListRemove>
90001a24:	80000000 	or	r0, r0, r0
90001a28:	e8730030 	lwi	r3, r19, 48
90001a2c:	e883002c 	lwi	r4, r3, 44
90001a30:	b0009001 	imm	-28671
90001a34:	e8603d08 	lwi	r3, r0, 15624
90001a38:	16441803 	cmpu	r18, r4, r3
90001a3c:	bcb20014 	bgei	r18, 20		// 90001a50
90001a40:	e8730030 	lwi	r3, r19, 48
90001a44:	e863002c 	lwi	r3, r3, 44
90001a48:	b0009001 	imm	-28671
90001a4c:	f8603d08 	swi	r3, r0, 15624
90001a50:	e8730030 	lwi	r3, r19, 48
90001a54:	e863002c 	lwi	r3, r3, 44
90001a58:	60630014 	muli	r3, r3, 20
90001a5c:	10830000 	addk	r4, r3, r0
90001a60:	b0009001 	imm	-28671
90001a64:	30604e60 	addik	r3, r0, 20064
90001a68:	10841800 	addk	r4, r4, r3
90001a6c:	e8730030 	lwi	r3, r19, 48
90001a70:	30630004 	addik	r3, r3, 4
90001a74:	10a40000 	addk	r5, r4, r0
90001a78:	10c30000 	addk	r6, r3, r0
90001a7c:	b9f4efcc 	brlid	r15, -4148	// 90000a48 <vListInsertEnd>
90001a80:	80000000 	or	r0, r0, r0
90001a84:	e8730020 	lwi	r3, r19, 32
90001a88:	aa430001 	xori	r18, r3, 1
90001a8c:	bc32000c 	bnei	r18, 12		// 90001a98
90001a90:	b9f42ee4 	brlid	r15, 12004	// 90004974 <vPortYield>
90001a94:	80000000 	or	r0, r0, r0
90001a98:	b0009001 	imm	-28671
90001a9c:	3060371c 	addik	r3, r0, 14108
90001aa0:	e8b3002c 	lwi	r5, r19, 44
90001aa4:	10c30000 	addk	r6, r3, r0
90001aa8:	b9f415b8 	brlid	r15, 5560	// 90003060 <vCPUReleaseMutex>
90001aac:	80000000 	or	r0, r0, r0
90001ab0:	e9e10000 	lwi	r15, r1, 0
90001ab4:	10330000 	addk	r1, r19, r0
90001ab8:	ea610034 	lwi	r19, r1, 52
90001abc:	30210038 	addik	r1, r1, 56
90001ac0:	b60f0008 	rtsd	r15, 8
90001ac4:	80000000 	or	r0, r0, r0

90001ac8 <vTaskSuspend>:
90001ac8:	3021ffd0 	addik	r1, r1, -48
90001acc:	f9e10000 	swi	r15, r1, 0
90001ad0:	fa61002c 	swi	r19, r1, 44
90001ad4:	12610000 	addk	r19, r1, r0
90001ad8:	f8b30034 	swi	r5, r19, 52
90001adc:	b9f43614 	brlid	r15, 13844	// 900050f0 <xPortGetCurrentCPU>
90001ae0:	80000000 	or	r0, r0, r0
90001ae4:	f8730024 	swi	r3, r19, 36
90001ae8:	f8130020 	swi	r0, r19, 32
90001aec:	3060ffff 	addik	r3, r0, -1
90001af0:	f873001c 	swi	r3, r19, 28
90001af4:	e8730034 	lwi	r3, r19, 52
90001af8:	bc030140 	beqi	r3, 320		// 90001c38
90001afc:	b0009001 	imm	-28671
90001b00:	3060371c 	addik	r3, r0, 14108
90001b04:	e8b30024 	lwi	r5, r19, 36
90001b08:	10c30000 	addk	r6, r3, r0
90001b0c:	b9f412d8 	brlid	r15, 4824	// 90002de4 <vCPUAcquireMutex>
90001b10:	80000000 	or	r0, r0, r0
90001b14:	f8130020 	swi	r0, r19, 32
90001b18:	b8000040 	bri	64		// 90001b58
90001b1c:	e8730020 	lwi	r3, r19, 32
90001b20:	64830402 	bslli	r4, r3, 2
90001b24:	b0009001 	imm	-28671
90001b28:	30605028 	addik	r3, r0, 20520
90001b2c:	10641800 	addk	r3, r4, r3
90001b30:	e8830000 	lwi	r4, r3, 0
90001b34:	e8730034 	lwi	r3, r19, 52
90001b38:	16432000 	rsubk	r18, r3, r4
90001b3c:	bc320010 	bnei	r18, 16		// 90001b4c
90001b40:	e8730020 	lwi	r3, r19, 32
90001b44:	f873001c 	swi	r3, r19, 28
90001b48:	b8000020 	bri	32		// 90001b68
90001b4c:	e8730020 	lwi	r3, r19, 32
90001b50:	30630001 	addik	r3, r3, 1
90001b54:	f8730020 	swi	r3, r19, 32
90001b58:	e8730020 	lwi	r3, r19, 32
90001b5c:	22400001 	addi	r18, r0, 1
90001b60:	16439003 	cmpu	r18, r3, r18
90001b64:	bcb2ffb8 	bgei	r18, -72		// 90001b1c
90001b68:	e8730034 	lwi	r3, r19, 52
90001b6c:	f8730028 	swi	r3, r19, 40
90001b70:	e8730028 	lwi	r3, r19, 40
90001b74:	30630004 	addik	r3, r3, 4
90001b78:	10a30000 	addk	r5, r3, r0
90001b7c:	b9f4f044 	brlid	r15, -4028	// 90000bc0 <vListRemove>
90001b80:	80000000 	or	r0, r0, r0
90001b84:	e8730028 	lwi	r3, r19, 40
90001b88:	e8630028 	lwi	r3, r3, 40
90001b8c:	bc030018 	beqi	r3, 24		// 90001ba4
90001b90:	e8730028 	lwi	r3, r19, 40
90001b94:	30630018 	addik	r3, r3, 24
90001b98:	10a30000 	addk	r5, r3, r0
90001b9c:	b9f4f024 	brlid	r15, -4060	// 90000bc0 <vListRemove>
90001ba0:	80000000 	or	r0, r0, r0
90001ba4:	e8730028 	lwi	r3, r19, 40
90001ba8:	30630004 	addik	r3, r3, 4
90001bac:	b0009001 	imm	-28671
90001bb0:	30a04f58 	addik	r5, r0, 20312
90001bb4:	10c30000 	addk	r6, r3, r0
90001bb8:	b9f4ee90 	brlid	r15, -4464	// 90000a48 <vListInsertEnd>
90001bbc:	80000000 	or	r0, r0, r0
90001bc0:	e873001c 	lwi	r3, r19, 28
90001bc4:	aa43ffff 	xori	r18, r3, -1
90001bc8:	bc120058 	beqi	r18, 88		// 90001c20
90001bcc:	b0009001 	imm	-28671
90001bd0:	e8603d0c 	lwi	r3, r0, 15628
90001bd4:	bc030010 	beqi	r3, 16		// 90001be4
90001bd8:	b9f42d9c 	brlid	r15, 11676	// 90004974 <vPortYield>
90001bdc:	80000000 	or	r0, r0, r0
90001be0:	b8000040 	bri	64		// 90001c20
90001be4:	b0009001 	imm	-28671
90001be8:	e8804f58 	lwi	r4, r0, 20312
90001bec:	b0009001 	imm	-28671
90001bf0:	e8603cfc 	lwi	r3, r0, 15612
90001bf4:	16432000 	rsubk	r18, r3, r4
90001bf8:	bc320020 	bnei	r18, 32		// 90001c18
90001bfc:	e873001c 	lwi	r3, r19, 28
90001c00:	64830402 	bslli	r4, r3, 2
90001c04:	b0009001 	imm	-28671
90001c08:	30605028 	addik	r3, r0, 20520
90001c0c:	10641800 	addk	r3, r4, r3
90001c10:	f8030000 	swi	r0, r3, 0
90001c14:	b800000c 	bri	12		// 90001c20
90001c18:	b9f40ac8 	brlid	r15, 2760	// 900026e0 <vTaskSwitchContext>
90001c1c:	80000000 	or	r0, r0, r0
90001c20:	b0009001 	imm	-28671
90001c24:	3060371c 	addik	r3, r0, 14108
90001c28:	e8b30024 	lwi	r5, r19, 36
90001c2c:	10c30000 	addk	r6, r3, r0
90001c30:	b9f41430 	brlid	r15, 5168	// 90003060 <vCPUReleaseMutex>
90001c34:	80000000 	or	r0, r0, r0
90001c38:	e9e10000 	lwi	r15, r1, 0
90001c3c:	10330000 	addk	r1, r19, r0
90001c40:	ea61002c 	lwi	r19, r1, 44
90001c44:	30210030 	addik	r1, r1, 48
90001c48:	b60f0008 	rtsd	r15, 8
90001c4c:	80000000 	or	r0, r0, r0

90001c50 <xTaskIsTaskSuspended>:
90001c50:	3021fff0 	addik	r1, r1, -16
90001c54:	fa61000c 	swi	r19, r1, 12
90001c58:	12610000 	addk	r19, r1, r0
90001c5c:	f8b30014 	swi	r5, r19, 20
90001c60:	f8130008 	swi	r0, r19, 8
90001c64:	e8730014 	lwi	r3, r19, 20
90001c68:	f8730004 	swi	r3, r19, 4
90001c6c:	e8730004 	lwi	r3, r19, 4
90001c70:	e8830014 	lwi	r4, r3, 20
90001c74:	b0009001 	imm	-28671
90001c78:	30604f58 	addik	r3, r0, 20312
90001c7c:	16432000 	rsubk	r18, r3, r4
90001c80:	bc320030 	bnei	r18, 48		// 90001cb0
90001c84:	e8730004 	lwi	r3, r19, 4
90001c88:	e8830028 	lwi	r4, r3, 40
90001c8c:	b0009001 	imm	-28671
90001c90:	30604f30 	addik	r3, r0, 20272
90001c94:	16432000 	rsubk	r18, r3, r4
90001c98:	bc120018 	beqi	r18, 24		// 90001cb0
90001c9c:	e8730004 	lwi	r3, r19, 4
90001ca0:	e8630028 	lwi	r3, r3, 40
90001ca4:	bc23000c 	bnei	r3, 12		// 90001cb0
90001ca8:	30600001 	addik	r3, r0, 1
90001cac:	f8730008 	swi	r3, r19, 8
90001cb0:	e8730008 	lwi	r3, r19, 8
90001cb4:	10330000 	addk	r1, r19, r0
90001cb8:	ea61000c 	lwi	r19, r1, 12
90001cbc:	30210010 	addik	r1, r1, 16
90001cc0:	b60f0008 	rtsd	r15, 8
90001cc4:	80000000 	or	r0, r0, r0

90001cc8 <vTaskResume>:
90001cc8:	3021ffd0 	addik	r1, r1, -48
90001ccc:	f9e10000 	swi	r15, r1, 0
90001cd0:	fa61002c 	swi	r19, r1, 44
90001cd4:	12610000 	addk	r19, r1, r0
90001cd8:	f8b30034 	swi	r5, r19, 52
90001cdc:	f8130024 	swi	r0, r19, 36
90001ce0:	b9f43410 	brlid	r15, 13328	// 900050f0 <xPortGetCurrentCPU>
90001ce4:	80000000 	or	r0, r0, r0
90001ce8:	f8730020 	swi	r3, r19, 32
90001cec:	e8730034 	lwi	r3, r19, 52
90001cf0:	f8730028 	swi	r3, r19, 40
90001cf4:	e8730020 	lwi	r3, r19, 32
90001cf8:	b0009001 	imm	-28671
90001cfc:	3080371c 	addik	r4, r0, 14108
90001d00:	10a30000 	addk	r5, r3, r0
90001d04:	10c40000 	addk	r6, r4, r0
90001d08:	b9f410dc 	brlid	r15, 4316	// 90002de4 <vCPUAcquireMutex>
90001d0c:	80000000 	or	r0, r0, r0
90001d10:	e8730028 	lwi	r3, r19, 40
90001d14:	bc030140 	beqi	r3, 320		// 90001e54
90001d18:	f813001c 	swi	r0, r19, 28
90001d1c:	f8130024 	swi	r0, r19, 36
90001d20:	b8000040 	bri	64		// 90001d60
90001d24:	e8730024 	lwi	r3, r19, 36
90001d28:	64830402 	bslli	r4, r3, 2
90001d2c:	b0009001 	imm	-28671
90001d30:	30605028 	addik	r3, r0, 20520
90001d34:	10641800 	addk	r3, r4, r3
90001d38:	e8830000 	lwi	r4, r3, 0
90001d3c:	e8730028 	lwi	r3, r19, 40
90001d40:	16432000 	rsubk	r18, r3, r4
90001d44:	bc320010 	bnei	r18, 16		// 90001d54
90001d48:	30600001 	addik	r3, r0, 1
90001d4c:	f873001c 	swi	r3, r19, 28
90001d50:	b8000020 	bri	32		// 90001d70
90001d54:	e8730024 	lwi	r3, r19, 36
90001d58:	30630001 	addik	r3, r3, 1
90001d5c:	f8730024 	swi	r3, r19, 36
90001d60:	e8730024 	lwi	r3, r19, 36
90001d64:	22400001 	addi	r18, r0, 1
90001d68:	16439003 	cmpu	r18, r3, r18
90001d6c:	bcb2ffb8 	bgei	r18, -72		// 90001d24
90001d70:	e873001c 	lwi	r3, r19, 28
90001d74:	bc2300e0 	bnei	r3, 224		// 90001e54
90001d78:	e8b30028 	lwi	r5, r19, 40
90001d7c:	b9f4fed4 	brlid	r15, -300	// 90001c50 <xTaskIsTaskSuspended>
90001d80:	80000000 	or	r0, r0, r0
90001d84:	aa430001 	xori	r18, r3, 1
90001d88:	bc3200cc 	bnei	r18, 204		// 90001e54
90001d8c:	e8730028 	lwi	r3, r19, 40
90001d90:	30630004 	addik	r3, r3, 4
90001d94:	10a30000 	addk	r5, r3, r0
90001d98:	b9f4ee28 	brlid	r15, -4568	// 90000bc0 <vListRemove>
90001d9c:	80000000 	or	r0, r0, r0
90001da0:	e8730028 	lwi	r3, r19, 40
90001da4:	e883002c 	lwi	r4, r3, 44
90001da8:	b0009001 	imm	-28671
90001dac:	e8603d08 	lwi	r3, r0, 15624
90001db0:	16441803 	cmpu	r18, r4, r3
90001db4:	bcb20014 	bgei	r18, 20		// 90001dc8
90001db8:	e8730028 	lwi	r3, r19, 40
90001dbc:	e863002c 	lwi	r3, r3, 44
90001dc0:	b0009001 	imm	-28671
90001dc4:	f8603d08 	swi	r3, r0, 15624
90001dc8:	e8730028 	lwi	r3, r19, 40
90001dcc:	e863002c 	lwi	r3, r3, 44
90001dd0:	60630014 	muli	r3, r3, 20
90001dd4:	10830000 	addk	r4, r3, r0
90001dd8:	b0009001 	imm	-28671
90001ddc:	30604e60 	addik	r3, r0, 20064
90001de0:	10841800 	addk	r4, r4, r3
90001de4:	e8730028 	lwi	r3, r19, 40
90001de8:	30630004 	addik	r3, r3, 4
90001dec:	10a40000 	addk	r5, r4, r0
90001df0:	10c30000 	addk	r6, r3, r0
90001df4:	b9f4ec54 	brlid	r15, -5036	// 90000a48 <vListInsertEnd>
90001df8:	80000000 	or	r0, r0, r0
90001dfc:	e8730020 	lwi	r3, r19, 32
90001e00:	64830402 	bslli	r4, r3, 2
90001e04:	b0009001 	imm	-28671
90001e08:	30605028 	addik	r3, r0, 20520
90001e0c:	10641800 	addk	r3, r4, r3
90001e10:	e8630000 	lwi	r3, r3, 0
90001e14:	e883002c 	lwi	r4, r3, 44
90001e18:	e8730028 	lwi	r3, r19, 40
90001e1c:	e863002c 	lwi	r3, r3, 44
90001e20:	16441803 	cmpu	r18, r4, r3
90001e24:	bc520030 	blti	r18, 48		// 90001e54
90001e28:	e8730028 	lwi	r3, r19, 40
90001e2c:	e863003c 	lwi	r3, r3, 60
90001e30:	aa430003 	xori	r18, r3, 3
90001e34:	bc120018 	beqi	r18, 24		// 90001e4c
90001e38:	e8730028 	lwi	r3, r19, 40
90001e3c:	e883003c 	lwi	r4, r3, 60
90001e40:	e8730020 	lwi	r3, r19, 32
90001e44:	16432000 	rsubk	r18, r3, r4
90001e48:	bc32000c 	bnei	r18, 12		// 90001e54
90001e4c:	b9f42b28 	brlid	r15, 11048	// 90004974 <vPortYield>
90001e50:	80000000 	or	r0, r0, r0
90001e54:	e8730020 	lwi	r3, r19, 32
90001e58:	b0009001 	imm	-28671
90001e5c:	3080371c 	addik	r4, r0, 14108
90001e60:	10a30000 	addk	r5, r3, r0
90001e64:	10c40000 	addk	r6, r4, r0
90001e68:	b9f411f8 	brlid	r15, 4600	// 90003060 <vCPUReleaseMutex>
90001e6c:	80000000 	or	r0, r0, r0
90001e70:	e9e10000 	lwi	r15, r1, 0
90001e74:	10330000 	addk	r1, r19, r0
90001e78:	ea61002c 	lwi	r19, r1, 44
90001e7c:	30210030 	addik	r1, r1, 48
90001e80:	b60f0008 	rtsd	r15, 8
90001e84:	80000000 	or	r0, r0, r0

90001e88 <xTaskResumeFromISR>:
90001e88:	3021ffd4 	addik	r1, r1, -44
90001e8c:	f9e10000 	swi	r15, r1, 0
90001e90:	fa610028 	swi	r19, r1, 40
90001e94:	12610000 	addk	r19, r1, r0
90001e98:	f8b30030 	swi	r5, r19, 48
90001e9c:	f8130024 	swi	r0, r19, 36
90001ea0:	f813001c 	swi	r0, r19, 28
90001ea4:	e8730030 	lwi	r3, r19, 48
90001ea8:	f8730020 	swi	r3, r19, 32
90001eac:	e8730020 	lwi	r3, r19, 32
90001eb0:	bc030114 	beqi	r3, 276		// 90001fc4
90001eb4:	e8b30020 	lwi	r5, r19, 32
90001eb8:	b9f4fd98 	brlid	r15, -616	// 90001c50 <xTaskIsTaskSuspended>
90001ebc:	80000000 	or	r0, r0, r0
90001ec0:	aa430001 	xori	r18, r3, 1
90001ec4:	bc320100 	bnei	r18, 256		// 90001fc4
90001ec8:	b0009001 	imm	-28671
90001ecc:	e8603d10 	lwi	r3, r0, 15632
90001ed0:	bc2300d8 	bnei	r3, 216		// 90001fa8
90001ed4:	f8130024 	swi	r0, r19, 36
90001ed8:	f813001c 	swi	r0, r19, 28
90001edc:	b8000048 	bri	72		// 90001f24
90001ee0:	e8730020 	lwi	r3, r19, 32
90001ee4:	e8a3002c 	lwi	r5, r3, 44
90001ee8:	e873001c 	lwi	r3, r19, 28
90001eec:	64830402 	bslli	r4, r3, 2
90001ef0:	b0009001 	imm	-28671
90001ef4:	30605028 	addik	r3, r0, 20520
90001ef8:	10641800 	addk	r3, r4, r3
90001efc:	e8630000 	lwi	r3, r3, 0
90001f00:	e863002c 	lwi	r3, r3, 44
90001f04:	16432803 	cmpu	r18, r3, r5
90001f08:	bc520010 	blti	r18, 16		// 90001f18
90001f0c:	30600001 	addik	r3, r0, 1
90001f10:	f8730024 	swi	r3, r19, 36
90001f14:	b8000020 	bri	32		// 90001f34
90001f18:	e873001c 	lwi	r3, r19, 28
90001f1c:	30630001 	addik	r3, r3, 1
90001f20:	f873001c 	swi	r3, r19, 28
90001f24:	e873001c 	lwi	r3, r19, 28
90001f28:	22400001 	addi	r18, r0, 1
90001f2c:	16439003 	cmpu	r18, r3, r18
90001f30:	bcb2ffb0 	bgei	r18, -80		// 90001ee0
90001f34:	e8730020 	lwi	r3, r19, 32
90001f38:	30630004 	addik	r3, r3, 4
90001f3c:	10a30000 	addk	r5, r3, r0
90001f40:	b9f4ec80 	brlid	r15, -4992	// 90000bc0 <vListRemove>
90001f44:	80000000 	or	r0, r0, r0
90001f48:	e8730020 	lwi	r3, r19, 32
90001f4c:	e883002c 	lwi	r4, r3, 44
90001f50:	b0009001 	imm	-28671
90001f54:	e8603d08 	lwi	r3, r0, 15624
90001f58:	16441803 	cmpu	r18, r4, r3
90001f5c:	bcb20014 	bgei	r18, 20		// 90001f70
90001f60:	e8730020 	lwi	r3, r19, 32
90001f64:	e863002c 	lwi	r3, r3, 44
90001f68:	b0009001 	imm	-28671
90001f6c:	f8603d08 	swi	r3, r0, 15624
90001f70:	e8730020 	lwi	r3, r19, 32
90001f74:	e863002c 	lwi	r3, r3, 44
90001f78:	60630014 	muli	r3, r3, 20
90001f7c:	10830000 	addk	r4, r3, r0
90001f80:	b0009001 	imm	-28671
90001f84:	30604e60 	addik	r3, r0, 20064
90001f88:	10841800 	addk	r4, r4, r3
90001f8c:	e8730020 	lwi	r3, r19, 32
90001f90:	30630004 	addik	r3, r3, 4
90001f94:	10a40000 	addk	r5, r4, r0
90001f98:	10c30000 	addk	r6, r3, r0
90001f9c:	b9f4eaac 	brlid	r15, -5460	// 90000a48 <vListInsertEnd>
90001fa0:	80000000 	or	r0, r0, r0
90001fa4:	b8000020 	bri	32		// 90001fc4
90001fa8:	e8730020 	lwi	r3, r19, 32
90001fac:	30630018 	addik	r3, r3, 24
90001fb0:	b0009001 	imm	-28671
90001fb4:	30a04f30 	addik	r5, r0, 20272
90001fb8:	10c30000 	addk	r6, r3, r0
90001fbc:	b9f4ea8c 	brlid	r15, -5492	// 90000a48 <vListInsertEnd>
90001fc0:	80000000 	or	r0, r0, r0
90001fc4:	e8730024 	lwi	r3, r19, 36
90001fc8:	e9e10000 	lwi	r15, r1, 0
90001fcc:	10330000 	addk	r1, r19, r0
90001fd0:	ea610028 	lwi	r19, r1, 40
90001fd4:	3021002c 	addik	r1, r1, 44
90001fd8:	b60f0008 	rtsd	r15, 8
90001fdc:	80000000 	or	r0, r0, r0

90001fe0 <vTaskStartScheduler>:
90001fe0:	3021ffc0 	addik	r1, r1, -64
90001fe4:	f9e10000 	swi	r15, r1, 0
90001fe8:	fa61003c 	swi	r19, r1, 60
90001fec:	12610000 	addk	r19, r1, r0
90001ff0:	f813002c 	swi	r0, r19, 44
90001ff4:	b80000e4 	bri	228		// 900020d8
90001ff8:	e873002c 	lwi	r3, r19, 44
90001ffc:	64830402 	bslli	r4, r3, 2
90002000:	b0009001 	imm	-28671
90002004:	30603d24 	addik	r3, r0, 15652
90002008:	10641800 	addk	r3, r4, r3
9000200c:	f8030000 	swi	r0, r3, 0
90002010:	f8130028 	swi	r0, r19, 40
90002014:	b80000a8 	bri	168		// 900020bc
90002018:	e873002c 	lwi	r3, r19, 44
9000201c:	e8930028 	lwi	r4, r19, 40
90002020:	6063000a 	muli	r3, r3, 10
90002024:	10632000 	addk	r3, r3, r4
90002028:	64830403 	bslli	r4, r3, 3
9000202c:	b0009001 	imm	-28671
90002030:	30603df8 	addik	r3, r0, 15864
90002034:	10841800 	addk	r4, r4, r3
90002038:	3060ffff 	addik	r3, r0, -1
9000203c:	f8640000 	swi	r3, r4, 0
90002040:	e873002c 	lwi	r3, r19, 44
90002044:	e8930028 	lwi	r4, r19, 40
90002048:	6063000a 	muli	r3, r3, 10
9000204c:	10632000 	addk	r3, r3, r4
90002050:	64830403 	bslli	r4, r3, 3
90002054:	b0009001 	imm	-28671
90002058:	30603dfc 	addik	r3, r0, 15868
9000205c:	10641800 	addk	r3, r4, r3
90002060:	f8030000 	swi	r0, r3, 0
90002064:	e8b3002c 	lwi	r5, r19, 44
90002068:	e8730028 	lwi	r3, r19, 40
9000206c:	6083000c 	muli	r4, r3, 12
90002070:	60650078 	muli	r3, r5, 120
90002074:	10841800 	addk	r4, r4, r3
90002078:	b0009001 	imm	-28671
9000207c:	30604488 	addik	r3, r0, 17544
90002080:	10841800 	addk	r4, r4, r3
90002084:	3060ffff 	addik	r3, r0, -1
90002088:	f8640000 	swi	r3, r4, 0
9000208c:	e8b3002c 	lwi	r5, r19, 44
90002090:	e8730028 	lwi	r3, r19, 40
90002094:	6083000c 	muli	r4, r3, 12
90002098:	60650078 	muli	r3, r5, 120
9000209c:	10841800 	addk	r4, r4, r3
900020a0:	b0009001 	imm	-28671
900020a4:	3060448c 	addik	r3, r0, 17548
900020a8:	10641800 	addk	r3, r4, r3
900020ac:	f8030000 	swi	r0, r3, 0
900020b0:	e8730028 	lwi	r3, r19, 40
900020b4:	30630001 	addik	r3, r3, 1
900020b8:	f8730028 	swi	r3, r19, 40
900020bc:	e8730028 	lwi	r3, r19, 40
900020c0:	22400009 	addi	r18, r0, 9
900020c4:	16439003 	cmpu	r18, r3, r18
900020c8:	bcb2ff50 	bgei	r18, -176		// 90002018
900020cc:	e873002c 	lwi	r3, r19, 44
900020d0:	30630001 	addik	r3, r3, 1
900020d4:	f873002c 	swi	r3, r19, 44
900020d8:	e873002c 	lwi	r3, r19, 44
900020dc:	22400013 	addi	r18, r0, 19
900020e0:	16439003 	cmpu	r18, r3, r18
900020e4:	bcb2ff14 	bgei	r18, -236		// 90001ff8
900020e8:	f813002c 	swi	r0, r19, 44
900020ec:	b8000074 	bri	116		// 90002160
900020f0:	e873002c 	lwi	r3, r19, 44
900020f4:	64830402 	bslli	r4, r3, 2
900020f8:	30730028 	addik	r3, r19, 40
900020fc:	10641800 	addk	r3, r4, r3
90002100:	3083000c 	addik	r4, r3, 12
90002104:	e873002c 	lwi	r3, r19, 44
90002108:	f8640000 	swi	r3, r4, 0
9000210c:	b0009001 	imm	-28671
90002110:	30e02f8c 	addik	r7, r0, 12172
90002114:	e873002c 	lwi	r3, r19, 44
90002118:	64630402 	bslli	r3, r3, 2
9000211c:	30930034 	addik	r4, r19, 52
90002120:	10841800 	addk	r4, r4, r3
90002124:	f801001c 	swi	r0, r1, 28
90002128:	f8010020 	swi	r0, r1, 32
9000212c:	f8010024 	swi	r0, r1, 36
90002130:	e8b3002c 	lwi	r5, r19, 44
90002134:	b0009000 	imm	-28672
90002138:	30c038e4 	addik	r6, r0, 14564
9000213c:	31002000 	addik	r8, r0, 8192	// 2000 <_STACK_SIZE>
90002140:	11240000 	addk	r9, r4, r0
90002144:	11400000 	addk	r10, r0, r0
90002148:	b9f4eb10 	brlid	r15, -5360	// 90000c58 <xTaskGenericCreate>
9000214c:	80000000 	or	r0, r0, r0
90002150:	f8730030 	swi	r3, r19, 48
90002154:	e873002c 	lwi	r3, r19, 44
90002158:	30630001 	addik	r3, r3, 1
9000215c:	f873002c 	swi	r3, r19, 44
90002160:	e873002c 	lwi	r3, r19, 44
90002164:	22400001 	addi	r18, r0, 1
90002168:	16439003 	cmpu	r18, r3, r18
9000216c:	bcb2ff84 	bgei	r18, -124		// 900020f0
90002170:	e8730030 	lwi	r3, r19, 48
90002174:	aa430001 	xori	r18, r3, 1
90002178:	bc320024 	bnei	r18, 36		// 9000219c
9000217c:	94110002 	msrclr	r0, 2
90002180:	30600001 	addik	r3, r0, 1
90002184:	b0009001 	imm	-28671
90002188:	f8603d0c 	swi	r3, r0, 15628
9000218c:	b0009001 	imm	-28671
90002190:	f8003d00 	swi	r0, r0, 15616
90002194:	b9f425bc 	brlid	r15, 9660	// 90004750 <xPortStartScheduler>
90002198:	80000000 	or	r0, r0, r0
9000219c:	e9e10000 	lwi	r15, r1, 0
900021a0:	10330000 	addk	r1, r19, r0
900021a4:	ea61003c 	lwi	r19, r1, 60
900021a8:	30210040 	addik	r1, r1, 64
900021ac:	b60f0008 	rtsd	r15, 8
900021b0:	80000000 	or	r0, r0, r0

900021b4 <vTaskEndScheduler>:
900021b4:	3021ffe0 	addik	r1, r1, -32
900021b8:	f9e10000 	swi	r15, r1, 0
900021bc:	fa61001c 	swi	r19, r1, 28
900021c0:	12610000 	addk	r19, r1, r0
900021c4:	94110002 	msrclr	r0, 2
900021c8:	b0009001 	imm	-28671
900021cc:	f8003d0c 	swi	r0, r0, 15628
900021d0:	b9f42784 	brlid	r15, 10116	// 90004954 <vPortEndScheduler>
900021d4:	80000000 	or	r0, r0, r0
900021d8:	e9e10000 	lwi	r15, r1, 0
900021dc:	10330000 	addk	r1, r19, r0
900021e0:	ea61001c 	lwi	r19, r1, 28
900021e4:	30210020 	addik	r1, r1, 32
900021e8:	b60f0008 	rtsd	r15, 8
900021ec:	80000000 	or	r0, r0, r0

900021f0 <vTaskSuspendAll>:
900021f0:	3021fff8 	addik	r1, r1, -8
900021f4:	fa610004 	swi	r19, r1, 4
900021f8:	12610000 	addk	r19, r1, r0
900021fc:	b0009001 	imm	-28671
90002200:	e8603d10 	lwi	r3, r0, 15632
90002204:	30630001 	addik	r3, r3, 1
90002208:	b0009001 	imm	-28671
9000220c:	f8603d10 	swi	r3, r0, 15632
90002210:	10330000 	addk	r1, r19, r0
90002214:	ea610004 	lwi	r19, r1, 4
90002218:	30210008 	addik	r1, r1, 8
9000221c:	b60f0008 	rtsd	r15, 8
90002220:	80000000 	or	r0, r0, r0

90002224 <xTaskResumeAll>:
90002224:	3021ffcc 	addik	r1, r1, -52
90002228:	f9e10000 	swi	r15, r1, 0
9000222c:	fa610030 	swi	r19, r1, 48
90002230:	12610000 	addk	r19, r1, r0
90002234:	f8130028 	swi	r0, r19, 40
90002238:	b9f42eb8 	brlid	r15, 11960	// 900050f0 <xPortGetCurrentCPU>
9000223c:	80000000 	or	r0, r0, r0
90002240:	f8730020 	swi	r3, r19, 32
90002244:	b0009001 	imm	-28671
90002248:	3060371c 	addik	r3, r0, 14108
9000224c:	e8b30020 	lwi	r5, r19, 32
90002250:	10c30000 	addk	r6, r3, r0
90002254:	b9f40b90 	brlid	r15, 2960	// 90002de4 <vCPUAcquireMutex>
90002258:	80000000 	or	r0, r0, r0
9000225c:	b0009001 	imm	-28671
90002260:	e8603d10 	lwi	r3, r0, 15632
90002264:	3063ffff 	addik	r3, r3, -1
90002268:	b0009001 	imm	-28671
9000226c:	f8603d10 	swi	r3, r0, 15632
90002270:	b0009001 	imm	-28671
90002274:	e8603d10 	lwi	r3, r0, 15632
90002278:	bc230164 	bnei	r3, 356		// 900023dc
9000227c:	b0009001 	imm	-28671
90002280:	e8603cfc 	lwi	r3, r0, 15612
90002284:	bc030158 	beqi	r3, 344		// 900023dc
90002288:	f813001c 	swi	r0, r19, 28
9000228c:	b80000d0 	bri	208		// 9000235c
90002290:	b0009001 	imm	-28671
90002294:	e8604f3c 	lwi	r3, r0, 20284
90002298:	e863000c 	lwi	r3, r3, 12
9000229c:	f873002c 	swi	r3, r19, 44
900022a0:	e893002c 	lwi	r4, r19, 44
900022a4:	30640018 	addik	r3, r4, 24
900022a8:	10a30000 	addk	r5, r3, r0
900022ac:	b9f4e914 	brlid	r15, -5868	// 90000bc0 <vListRemove>
900022b0:	80000000 	or	r0, r0, r0
900022b4:	e8b3002c 	lwi	r5, r19, 44
900022b8:	30650004 	addik	r3, r5, 4
900022bc:	10a30000 	addk	r5, r3, r0
900022c0:	b9f4e900 	brlid	r15, -5888	// 90000bc0 <vListRemove>
900022c4:	80000000 	or	r0, r0, r0
900022c8:	e873002c 	lwi	r3, r19, 44
900022cc:	e883002c 	lwi	r4, r3, 44
900022d0:	b0009001 	imm	-28671
900022d4:	e8603d08 	lwi	r3, r0, 15624
900022d8:	16441803 	cmpu	r18, r4, r3
900022dc:	bcb20014 	bgei	r18, 20		// 900022f0
900022e0:	e893002c 	lwi	r4, r19, 44
900022e4:	e864002c 	lwi	r3, r4, 44
900022e8:	b0009001 	imm	-28671
900022ec:	f8603d08 	swi	r3, r0, 15624
900022f0:	e8b3002c 	lwi	r5, r19, 44
900022f4:	e865002c 	lwi	r3, r5, 44
900022f8:	60630014 	muli	r3, r3, 20
900022fc:	10830000 	addk	r4, r3, r0
90002300:	b0009001 	imm	-28671
90002304:	30604e60 	addik	r3, r0, 20064
90002308:	10641800 	addk	r3, r4, r3
9000230c:	e8b3002c 	lwi	r5, r19, 44
90002310:	30850004 	addik	r4, r5, 4
90002314:	10a30000 	addk	r5, r3, r0
90002318:	10c40000 	addk	r6, r4, r0
9000231c:	b9f4e72c 	brlid	r15, -6356	// 90000a48 <vListInsertEnd>
90002320:	80000000 	or	r0, r0, r0
90002324:	e873002c 	lwi	r3, r19, 44
90002328:	e8a3002c 	lwi	r5, r3, 44
9000232c:	e8730020 	lwi	r3, r19, 32
90002330:	64830402 	bslli	r4, r3, 2
90002334:	b0009001 	imm	-28671
90002338:	30605028 	addik	r3, r0, 20520
9000233c:	10641800 	addk	r3, r4, r3
90002340:	e8630000 	lwi	r3, r3, 0
90002344:	e863002c 	lwi	r3, r3, 44
90002348:	16432803 	cmpu	r18, r3, r5
9000234c:	bc520010 	blti	r18, 16		// 9000235c
90002350:	30600001 	addik	r3, r0, 1
90002354:	f873001c 	swi	r3, r19, 28
90002358:	b8000010 	bri	16		// 90002368
9000235c:	b0009001 	imm	-28671
90002360:	e8604f30 	lwi	r3, r0, 20272
90002364:	bc23ff2c 	bnei	r3, -212		// 90002290
90002368:	b0009001 	imm	-28671
9000236c:	e8603d14 	lwi	r3, r0, 15636
90002370:	bc030038 	beqi	r3, 56		// 900023a8
90002374:	b8000020 	bri	32		// 90002394
90002378:	b9f40170 	brlid	r15, 368	// 900024e8 <vTaskIncrementTick>
9000237c:	80000000 	or	r0, r0, r0
90002380:	b0009001 	imm	-28671
90002384:	e8603d14 	lwi	r3, r0, 15636
90002388:	3063ffff 	addik	r3, r3, -1
9000238c:	b0009001 	imm	-28671
90002390:	f8603d14 	swi	r3, r0, 15636
90002394:	b0009001 	imm	-28671
90002398:	e8603d14 	lwi	r3, r0, 15636
9000239c:	bc23ffdc 	bnei	r3, -36		// 90002378
900023a0:	30600001 	addik	r3, r0, 1
900023a4:	f873001c 	swi	r3, r19, 28
900023a8:	e873001c 	lwi	r3, r19, 28
900023ac:	aa430001 	xori	r18, r3, 1
900023b0:	bc120014 	beqi	r18, 20		// 900023c4
900023b4:	b0009001 	imm	-28671
900023b8:	e8603d18 	lwi	r3, r0, 15640
900023bc:	aa430001 	xori	r18, r3, 1
900023c0:	bc32001c 	bnei	r18, 28		// 900023dc
900023c4:	30600001 	addik	r3, r0, 1
900023c8:	f8730028 	swi	r3, r19, 40
900023cc:	b0009001 	imm	-28671
900023d0:	f8003d18 	swi	r0, r0, 15640
900023d4:	b9f425a0 	brlid	r15, 9632	// 90004974 <vPortYield>
900023d8:	80000000 	or	r0, r0, r0
900023dc:	b0009001 	imm	-28671
900023e0:	3060371c 	addik	r3, r0, 14108
900023e4:	e8b30020 	lwi	r5, r19, 32
900023e8:	10c30000 	addk	r6, r3, r0
900023ec:	b9f40c74 	brlid	r15, 3188	// 90003060 <vCPUReleaseMutex>
900023f0:	80000000 	or	r0, r0, r0
900023f4:	e8730028 	lwi	r3, r19, 40
900023f8:	e9e10000 	lwi	r15, r1, 0
900023fc:	10330000 	addk	r1, r19, r0
90002400:	ea610030 	lwi	r19, r1, 48
90002404:	30210034 	addik	r1, r1, 52
90002408:	b60f0008 	rtsd	r15, 8
9000240c:	80000000 	or	r0, r0, r0

90002410 <xTaskGetTickCount>:
90002410:	3021ffd8 	addik	r1, r1, -40
90002414:	f9e10000 	swi	r15, r1, 0
90002418:	fa610024 	swi	r19, r1, 36
9000241c:	12610000 	addk	r19, r1, r0
90002420:	b9f42cd0 	brlid	r15, 11472	// 900050f0 <xPortGetCurrentCPU>
90002424:	80000000 	or	r0, r0, r0
90002428:	f873001c 	swi	r3, r19, 28
9000242c:	e873001c 	lwi	r3, r19, 28
90002430:	b0009001 	imm	-28671
90002434:	3080373c 	addik	r4, r0, 14140
90002438:	10a30000 	addk	r5, r3, r0
9000243c:	10c40000 	addk	r6, r4, r0
90002440:	b9f409a4 	brlid	r15, 2468	// 90002de4 <vCPUAcquireMutex>
90002444:	80000000 	or	r0, r0, r0
90002448:	b0009001 	imm	-28671
9000244c:	e8603d00 	lwi	r3, r0, 15616
90002450:	f8730020 	swi	r3, r19, 32
90002454:	e873001c 	lwi	r3, r19, 28
90002458:	b0009001 	imm	-28671
9000245c:	3080373c 	addik	r4, r0, 14140
90002460:	10a30000 	addk	r5, r3, r0
90002464:	10c40000 	addk	r6, r4, r0
90002468:	b9f40bf8 	brlid	r15, 3064	// 90003060 <vCPUReleaseMutex>
9000246c:	80000000 	or	r0, r0, r0
90002470:	e8730020 	lwi	r3, r19, 32
90002474:	e9e10000 	lwi	r15, r1, 0
90002478:	10330000 	addk	r1, r19, r0
9000247c:	ea610024 	lwi	r19, r1, 36
90002480:	30210028 	addik	r1, r1, 40
90002484:	b60f0008 	rtsd	r15, 8
90002488:	80000000 	or	r0, r0, r0

9000248c <xTaskGetTickCountFromISR>:
9000248c:	3021fff0 	addik	r1, r1, -16
90002490:	fa61000c 	swi	r19, r1, 12
90002494:	12610000 	addk	r19, r1, r0
90002498:	f8130004 	swi	r0, r19, 4
9000249c:	b0009001 	imm	-28671
900024a0:	e8603d00 	lwi	r3, r0, 15616
900024a4:	f8730008 	swi	r3, r19, 8
900024a8:	e8730008 	lwi	r3, r19, 8
900024ac:	10330000 	addk	r1, r19, r0
900024b0:	ea61000c 	lwi	r19, r1, 12
900024b4:	30210010 	addik	r1, r1, 16
900024b8:	b60f0008 	rtsd	r15, 8
900024bc:	80000000 	or	r0, r0, r0

900024c0 <uxTaskGetNumberOfTasks>:
900024c0:	3021fff8 	addik	r1, r1, -8
900024c4:	fa610004 	swi	r19, r1, 4
900024c8:	12610000 	addk	r19, r1, r0
900024cc:	b0009001 	imm	-28671
900024d0:	e8603cfc 	lwi	r3, r0, 15612
900024d4:	10330000 	addk	r1, r19, r0
900024d8:	ea610004 	lwi	r19, r1, 4
900024dc:	30210008 	addik	r1, r1, 8
900024e0:	b60f0008 	rtsd	r15, 8
900024e4:	80000000 	or	r0, r0, r0

900024e8 <vTaskIncrementTick>:
900024e8:	3021ffd4 	addik	r1, r1, -44
900024ec:	f9e10000 	swi	r15, r1, 0
900024f0:	fa610028 	swi	r19, r1, 40
900024f4:	12610000 	addk	r19, r1, r0
900024f8:	b0009001 	imm	-28671
900024fc:	e8603d10 	lwi	r3, r0, 15632
90002500:	bc2301b4 	bnei	r3, 436		// 900026b4
90002504:	b0009001 	imm	-28671
90002508:	e8603d00 	lwi	r3, r0, 15616
9000250c:	30630001 	addik	r3, r3, 1
90002510:	b0009001 	imm	-28671
90002514:	f8603d00 	swi	r3, r0, 15616
90002518:	b0009001 	imm	-28671
9000251c:	e8603d00 	lwi	r3, r0, 15616
90002520:	bc230084 	bnei	r3, 132		// 900025a4
90002524:	b0009001 	imm	-28671
90002528:	e8604f28 	lwi	r3, r0, 20264
9000252c:	f8730020 	swi	r3, r19, 32
90002530:	b0009001 	imm	-28671
90002534:	e8604f2c 	lwi	r3, r0, 20268
90002538:	b0009001 	imm	-28671
9000253c:	f8604f28 	swi	r3, r0, 20264
90002540:	e8730020 	lwi	r3, r19, 32
90002544:	b0009001 	imm	-28671
90002548:	f8604f2c 	swi	r3, r0, 20268
9000254c:	b0009001 	imm	-28671
90002550:	e8603d1c 	lwi	r3, r0, 15644
90002554:	30630001 	addik	r3, r3, 1
90002558:	b0009001 	imm	-28671
9000255c:	f8603d1c 	swi	r3, r0, 15644
90002560:	b0009001 	imm	-28671
90002564:	e8604f28 	lwi	r3, r0, 20264
90002568:	e8630000 	lwi	r3, r3, 0
9000256c:	bc230014 	bnei	r3, 20		// 90002580
90002570:	3060ffff 	addik	r3, r0, -1
90002574:	b0009001 	imm	-28671
90002578:	f860375c 	swi	r3, r0, 14172
9000257c:	b8000028 	bri	40		// 900025a4
90002580:	b0009001 	imm	-28671
90002584:	e8604f28 	lwi	r3, r0, 20264
90002588:	e863000c 	lwi	r3, r3, 12
9000258c:	e863000c 	lwi	r3, r3, 12
90002590:	f8730024 	swi	r3, r19, 36
90002594:	e8730024 	lwi	r3, r19, 36
90002598:	e8630004 	lwi	r3, r3, 4
9000259c:	b0009001 	imm	-28671
900025a0:	f860375c 	swi	r3, r0, 14172
900025a4:	b0009001 	imm	-28671
900025a8:	e8803d00 	lwi	r4, r0, 15616
900025ac:	b0009001 	imm	-28671
900025b0:	e860375c 	lwi	r3, r0, 14172
900025b4:	16432003 	cmpu	r18, r3, r4
900025b8:	bc520110 	blti	r18, 272		// 900026c8
900025bc:	b0009001 	imm	-28671
900025c0:	e8604f28 	lwi	r3, r0, 20264
900025c4:	e8630000 	lwi	r3, r3, 0
900025c8:	bc230014 	bnei	r3, 20		// 900025dc
900025cc:	3060ffff 	addik	r3, r0, -1
900025d0:	b0009001 	imm	-28671
900025d4:	f860375c 	swi	r3, r0, 14172
900025d8:	b80000f0 	bri	240		// 900026c8
900025dc:	b0009001 	imm	-28671
900025e0:	e8604f28 	lwi	r3, r0, 20264
900025e4:	e863000c 	lwi	r3, r3, 12
900025e8:	e863000c 	lwi	r3, r3, 12
900025ec:	f8730024 	swi	r3, r19, 36
900025f0:	e8730024 	lwi	r3, r19, 36
900025f4:	e8630004 	lwi	r3, r3, 4
900025f8:	f873001c 	swi	r3, r19, 28
900025fc:	b0009001 	imm	-28671
90002600:	e8803d00 	lwi	r4, r0, 15616
90002604:	e873001c 	lwi	r3, r19, 28
90002608:	16432003 	cmpu	r18, r3, r4
9000260c:	bcb20014 	bgei	r18, 20		// 90002620
90002610:	e873001c 	lwi	r3, r19, 28
90002614:	b0009001 	imm	-28671
90002618:	f860375c 	swi	r3, r0, 14172
9000261c:	b80000ac 	bri	172		// 900026c8
90002620:	e8730024 	lwi	r3, r19, 36
90002624:	30630004 	addik	r3, r3, 4
90002628:	10a30000 	addk	r5, r3, r0
9000262c:	b9f4e594 	brlid	r15, -6764	// 90000bc0 <vListRemove>
90002630:	80000000 	or	r0, r0, r0
90002634:	e8730024 	lwi	r3, r19, 36
90002638:	e8630028 	lwi	r3, r3, 40
9000263c:	bc030018 	beqi	r3, 24		// 90002654
90002640:	e8730024 	lwi	r3, r19, 36
90002644:	30630018 	addik	r3, r3, 24
90002648:	10a30000 	addk	r5, r3, r0
9000264c:	b9f4e574 	brlid	r15, -6796	// 90000bc0 <vListRemove>
90002650:	80000000 	or	r0, r0, r0
90002654:	e8730024 	lwi	r3, r19, 36
90002658:	e883002c 	lwi	r4, r3, 44
9000265c:	b0009001 	imm	-28671
90002660:	e8603d08 	lwi	r3, r0, 15624
90002664:	16441803 	cmpu	r18, r4, r3
90002668:	bcb20014 	bgei	r18, 20		// 9000267c
9000266c:	e8730024 	lwi	r3, r19, 36
90002670:	e863002c 	lwi	r3, r3, 44
90002674:	b0009001 	imm	-28671
90002678:	f8603d08 	swi	r3, r0, 15624
9000267c:	e8730024 	lwi	r3, r19, 36
90002680:	e863002c 	lwi	r3, r3, 44
90002684:	60630014 	muli	r3, r3, 20
90002688:	10830000 	addk	r4, r3, r0
9000268c:	b0009001 	imm	-28671
90002690:	30604e60 	addik	r3, r0, 20064
90002694:	10841800 	addk	r4, r4, r3
90002698:	e8730024 	lwi	r3, r19, 36
9000269c:	30630004 	addik	r3, r3, 4
900026a0:	10a40000 	addk	r5, r4, r0
900026a4:	10c30000 	addk	r6, r3, r0
900026a8:	b9f4e3a0 	brlid	r15, -7264	// 90000a48 <vListInsertEnd>
900026ac:	80000000 	or	r0, r0, r0
900026b0:	b800ff0c 	bri	-244		// 900025bc
900026b4:	b0009001 	imm	-28671
900026b8:	e8603d14 	lwi	r3, r0, 15636
900026bc:	30630001 	addik	r3, r3, 1
900026c0:	b0009001 	imm	-28671
900026c4:	f8603d14 	swi	r3, r0, 15636
900026c8:	e9e10000 	lwi	r15, r1, 0
900026cc:	10330000 	addk	r1, r19, r0
900026d0:	ea610028 	lwi	r19, r1, 40
900026d4:	3021002c 	addik	r1, r1, 44
900026d8:	b60f0008 	rtsd	r15, 8
900026dc:	80000000 	or	r0, r0, r0

900026e0 <vTaskSwitchContext>:
900026e0:	3021ffc0 	addik	r1, r1, -64
900026e4:	f9e10000 	swi	r15, r1, 0
900026e8:	fa61003c 	swi	r19, r1, 60
900026ec:	12610000 	addk	r19, r1, r0
900026f0:	b9f42a00 	brlid	r15, 10752	// 900050f0 <xPortGetCurrentCPU>
900026f4:	80000000 	or	r0, r0, r0
900026f8:	f8730038 	swi	r3, r19, 56
900026fc:	e8730038 	lwi	r3, r19, 56
90002700:	22400001 	addi	r18, r0, 1
90002704:	16439003 	cmpu	r18, r3, r18
90002708:	bc5202c8 	blti	r18, 712		// 900029d0
9000270c:	b0009001 	imm	-28671
90002710:	e8603d10 	lwi	r3, r0, 15632
90002714:	bc030014 	beqi	r3, 20		// 90002728
90002718:	30600001 	addik	r3, r0, 1
9000271c:	b0009001 	imm	-28671
90002720:	f8603d18 	swi	r3, r0, 15640
90002724:	b80002ac 	bri	684		// 900029d0
90002728:	e8730038 	lwi	r3, r19, 56
9000272c:	64830402 	bslli	r4, r3, 2
90002730:	b0009001 	imm	-28671
90002734:	30605028 	addik	r3, r0, 20520
90002738:	10641800 	addk	r3, r4, r3
9000273c:	e8630000 	lwi	r3, r3, 0
90002740:	e8a30000 	lwi	r5, r3, 0
90002744:	e8730038 	lwi	r3, r19, 56
90002748:	64830402 	bslli	r4, r3, 2
9000274c:	b0009001 	imm	-28671
90002750:	30605028 	addik	r3, r0, 20520
90002754:	10641800 	addk	r3, r4, r3
90002758:	e8630000 	lwi	r3, r3, 0
9000275c:	e8630030 	lwi	r3, r3, 48
90002760:	16451803 	cmpu	r18, r5, r3
90002764:	bc520048 	blti	r18, 72		// 900027ac
90002768:	e8730038 	lwi	r3, r19, 56
9000276c:	64830402 	bslli	r4, r3, 2
90002770:	b0009001 	imm	-28671
90002774:	30605028 	addik	r3, r0, 20520
90002778:	10641800 	addk	r3, r4, r3
9000277c:	e8630000 	lwi	r3, r3, 0
90002780:	10a30000 	addk	r5, r3, r0
90002784:	e8730038 	lwi	r3, r19, 56
90002788:	64830402 	bslli	r4, r3, 2
9000278c:	b0009001 	imm	-28671
90002790:	30605028 	addik	r3, r0, 20520
90002794:	10641800 	addk	r3, r4, r3
90002798:	e8630000 	lwi	r3, r3, 0
9000279c:	30630034 	addik	r3, r3, 52
900027a0:	10c30000 	addk	r6, r3, r0
900027a4:	b9f42a64 	brlid	r15, 10852	// 90005208 <vApplicationStackOverflowHook>
900027a8:	80000000 	or	r0, r0, r0
900027ac:	b0009001 	imm	-28671
900027b0:	3060371c 	addik	r3, r0, 14108
900027b4:	e8b30038 	lwi	r5, r19, 56
900027b8:	10c30000 	addk	r6, r3, r0
900027bc:	b9f40628 	brlid	r15, 1576	// 90002de4 <vCPUAcquireMutex>
900027c0:	80000000 	or	r0, r0, r0
900027c4:	f8130030 	swi	r0, r19, 48
900027c8:	f813002c 	swi	r0, r19, 44
900027cc:	b0009001 	imm	-28671
900027d0:	e8603d08 	lwi	r3, r0, 15624
900027d4:	f8730028 	swi	r3, r19, 40
900027d8:	b80001d8 	bri	472		// 900029b0
900027dc:	e8730028 	lwi	r3, r19, 40
900027e0:	60630014 	muli	r3, r3, 20
900027e4:	10830000 	addk	r4, r3, r0
900027e8:	b0009001 	imm	-28671
900027ec:	30604e60 	addik	r3, r0, 20064
900027f0:	10641800 	addk	r3, r4, r3
900027f4:	e8630000 	lwi	r3, r3, 0
900027f8:	bc030198 	beqi	r3, 408		// 90002990
900027fc:	f813002c 	swi	r0, r19, 44
90002800:	e8730028 	lwi	r3, r19, 40
90002804:	60830014 	muli	r4, r3, 20
90002808:	b0009001 	imm	-28671
9000280c:	30604e64 	addik	r3, r0, 20068
90002810:	10641800 	addk	r3, r4, r3
90002814:	e8630000 	lwi	r3, r3, 0
90002818:	e863000c 	lwi	r3, r3, 12
9000281c:	f8730024 	swi	r3, r19, 36
90002820:	e8730028 	lwi	r3, r19, 40
90002824:	60630014 	muli	r3, r3, 20
90002828:	10830000 	addk	r4, r3, r0
9000282c:	b0009001 	imm	-28671
90002830:	30604e60 	addik	r3, r0, 20064
90002834:	10641800 	addk	r3, r4, r3
90002838:	f873001c 	swi	r3, r19, 28
9000283c:	e873001c 	lwi	r3, r19, 28
90002840:	e8630004 	lwi	r3, r3, 4
90002844:	e8830004 	lwi	r4, r3, 4
90002848:	e873001c 	lwi	r3, r19, 28
9000284c:	f8830004 	swi	r4, r3, 4
90002850:	e873001c 	lwi	r3, r19, 28
90002854:	e8830004 	lwi	r4, r3, 4
90002858:	e873001c 	lwi	r3, r19, 28
9000285c:	30630008 	addik	r3, r3, 8
90002860:	16432000 	rsubk	r18, r3, r4
90002864:	bc320018 	bnei	r18, 24		// 9000287c
90002868:	e873001c 	lwi	r3, r19, 28
9000286c:	e8630004 	lwi	r3, r3, 4
90002870:	e8830004 	lwi	r4, r3, 4
90002874:	e873001c 	lwi	r3, r19, 28
90002878:	f8830004 	swi	r4, r3, 4
9000287c:	e873001c 	lwi	r3, r19, 28
90002880:	e8630004 	lwi	r3, r3, 4
90002884:	e863000c 	lwi	r3, r3, 12
90002888:	f8730034 	swi	r3, r19, 52
9000288c:	30600001 	addik	r3, r0, 1
90002890:	f8730030 	swi	r3, r19, 48
90002894:	f8130020 	swi	r0, r19, 32
90002898:	f8130020 	swi	r0, r19, 32
9000289c:	b800003c 	bri	60		// 900028d8
900028a0:	e8730020 	lwi	r3, r19, 32
900028a4:	64830402 	bslli	r4, r3, 2
900028a8:	b0009001 	imm	-28671
900028ac:	30605028 	addik	r3, r0, 20520
900028b0:	10641800 	addk	r3, r4, r3
900028b4:	e8830000 	lwi	r4, r3, 0
900028b8:	e8730034 	lwi	r3, r19, 52
900028bc:	16432000 	rsubk	r18, r3, r4
900028c0:	bc32000c 	bnei	r18, 12		// 900028cc
900028c4:	f8130030 	swi	r0, r19, 48
900028c8:	b8000020 	bri	32		// 900028e8
900028cc:	e8730020 	lwi	r3, r19, 32
900028d0:	30630001 	addik	r3, r3, 1
900028d4:	f8730020 	swi	r3, r19, 32
900028d8:	e8730020 	lwi	r3, r19, 32
900028dc:	22400001 	addi	r18, r0, 1
900028e0:	16439003 	cmpu	r18, r3, r18
900028e4:	bcb2ffbc 	bgei	r18, -68		// 900028a0
900028e8:	e8730030 	lwi	r3, r19, 48
900028ec:	aa430001 	xori	r18, r3, 1
900028f0:	bc320080 	bnei	r18, 128		// 90002970
900028f4:	e8730034 	lwi	r3, r19, 52
900028f8:	e863003c 	lwi	r3, r3, 60
900028fc:	aa430003 	xori	r18, r3, 3
90002900:	bc32002c 	bnei	r18, 44		// 9000292c
90002904:	e8730038 	lwi	r3, r19, 56
90002908:	64830402 	bslli	r4, r3, 2
9000290c:	b0009001 	imm	-28671
90002910:	30605028 	addik	r3, r0, 20520
90002914:	10841800 	addk	r4, r4, r3
90002918:	e8730034 	lwi	r3, r19, 52
9000291c:	f8640000 	swi	r3, r4, 0
90002920:	30600001 	addik	r3, r0, 1
90002924:	f873002c 	swi	r3, r19, 44
90002928:	b800004c 	bri	76		// 90002974
9000292c:	e8730034 	lwi	r3, r19, 52
90002930:	e883003c 	lwi	r4, r3, 60
90002934:	e8730038 	lwi	r3, r19, 56
90002938:	16432000 	rsubk	r18, r3, r4
9000293c:	bc32002c 	bnei	r18, 44		// 90002968
90002940:	e8730038 	lwi	r3, r19, 56
90002944:	64830402 	bslli	r4, r3, 2
90002948:	b0009001 	imm	-28671
9000294c:	30605028 	addik	r3, r0, 20520
90002950:	10841800 	addk	r4, r4, r3
90002954:	e8730034 	lwi	r3, r19, 52
90002958:	f8640000 	swi	r3, r4, 0
9000295c:	30600001 	addik	r3, r0, 1
90002960:	f873002c 	swi	r3, r19, 44
90002964:	b8000010 	bri	16		// 90002974
90002968:	f813002c 	swi	r0, r19, 44
9000296c:	b8000008 	bri	8		// 90002974
90002970:	f813002c 	swi	r0, r19, 44
90002974:	e873002c 	lwi	r3, r19, 44
90002978:	bc23002c 	bnei	r3, 44		// 900029a4
9000297c:	e8930034 	lwi	r4, r19, 52
90002980:	e8730024 	lwi	r3, r19, 36
90002984:	16432000 	rsubk	r18, r3, r4
90002988:	bc32fe98 	bnei	r18, -360		// 90002820
9000298c:	b8000018 	bri	24		// 900029a4
90002990:	b0009001 	imm	-28671
90002994:	e8603d08 	lwi	r3, r0, 15624
90002998:	3063ffff 	addik	r3, r3, -1
9000299c:	b0009001 	imm	-28671
900029a0:	f8603d08 	swi	r3, r0, 15624
900029a4:	e8730028 	lwi	r3, r19, 40
900029a8:	3063ffff 	addik	r3, r3, -1
900029ac:	f8730028 	swi	r3, r19, 40
900029b0:	e873002c 	lwi	r3, r19, 44
900029b4:	bc03fe28 	beqi	r3, -472		// 900027dc
900029b8:	b0009001 	imm	-28671
900029bc:	3060371c 	addik	r3, r0, 14108
900029c0:	e8b30038 	lwi	r5, r19, 56
900029c4:	10c30000 	addk	r6, r3, r0
900029c8:	b9f40698 	brlid	r15, 1688	// 90003060 <vCPUReleaseMutex>
900029cc:	80000000 	or	r0, r0, r0
900029d0:	e9e10000 	lwi	r15, r1, 0
900029d4:	10330000 	addk	r1, r19, r0
900029d8:	ea61003c 	lwi	r19, r1, 60
900029dc:	30210040 	addik	r1, r1, 64
900029e0:	b60f0008 	rtsd	r15, 8
900029e4:	80000000 	or	r0, r0, r0

900029e8 <vTaskPlaceOnEventList>:
900029e8:	3021ffdc 	addik	r1, r1, -36
900029ec:	f9e10000 	swi	r15, r1, 0
900029f0:	fa610020 	swi	r19, r1, 32
900029f4:	12610000 	addk	r19, r1, r0
900029f8:	f8b30028 	swi	r5, r19, 40
900029fc:	f8d3002c 	swi	r6, r19, 44
90002a00:	f8f30030 	swi	r7, r19, 48
90002a04:	e8730028 	lwi	r3, r19, 40
90002a08:	64830402 	bslli	r4, r3, 2
90002a0c:	b0009001 	imm	-28671
90002a10:	30605028 	addik	r3, r0, 20520
90002a14:	10641800 	addk	r3, r4, r3
90002a18:	e8630000 	lwi	r3, r3, 0
90002a1c:	30630018 	addik	r3, r3, 24
90002a20:	e8b3002c 	lwi	r5, r19, 44
90002a24:	10c30000 	addk	r6, r3, r0
90002a28:	b9f4e0bc 	brlid	r15, -8004	// 90000ae4 <vListInsert>
90002a2c:	80000000 	or	r0, r0, r0
90002a30:	e8730028 	lwi	r3, r19, 40
90002a34:	64830402 	bslli	r4, r3, 2
90002a38:	b0009001 	imm	-28671
90002a3c:	30605028 	addik	r3, r0, 20520
90002a40:	10641800 	addk	r3, r4, r3
90002a44:	e8630000 	lwi	r3, r3, 0
90002a48:	30630004 	addik	r3, r3, 4
90002a4c:	10a30000 	addk	r5, r3, r0
90002a50:	b9f4e170 	brlid	r15, -7824	// 90000bc0 <vListRemove>
90002a54:	80000000 	or	r0, r0, r0
90002a58:	e8730030 	lwi	r3, r19, 48
90002a5c:	aa43ffff 	xori	r18, r3, -1
90002a60:	bc320038 	bnei	r18, 56		// 90002a98
90002a64:	e8730028 	lwi	r3, r19, 40
90002a68:	64830402 	bslli	r4, r3, 2
90002a6c:	b0009001 	imm	-28671
90002a70:	30605028 	addik	r3, r0, 20520
90002a74:	10641800 	addk	r3, r4, r3
90002a78:	e8630000 	lwi	r3, r3, 0
90002a7c:	30630004 	addik	r3, r3, 4
90002a80:	b0009001 	imm	-28671
90002a84:	30a04f58 	addik	r5, r0, 20312
90002a88:	10c30000 	addk	r6, r3, r0
90002a8c:	b9f4dfbc 	brlid	r15, -8260	// 90000a48 <vListInsertEnd>
90002a90:	80000000 	or	r0, r0, r0
90002a94:	b8000028 	bri	40		// 90002abc
90002a98:	b0009001 	imm	-28671
90002a9c:	e8603d00 	lwi	r3, r0, 15616
90002aa0:	e8930030 	lwi	r4, r19, 48
90002aa4:	10632000 	addk	r3, r3, r4
90002aa8:	f873001c 	swi	r3, r19, 28
90002aac:	e8b30028 	lwi	r5, r19, 40
90002ab0:	e8d3001c 	lwi	r6, r19, 28
90002ab4:	b9f4113c 	brlid	r15, 4412	// 90003bf0 <prvAddCurrentTaskToDelayedList>
90002ab8:	80000000 	or	r0, r0, r0
90002abc:	e9e10000 	lwi	r15, r1, 0
90002ac0:	10330000 	addk	r1, r19, r0
90002ac4:	ea610020 	lwi	r19, r1, 32
90002ac8:	30210024 	addik	r1, r1, 36
90002acc:	b60f0008 	rtsd	r15, 8
90002ad0:	80000000 	or	r0, r0, r0

90002ad4 <xTaskRemoveFromEventList>:
90002ad4:	3021ffd8 	addik	r1, r1, -40
90002ad8:	f9e10000 	swi	r15, r1, 0
90002adc:	fa610024 	swi	r19, r1, 36
90002ae0:	12610000 	addk	r19, r1, r0
90002ae4:	f8b3002c 	swi	r5, r19, 44
90002ae8:	f8d30030 	swi	r6, r19, 48
90002aec:	e8730030 	lwi	r3, r19, 48
90002af0:	e863000c 	lwi	r3, r3, 12
90002af4:	e863000c 	lwi	r3, r3, 12
90002af8:	f8730020 	swi	r3, r19, 32
90002afc:	e8730020 	lwi	r3, r19, 32
90002b00:	30630018 	addik	r3, r3, 24
90002b04:	10a30000 	addk	r5, r3, r0
90002b08:	b9f4e0b8 	brlid	r15, -8008	// 90000bc0 <vListRemove>
90002b0c:	80000000 	or	r0, r0, r0
90002b10:	b0009001 	imm	-28671
90002b14:	e8603d10 	lwi	r3, r0, 15632
90002b18:	bc230078 	bnei	r3, 120		// 90002b90
90002b1c:	e8730020 	lwi	r3, r19, 32
90002b20:	30630004 	addik	r3, r3, 4
90002b24:	10a30000 	addk	r5, r3, r0
90002b28:	b9f4e098 	brlid	r15, -8040	// 90000bc0 <vListRemove>
90002b2c:	80000000 	or	r0, r0, r0
90002b30:	e8730020 	lwi	r3, r19, 32
90002b34:	e883002c 	lwi	r4, r3, 44
90002b38:	b0009001 	imm	-28671
90002b3c:	e8603d08 	lwi	r3, r0, 15624
90002b40:	16441803 	cmpu	r18, r4, r3
90002b44:	bcb20014 	bgei	r18, 20		// 90002b58
90002b48:	e8730020 	lwi	r3, r19, 32
90002b4c:	e863002c 	lwi	r3, r3, 44
90002b50:	b0009001 	imm	-28671
90002b54:	f8603d08 	swi	r3, r0, 15624
90002b58:	e8730020 	lwi	r3, r19, 32
90002b5c:	e863002c 	lwi	r3, r3, 44
90002b60:	60630014 	muli	r3, r3, 20
90002b64:	10830000 	addk	r4, r3, r0
90002b68:	b0009001 	imm	-28671
90002b6c:	30604e60 	addik	r3, r0, 20064
90002b70:	10841800 	addk	r4, r4, r3
90002b74:	e8730020 	lwi	r3, r19, 32
90002b78:	30630004 	addik	r3, r3, 4
90002b7c:	10a40000 	addk	r5, r4, r0
90002b80:	10c30000 	addk	r6, r3, r0
90002b84:	b9f4dec4 	brlid	r15, -8508	// 90000a48 <vListInsertEnd>
90002b88:	80000000 	or	r0, r0, r0
90002b8c:	b8000020 	bri	32		// 90002bac
90002b90:	e8730020 	lwi	r3, r19, 32
90002b94:	30630018 	addik	r3, r3, 24
90002b98:	b0009001 	imm	-28671
90002b9c:	30a04f30 	addik	r5, r0, 20272
90002ba0:	10c30000 	addk	r6, r3, r0
90002ba4:	b9f4dea4 	brlid	r15, -8540	// 90000a48 <vListInsertEnd>
90002ba8:	80000000 	or	r0, r0, r0
90002bac:	e8730020 	lwi	r3, r19, 32
90002bb0:	e8a3002c 	lwi	r5, r3, 44
90002bb4:	e873002c 	lwi	r3, r19, 44
90002bb8:	64830402 	bslli	r4, r3, 2
90002bbc:	b0009001 	imm	-28671
90002bc0:	30605028 	addik	r3, r0, 20520
90002bc4:	10641800 	addk	r3, r4, r3
90002bc8:	e8630000 	lwi	r3, r3, 0
90002bcc:	e863002c 	lwi	r3, r3, 44
90002bd0:	16432803 	cmpu	r18, r3, r5
90002bd4:	bc520010 	blti	r18, 16		// 90002be4
90002bd8:	30600001 	addik	r3, r0, 1
90002bdc:	f873001c 	swi	r3, r19, 28
90002be0:	b8000008 	bri	8		// 90002be8
90002be4:	f813001c 	swi	r0, r19, 28
90002be8:	e873001c 	lwi	r3, r19, 28
90002bec:	e9e10000 	lwi	r15, r1, 0
90002bf0:	10330000 	addk	r1, r19, r0
90002bf4:	ea610024 	lwi	r19, r1, 36
90002bf8:	30210028 	addik	r1, r1, 40
90002bfc:	b60f0008 	rtsd	r15, 8
90002c00:	80000000 	or	r0, r0, r0

90002c04 <vTaskSetTimeOutState>:
90002c04:	3021fff8 	addik	r1, r1, -8
90002c08:	fa610004 	swi	r19, r1, 4
90002c0c:	12610000 	addk	r19, r1, r0
90002c10:	f8b3000c 	swi	r5, r19, 12
90002c14:	b0009001 	imm	-28671
90002c18:	e8803d1c 	lwi	r4, r0, 15644
90002c1c:	e873000c 	lwi	r3, r19, 12
90002c20:	f8830000 	swi	r4, r3, 0
90002c24:	b0009001 	imm	-28671
90002c28:	e8803d00 	lwi	r4, r0, 15616
90002c2c:	e873000c 	lwi	r3, r19, 12
90002c30:	f8830004 	swi	r4, r3, 4
90002c34:	10330000 	addk	r1, r19, r0
90002c38:	ea610004 	lwi	r19, r1, 4
90002c3c:	30210008 	addik	r1, r1, 8
90002c40:	b60f0008 	rtsd	r15, 8
90002c44:	80000000 	or	r0, r0, r0

90002c48 <xTaskCheckForTimeOut>:
90002c48:	3021ffd8 	addik	r1, r1, -40
90002c4c:	f9e10000 	swi	r15, r1, 0
90002c50:	fa610024 	swi	r19, r1, 36
90002c54:	12610000 	addk	r19, r1, r0
90002c58:	f8b3002c 	swi	r5, r19, 44
90002c5c:	f8d30030 	swi	r6, r19, 48
90002c60:	b9f41d4c 	brlid	r15, 7500	// 900049ac <xPortAreInterruptsEnabled>
90002c64:	80000000 	or	r0, r0, r0
90002c68:	f873001c 	swi	r3, r19, 28
90002c6c:	e873001c 	lwi	r3, r19, 28
90002c70:	bc030008 	beqi	r3, 8		// 90002c78
90002c74:	94110002 	msrclr	r0, 2
90002c78:	e8730030 	lwi	r3, r19, 48
90002c7c:	e8630000 	lwi	r3, r3, 0
90002c80:	aa43ffff 	xori	r18, r3, -1
90002c84:	bc32000c 	bnei	r18, 12		// 90002c90
90002c88:	f8130020 	swi	r0, r19, 32
90002c8c:	b80000a8 	bri	168		// 90002d34
90002c90:	e873002c 	lwi	r3, r19, 44
90002c94:	e8830000 	lwi	r4, r3, 0
90002c98:	b0009001 	imm	-28671
90002c9c:	e8603d1c 	lwi	r3, r0, 15644
90002ca0:	16432000 	rsubk	r18, r3, r4
90002ca4:	bc120028 	beqi	r18, 40		// 90002ccc
90002ca8:	e873002c 	lwi	r3, r19, 44
90002cac:	e8830004 	lwi	r4, r3, 4
90002cb0:	b0009001 	imm	-28671
90002cb4:	e8603d00 	lwi	r3, r0, 15616
90002cb8:	16441803 	cmpu	r18, r4, r3
90002cbc:	bc520010 	blti	r18, 16		// 90002ccc
90002cc0:	30600001 	addik	r3, r0, 1
90002cc4:	f8730020 	swi	r3, r19, 32
90002cc8:	b800006c 	bri	108		// 90002d34
90002ccc:	b0009001 	imm	-28671
90002cd0:	e8803d00 	lwi	r4, r0, 15616
90002cd4:	e873002c 	lwi	r3, r19, 44
90002cd8:	e8630004 	lwi	r3, r3, 4
90002cdc:	14832000 	rsubk	r4, r3, r4
90002ce0:	e8730030 	lwi	r3, r19, 48
90002ce4:	e8630000 	lwi	r3, r3, 0
90002ce8:	16432003 	cmpu	r18, r3, r4
90002cec:	bcb20040 	bgei	r18, 64		// 90002d2c
90002cf0:	e8730030 	lwi	r3, r19, 48
90002cf4:	e8a30000 	lwi	r5, r3, 0
90002cf8:	b0009001 	imm	-28671
90002cfc:	e8803d00 	lwi	r4, r0, 15616
90002d00:	e873002c 	lwi	r3, r19, 44
90002d04:	e8630004 	lwi	r3, r3, 4
90002d08:	14632000 	rsubk	r3, r3, r4
90002d0c:	14832800 	rsubk	r4, r3, r5
90002d10:	e8730030 	lwi	r3, r19, 48
90002d14:	f8830000 	swi	r4, r3, 0
90002d18:	e8b3002c 	lwi	r5, r19, 44
90002d1c:	b9f4fee8 	brlid	r15, -280	// 90002c04 <vTaskSetTimeOutState>
90002d20:	80000000 	or	r0, r0, r0
90002d24:	f8130020 	swi	r0, r19, 32
90002d28:	b800000c 	bri	12		// 90002d34
90002d2c:	30600001 	addik	r3, r0, 1
90002d30:	f8730020 	swi	r3, r19, 32
90002d34:	e873001c 	lwi	r3, r19, 28
90002d38:	bc030008 	beqi	r3, 8		// 90002d40
90002d3c:	94100002 	msrset	r0, 2
90002d40:	e8730020 	lwi	r3, r19, 32
90002d44:	e9e10000 	lwi	r15, r1, 0
90002d48:	10330000 	addk	r1, r19, r0
90002d4c:	ea610024 	lwi	r19, r1, 36
90002d50:	30210028 	addik	r1, r1, 40
90002d54:	b60f0008 	rtsd	r15, 8
90002d58:	80000000 	or	r0, r0, r0

90002d5c <xGetTaskProcessor>:
90002d5c:	3021fff0 	addik	r1, r1, -16
90002d60:	fa61000c 	swi	r19, r1, 12
90002d64:	12610000 	addk	r19, r1, r0
90002d68:	f8b30014 	swi	r5, r19, 20
90002d6c:	e8730014 	lwi	r3, r19, 20
90002d70:	bc03005c 	beqi	r3, 92		// 90002dcc
90002d74:	f8130004 	swi	r0, r19, 4
90002d78:	f8130004 	swi	r0, r19, 4
90002d7c:	b8000040 	bri	64		// 90002dbc
90002d80:	e8730004 	lwi	r3, r19, 4
90002d84:	64830402 	bslli	r4, r3, 2
90002d88:	b0009001 	imm	-28671
90002d8c:	30605028 	addik	r3, r0, 20520
90002d90:	10641800 	addk	r3, r4, r3
90002d94:	e8830000 	lwi	r4, r3, 0
90002d98:	e8730014 	lwi	r3, r19, 20
90002d9c:	16432000 	rsubk	r18, r3, r4
90002da0:	bc320010 	bnei	r18, 16		// 90002db0
90002da4:	e8730004 	lwi	r3, r19, 4
90002da8:	f8730008 	swi	r3, r19, 8
90002dac:	b8000020 	bri	32		// 90002dcc
90002db0:	e8730004 	lwi	r3, r19, 4
90002db4:	30630001 	addik	r3, r3, 1
90002db8:	f8730004 	swi	r3, r19, 4
90002dbc:	e8730004 	lwi	r3, r19, 4
90002dc0:	22400001 	addi	r18, r0, 1
90002dc4:	16439003 	cmpu	r18, r3, r18
90002dc8:	bcb2ffb8 	bgei	r18, -72		// 90002d80
90002dcc:	e8730008 	lwi	r3, r19, 8
90002dd0:	10330000 	addk	r1, r19, r0
90002dd4:	ea61000c 	lwi	r19, r1, 12
90002dd8:	30210010 	addik	r1, r1, 16
90002ddc:	b60f0008 	rtsd	r15, 8
90002de0:	80000000 	or	r0, r0, r0

90002de4 <vCPUAcquireMutex>:
90002de4:	3021ffc0 	addik	r1, r1, -64
90002de8:	f9e10000 	swi	r15, r1, 0
90002dec:	fa61003c 	swi	r19, r1, 60
90002df0:	12610000 	addk	r19, r1, r0
90002df4:	f8b30044 	swi	r5, r19, 68
90002df8:	f8d30048 	swi	r6, r19, 72
90002dfc:	b9f41c04 	brlid	r15, 7172	// 90004a00 <vPortMemoryBarrier>
90002e00:	80000000 	or	r0, r0, r0
90002e04:	e8730048 	lwi	r3, r19, 72
90002e08:	e8630000 	lwi	r3, r3, 0
90002e0c:	f8730038 	swi	r3, r19, 56
90002e10:	e8730048 	lwi	r3, r19, 72
90002e14:	30630004 	addik	r3, r3, 4
90002e18:	e8630000 	lwi	r3, r3, 0
90002e1c:	f8730034 	swi	r3, r19, 52
90002e20:	e8730048 	lwi	r3, r19, 72
90002e24:	30630008 	addik	r3, r3, 8
90002e28:	e8630000 	lwi	r3, r3, 0
90002e2c:	f8730030 	swi	r3, r19, 48
90002e30:	e8730048 	lwi	r3, r19, 72
90002e34:	3063000c 	addik	r3, r3, 12
90002e38:	e8630000 	lwi	r3, r3, 0
90002e3c:	f873002c 	swi	r3, r19, 44
90002e40:	e8730044 	lwi	r3, r19, 68
90002e44:	64630402 	bslli	r3, r3, 2
90002e48:	10830000 	addk	r4, r3, r0
90002e4c:	e8730030 	lwi	r3, r19, 48
90002e50:	10641800 	addk	r3, r4, r3
90002e54:	e8630000 	lwi	r3, r3, 0
90002e58:	bc2301bc 	bnei	r3, 444		// 90003014
90002e5c:	f8130028 	swi	r0, r19, 40
90002e60:	e8730028 	lwi	r3, r19, 40
90002e64:	30630001 	addik	r3, r3, 1
90002e68:	f8730028 	swi	r3, r19, 40
90002e6c:	e8730044 	lwi	r3, r19, 68
90002e70:	64630402 	bslli	r3, r3, 2
90002e74:	10830000 	addk	r4, r3, r0
90002e78:	e8730038 	lwi	r3, r19, 56
90002e7c:	10841800 	addk	r4, r4, r3
90002e80:	e8730028 	lwi	r3, r19, 40
90002e84:	f8640000 	swi	r3, r4, 0
90002e88:	e8730028 	lwi	r3, r19, 40
90002e8c:	64630402 	bslli	r3, r3, 2
90002e90:	10830000 	addk	r4, r3, r0
90002e94:	e8730034 	lwi	r3, r19, 52
90002e98:	10841800 	addk	r4, r4, r3
90002e9c:	e8730044 	lwi	r3, r19, 68
90002ea0:	f8640000 	swi	r3, r4, 0
90002ea4:	b9f41b5c 	brlid	r15, 7004	// 90004a00 <vPortMemoryBarrier>
90002ea8:	80000000 	or	r0, r0, r0
90002eac:	f8130024 	swi	r0, r19, 36
90002eb0:	b8000108 	bri	264		// 90002fb8
90002eb4:	e8930024 	lwi	r4, r19, 36
90002eb8:	e8730044 	lwi	r3, r19, 68
90002ebc:	16432000 	rsubk	r18, r3, r4
90002ec0:	bc1200ec 	beqi	r18, 236		// 90002fac
90002ec4:	b8000004 	bri	4		// 90002ec8
90002ec8:	f813001c 	swi	r0, r19, 28
90002ecc:	f8130020 	swi	r0, r19, 32
90002ed0:	b8000044 	bri	68		// 90002f14
90002ed4:	b9f41b2c 	brlid	r15, 6956	// 90004a00 <vPortMemoryBarrier>
90002ed8:	80000000 	or	r0, r0, r0
90002edc:	e8730020 	lwi	r3, r19, 32
90002ee0:	64630402 	bslli	r3, r3, 2
90002ee4:	10830000 	addk	r4, r3, r0
90002ee8:	e8730038 	lwi	r3, r19, 56
90002eec:	10641800 	addk	r3, r4, r3
90002ef0:	e8630000 	lwi	r3, r3, 0
90002ef4:	aa430003 	xori	r18, r3, 3
90002ef8:	bc120010 	beqi	r18, 16		// 90002f08
90002efc:	e873001c 	lwi	r3, r19, 28
90002f00:	30630001 	addik	r3, r3, 1
90002f04:	f873001c 	swi	r3, r19, 28
90002f08:	e8730020 	lwi	r3, r19, 32
90002f0c:	30630001 	addik	r3, r3, 1
90002f10:	f8730020 	swi	r3, r19, 32
90002f14:	e8730020 	lwi	r3, r19, 32
90002f18:	22400001 	addi	r18, r0, 1
90002f1c:	16439003 	cmpu	r18, r3, r18
90002f20:	bcb2ffb4 	bgei	r18, -76		// 90002ed4
90002f24:	b9f41adc 	brlid	r15, 6876	// 90004a00 <vPortMemoryBarrier>
90002f28:	80000000 	or	r0, r0, r0
90002f2c:	e8730028 	lwi	r3, r19, 40
90002f30:	64630402 	bslli	r3, r3, 2
90002f34:	10830000 	addk	r4, r3, r0
90002f38:	e8730034 	lwi	r3, r19, 52
90002f3c:	10641800 	addk	r3, r4, r3
90002f40:	e8630000 	lwi	r3, r3, 0
90002f44:	10830000 	addk	r4, r3, r0
90002f48:	e8730044 	lwi	r3, r19, 68
90002f4c:	16432000 	rsubk	r18, r3, r4
90002f50:	bc32005c 	bnei	r18, 92		// 90002fac
90002f54:	e8730024 	lwi	r3, r19, 36
90002f58:	64630402 	bslli	r3, r3, 2
90002f5c:	10830000 	addk	r4, r3, r0
90002f60:	e8730038 	lwi	r3, r19, 56
90002f64:	10641800 	addk	r3, r4, r3
90002f68:	e8630000 	lwi	r3, r3, 0
90002f6c:	10830000 	addk	r4, r3, r0
90002f70:	e8730028 	lwi	r3, r19, 40
90002f74:	16432003 	cmpu	r18, r3, r4
90002f78:	bc520024 	blti	r18, 36		// 90002f9c
90002f7c:	e8730024 	lwi	r3, r19, 36
90002f80:	64630402 	bslli	r3, r3, 2
90002f84:	10830000 	addk	r4, r3, r0
90002f88:	e8730038 	lwi	r3, r19, 56
90002f8c:	10641800 	addk	r3, r4, r3
90002f90:	e8630000 	lwi	r3, r3, 0
90002f94:	aa430003 	xori	r18, r3, 3
90002f98:	bc32ff30 	bnei	r18, -208		// 90002ec8
90002f9c:	e893001c 	lwi	r4, r19, 28
90002fa0:	e8730028 	lwi	r3, r19, 40
90002fa4:	16441803 	cmpu	r18, r4, r3
90002fa8:	bc52ff20 	blti	r18, -224		// 90002ec8
90002fac:	e8730024 	lwi	r3, r19, 36
90002fb0:	30630001 	addik	r3, r3, 1
90002fb4:	f8730024 	swi	r3, r19, 36
90002fb8:	e8730024 	lwi	r3, r19, 36
90002fbc:	22400001 	addi	r18, r0, 1
90002fc0:	16439003 	cmpu	r18, r3, r18
90002fc4:	bcb2fef0 	bgei	r18, -272		// 90002eb4
90002fc8:	b9f41a38 	brlid	r15, 6712	// 90004a00 <vPortMemoryBarrier>
90002fcc:	80000000 	or	r0, r0, r0
90002fd0:	e8730028 	lwi	r3, r19, 40
90002fd4:	64630402 	bslli	r3, r3, 2
90002fd8:	10830000 	addk	r4, r3, r0
90002fdc:	e8730034 	lwi	r3, r19, 52
90002fe0:	10641800 	addk	r3, r4, r3
90002fe4:	e8630000 	lwi	r3, r3, 0
90002fe8:	10830000 	addk	r4, r3, r0
90002fec:	e8730044 	lwi	r3, r19, 68
90002ff0:	16432000 	rsubk	r18, r3, r4
90002ff4:	bc32fe6c 	bnei	r18, -404		// 90002e60
90002ff8:	e8730044 	lwi	r3, r19, 68
90002ffc:	64630402 	bslli	r3, r3, 2
90003000:	10830000 	addk	r4, r3, r0
90003004:	e873002c 	lwi	r3, r19, 44
90003008:	10841800 	addk	r4, r4, r3
9000300c:	e8730028 	lwi	r3, r19, 40
90003010:	f8640000 	swi	r3, r4, 0
90003014:	e8730044 	lwi	r3, r19, 68
90003018:	64630402 	bslli	r3, r3, 2
9000301c:	10830000 	addk	r4, r3, r0
90003020:	e8730030 	lwi	r3, r19, 48
90003024:	10a41800 	addk	r5, r4, r3
90003028:	e8730044 	lwi	r3, r19, 68
9000302c:	64630402 	bslli	r3, r3, 2
90003030:	10830000 	addk	r4, r3, r0
90003034:	e8730030 	lwi	r3, r19, 48
90003038:	10641800 	addk	r3, r4, r3
9000303c:	e8630000 	lwi	r3, r3, 0
90003040:	30630001 	addik	r3, r3, 1
90003044:	f8650000 	swi	r3, r5, 0
90003048:	e9e10000 	lwi	r15, r1, 0
9000304c:	10330000 	addk	r1, r19, r0
90003050:	ea61003c 	lwi	r19, r1, 60
90003054:	30210040 	addik	r1, r1, 64
90003058:	b60f0008 	rtsd	r15, 8
9000305c:	80000000 	or	r0, r0, r0

90003060 <vCPUReleaseMutex>:
90003060:	3021ffc4 	addik	r1, r1, -60
90003064:	f9e10000 	swi	r15, r1, 0
90003068:	fa610038 	swi	r19, r1, 56
9000306c:	12610000 	addk	r19, r1, r0
90003070:	f8b30040 	swi	r5, r19, 64
90003074:	f8d30044 	swi	r6, r19, 68
90003078:	e8730044 	lwi	r3, r19, 68
9000307c:	e8630000 	lwi	r3, r3, 0
90003080:	f8730030 	swi	r3, r19, 48
90003084:	e8730044 	lwi	r3, r19, 68
90003088:	30630004 	addik	r3, r3, 4
9000308c:	e8630000 	lwi	r3, r3, 0
90003090:	f873002c 	swi	r3, r19, 44
90003094:	e8730044 	lwi	r3, r19, 68
90003098:	30630008 	addik	r3, r3, 8
9000309c:	e8630000 	lwi	r3, r3, 0
900030a0:	f8730028 	swi	r3, r19, 40
900030a4:	e8730044 	lwi	r3, r19, 68
900030a8:	3063000c 	addik	r3, r3, 12
900030ac:	e8630000 	lwi	r3, r3, 0
900030b0:	f8730024 	swi	r3, r19, 36
900030b4:	e8730040 	lwi	r3, r19, 64
900030b8:	64630402 	bslli	r3, r3, 2
900030bc:	10830000 	addk	r4, r3, r0
900030c0:	e8730024 	lwi	r3, r19, 36
900030c4:	10641800 	addk	r3, r4, r3
900030c8:	e8630000 	lwi	r3, r3, 0
900030cc:	f8730020 	swi	r3, r19, 32
900030d0:	e8730040 	lwi	r3, r19, 64
900030d4:	64630402 	bslli	r3, r3, 2
900030d8:	10830000 	addk	r4, r3, r0
900030dc:	e8730028 	lwi	r3, r19, 40
900030e0:	10641800 	addk	r3, r4, r3
900030e4:	e8630000 	lwi	r3, r3, 0
900030e8:	bc63018c 	blei	r3, 396		// 90003274
900030ec:	e8730040 	lwi	r3, r19, 64
900030f0:	64630402 	bslli	r3, r3, 2
900030f4:	10830000 	addk	r4, r3, r0
900030f8:	e8730028 	lwi	r3, r19, 40
900030fc:	10a41800 	addk	r5, r4, r3
90003100:	e8730040 	lwi	r3, r19, 64
90003104:	64630402 	bslli	r3, r3, 2
90003108:	10830000 	addk	r4, r3, r0
9000310c:	e8730028 	lwi	r3, r19, 40
90003110:	10641800 	addk	r3, r4, r3
90003114:	e8630000 	lwi	r3, r3, 0
90003118:	3063ffff 	addik	r3, r3, -1
9000311c:	f8650000 	swi	r3, r5, 0
90003120:	e8730040 	lwi	r3, r19, 64
90003124:	64630402 	bslli	r3, r3, 2
90003128:	10830000 	addk	r4, r3, r0
9000312c:	e8730028 	lwi	r3, r19, 40
90003130:	10641800 	addk	r3, r4, r3
90003134:	e8630000 	lwi	r3, r3, 0
90003138:	bc23013c 	bnei	r3, 316		// 90003274
9000313c:	b9f418c4 	brlid	r15, 6340	// 90004a00 <vPortMemoryBarrier>
90003140:	80000000 	or	r0, r0, r0
90003144:	f813001c 	swi	r0, r19, 28
90003148:	30600001 	addik	r3, r0, 1
9000314c:	f873001c 	swi	r3, r19, 28
90003150:	b800002c 	bri	44		// 9000317c
90003154:	e8730020 	lwi	r3, r19, 32
90003158:	64630402 	bslli	r3, r3, 2
9000315c:	10830000 	addk	r4, r3, r0
90003160:	e873002c 	lwi	r3, r19, 44
90003164:	10841800 	addk	r4, r4, r3
90003168:	e8730040 	lwi	r3, r19, 64
9000316c:	f8640000 	swi	r3, r4, 0
90003170:	e873001c 	lwi	r3, r19, 28
90003174:	30630001 	addik	r3, r3, 1
90003178:	f873001c 	swi	r3, r19, 28
9000317c:	e893001c 	lwi	r4, r19, 28
90003180:	e8730020 	lwi	r3, r19, 32
90003184:	16432001 	cmp	r18, r3, r4
90003188:	bc52ffcc 	blti	r18, -52		// 90003154
9000318c:	f813001c 	swi	r0, r19, 28
90003190:	b80000b0 	bri	176		// 90003240
90003194:	b9f4186c 	brlid	r15, 6252	// 90004a00 <vPortMemoryBarrier>
90003198:	80000000 	or	r0, r0, r0
9000319c:	e893001c 	lwi	r4, r19, 28
900031a0:	e8730040 	lwi	r3, r19, 64
900031a4:	16432000 	rsubk	r18, r3, r4
900031a8:	bc12008c 	beqi	r18, 140		// 90003234
900031ac:	e873001c 	lwi	r3, r19, 28
900031b0:	64630402 	bslli	r3, r3, 2
900031b4:	10830000 	addk	r4, r3, r0
900031b8:	e8730030 	lwi	r3, r19, 48
900031bc:	10641800 	addk	r3, r4, r3
900031c0:	e8630000 	lwi	r3, r3, 0
900031c4:	aa430003 	xori	r18, r3, 3
900031c8:	bc12006c 	beqi	r18, 108		// 90003234
900031cc:	e873001c 	lwi	r3, r19, 28
900031d0:	64630402 	bslli	r3, r3, 2
900031d4:	10830000 	addk	r4, r3, r0
900031d8:	e8730030 	lwi	r3, r19, 48
900031dc:	10641800 	addk	r3, r4, r3
900031e0:	e8630000 	lwi	r3, r3, 0
900031e4:	aa430003 	xori	r18, r3, 3
900031e8:	bc120028 	beqi	r18, 40		// 90003210
900031ec:	e873001c 	lwi	r3, r19, 28
900031f0:	64630402 	bslli	r3, r3, 2
900031f4:	10830000 	addk	r4, r3, r0
900031f8:	e8730030 	lwi	r3, r19, 48
900031fc:	10641800 	addk	r3, r4, r3
90003200:	e8630000 	lwi	r3, r3, 0
90003204:	64630402 	bslli	r3, r3, 2
90003208:	f8730034 	swi	r3, r19, 52
9000320c:	b800000c 	bri	12		// 90003218
90003210:	10600000 	addk	r3, r0, r0
90003214:	f8730034 	swi	r3, r19, 52
90003218:	e873002c 	lwi	r3, r19, 44
9000321c:	e8930034 	lwi	r4, r19, 52
90003220:	10641800 	addk	r3, r4, r3
90003224:	e8830000 	lwi	r4, r3, 0
90003228:	e873001c 	lwi	r3, r19, 28
9000322c:	16432000 	rsubk	r18, r3, r4
90003230:	bc32ff7c 	bnei	r18, -132		// 900031ac
90003234:	e873001c 	lwi	r3, r19, 28
90003238:	30630001 	addik	r3, r3, 1
9000323c:	f873001c 	swi	r3, r19, 28
90003240:	e873001c 	lwi	r3, r19, 28
90003244:	22400001 	addi	r18, r0, 1
90003248:	16439003 	cmpu	r18, r3, r18
9000324c:	bcb2ff48 	bgei	r18, -184		// 90003194
90003250:	e8730040 	lwi	r3, r19, 64
90003254:	64630402 	bslli	r3, r3, 2
90003258:	10830000 	addk	r4, r3, r0
9000325c:	e8730030 	lwi	r3, r19, 48
90003260:	10841800 	addk	r4, r4, r3
90003264:	30600003 	addik	r3, r0, 3
90003268:	f8640000 	swi	r3, r4, 0
9000326c:	b9f41794 	brlid	r15, 6036	// 90004a00 <vPortMemoryBarrier>
90003270:	80000000 	or	r0, r0, r0
90003274:	e9e10000 	lwi	r15, r1, 0
90003278:	10330000 	addk	r1, r19, r0
9000327c:	ea610038 	lwi	r19, r1, 56
90003280:	3021003c 	addik	r1, r1, 60
90003284:	b60f0008 	rtsd	r15, 8
90003288:	80000000 	or	r0, r0, r0

9000328c <prvFindMutexTurn>:
9000328c:	3021fff0 	addik	r1, r1, -16
90003290:	fa61000c 	swi	r19, r1, 12
90003294:	12610000 	addk	r19, r1, r0
90003298:	f8b30014 	swi	r5, r19, 20
9000329c:	f8d30018 	swi	r6, r19, 24
900032a0:	3060000b 	addik	r3, r0, 11
900032a4:	f8730004 	swi	r3, r19, 4
900032a8:	f8130008 	swi	r0, r19, 8
900032ac:	b8000080 	bri	128		// 9000332c
900032b0:	e8730014 	lwi	r3, r19, 20
900032b4:	e8930008 	lwi	r4, r19, 8
900032b8:	6063000a 	muli	r3, r3, 10
900032bc:	10632000 	addk	r3, r3, r4
900032c0:	64830403 	bslli	r4, r3, 3
900032c4:	b0009001 	imm	-28671
900032c8:	30603df8 	addik	r3, r0, 15864
900032cc:	10641800 	addk	r3, r4, r3
900032d0:	e8830000 	lwi	r4, r3, 0
900032d4:	e8730018 	lwi	r3, r19, 24
900032d8:	16432000 	rsubk	r18, r3, r4
900032dc:	bc320010 	bnei	r18, 16		// 900032ec
900032e0:	e8730008 	lwi	r3, r19, 8
900032e4:	f8730004 	swi	r3, r19, 4
900032e8:	b8000054 	bri	84		// 9000333c
900032ec:	e8730014 	lwi	r3, r19, 20
900032f0:	e8930008 	lwi	r4, r19, 8
900032f4:	6063000a 	muli	r3, r3, 10
900032f8:	10632000 	addk	r3, r3, r4
900032fc:	64830403 	bslli	r4, r3, 3
90003300:	b0009001 	imm	-28671
90003304:	30603df8 	addik	r3, r0, 15864
90003308:	10641800 	addk	r3, r4, r3
9000330c:	e8630000 	lwi	r3, r3, 0
90003310:	aa43ffff 	xori	r18, r3, -1
90003314:	bc32000c 	bnei	r18, 12		// 90003320
90003318:	e8730008 	lwi	r3, r19, 8
9000331c:	f8730004 	swi	r3, r19, 4
90003320:	e8730008 	lwi	r3, r19, 8
90003324:	30630001 	addik	r3, r3, 1
90003328:	f8730008 	swi	r3, r19, 8
9000332c:	e8730008 	lwi	r3, r19, 8
90003330:	22400009 	addi	r18, r0, 9
90003334:	16439003 	cmpu	r18, r3, r18
90003338:	bcb2ff78 	bgei	r18, -136		// 900032b0
9000333c:	e8730004 	lwi	r3, r19, 4
90003340:	10330000 	addk	r1, r19, r0
90003344:	ea61000c 	lwi	r19, r1, 12
90003348:	30210010 	addik	r1, r1, 16
9000334c:	b60f0008 	rtsd	r15, 8
90003350:	80000000 	or	r0, r0, r0

90003354 <prvFindMutexFlag>:
90003354:	3021fff0 	addik	r1, r1, -16
90003358:	fa61000c 	swi	r19, r1, 12
9000335c:	12610000 	addk	r19, r1, r0
90003360:	f8b30014 	swi	r5, r19, 20
90003364:	f8d30018 	swi	r6, r19, 24
90003368:	3060000b 	addik	r3, r0, 11
9000336c:	f8730004 	swi	r3, r19, 4
90003370:	f8130008 	swi	r0, r19, 8
90003374:	b8000080 	bri	128		// 900033f4
90003378:	e8b30014 	lwi	r5, r19, 20
9000337c:	e8730008 	lwi	r3, r19, 8
90003380:	6083000c 	muli	r4, r3, 12
90003384:	60650078 	muli	r3, r5, 120
90003388:	10841800 	addk	r4, r4, r3
9000338c:	b0009001 	imm	-28671
90003390:	30604488 	addik	r3, r0, 17544
90003394:	10641800 	addk	r3, r4, r3
90003398:	e8830000 	lwi	r4, r3, 0
9000339c:	e8730018 	lwi	r3, r19, 24
900033a0:	16432000 	rsubk	r18, r3, r4
900033a4:	bc320010 	bnei	r18, 16		// 900033b4
900033a8:	e8730008 	lwi	r3, r19, 8
900033ac:	f8730004 	swi	r3, r19, 4
900033b0:	b8000054 	bri	84		// 90003404
900033b4:	e8b30014 	lwi	r5, r19, 20
900033b8:	e8730008 	lwi	r3, r19, 8
900033bc:	6083000c 	muli	r4, r3, 12
900033c0:	60650078 	muli	r3, r5, 120
900033c4:	10841800 	addk	r4, r4, r3
900033c8:	b0009001 	imm	-28671
900033cc:	30604488 	addik	r3, r0, 17544
900033d0:	10641800 	addk	r3, r4, r3
900033d4:	e8630000 	lwi	r3, r3, 0
900033d8:	aa43ffff 	xori	r18, r3, -1
900033dc:	bc32000c 	bnei	r18, 12		// 900033e8
900033e0:	e8730008 	lwi	r3, r19, 8
900033e4:	f8730004 	swi	r3, r19, 4
900033e8:	e8730008 	lwi	r3, r19, 8
900033ec:	30630001 	addik	r3, r3, 1
900033f0:	f8730008 	swi	r3, r19, 8
900033f4:	e8730008 	lwi	r3, r19, 8
900033f8:	22400009 	addi	r18, r0, 9
900033fc:	16439003 	cmpu	r18, r3, r18
90003400:	bcb2ff78 	bgei	r18, -136		// 90003378
90003404:	e8730004 	lwi	r3, r19, 4
90003408:	10330000 	addk	r1, r19, r0
9000340c:	ea61000c 	lwi	r19, r1, 12
90003410:	30210010 	addik	r1, r1, 16
90003414:	b60f0008 	rtsd	r15, 8
90003418:	80000000 	or	r0, r0, r0

9000341c <vTaskAcquireNamedMutex>:
9000341c:	3021ffcc 	addik	r1, r1, -52
90003420:	f9e10000 	swi	r15, r1, 0
90003424:	fa610030 	swi	r19, r1, 48
90003428:	12610000 	addk	r19, r1, r0
9000342c:	f8b30038 	swi	r5, r19, 56
90003430:	f8d3003c 	swi	r6, r19, 60
90003434:	e8730038 	lwi	r3, r19, 56
90003438:	f873002c 	swi	r3, r19, 44
9000343c:	b9f415c4 	brlid	r15, 5572	// 90004a00 <vPortMemoryBarrier>
90003440:	80000000 	or	r0, r0, r0
90003444:	e873002c 	lwi	r3, r19, 44
90003448:	e8a30040 	lwi	r5, r3, 64
9000344c:	e873003c 	lwi	r3, r19, 60
90003450:	6083000c 	muli	r4, r3, 12
90003454:	60650078 	muli	r3, r5, 120
90003458:	10841800 	addk	r4, r4, r3
9000345c:	b0009001 	imm	-28671
90003460:	30604488 	addik	r3, r0, 17544
90003464:	10641800 	addk	r3, r4, r3
90003468:	e8630000 	lwi	r3, r3, 0
9000346c:	aa43ffff 	xori	r18, r3, -1
90003470:	bc320058 	bnei	r18, 88		// 900034c8
90003474:	e873002c 	lwi	r3, r19, 44
90003478:	e8a30040 	lwi	r5, r3, 64
9000347c:	e873003c 	lwi	r3, r19, 60
90003480:	e8d3003c 	lwi	r6, r19, 60
90003484:	6083000c 	muli	r4, r3, 12
90003488:	60650078 	muli	r3, r5, 120
9000348c:	10841800 	addk	r4, r4, r3
90003490:	b0009001 	imm	-28671
90003494:	30604488 	addik	r3, r0, 17544
90003498:	10641800 	addk	r3, r4, r3
9000349c:	f8c30000 	swi	r6, r3, 0
900034a0:	e873002c 	lwi	r3, r19, 44
900034a4:	e8a30040 	lwi	r5, r3, 64
900034a8:	e873003c 	lwi	r3, r19, 60
900034ac:	6083000c 	muli	r4, r3, 12
900034b0:	60650078 	muli	r3, r5, 120
900034b4:	10841800 	addk	r4, r4, r3
900034b8:	b0009001 	imm	-28671
900034bc:	3060448c 	addik	r3, r0, 17548
900034c0:	10641800 	addk	r3, r4, r3
900034c4:	f8030000 	swi	r0, r3, 0
900034c8:	f8130028 	swi	r0, r19, 40
900034cc:	e8730028 	lwi	r3, r19, 40
900034d0:	30630001 	addik	r3, r3, 1
900034d4:	f8730028 	swi	r3, r19, 40
900034d8:	e873002c 	lwi	r3, r19, 44
900034dc:	e8a30040 	lwi	r5, r3, 64
900034e0:	e873003c 	lwi	r3, r19, 60
900034e4:	e8d30028 	lwi	r6, r19, 40
900034e8:	6083000c 	muli	r4, r3, 12
900034ec:	60650078 	muli	r3, r5, 120
900034f0:	10841800 	addk	r4, r4, r3
900034f4:	b0009001 	imm	-28671
900034f8:	3060448c 	addik	r3, r0, 17548
900034fc:	10641800 	addk	r3, r4, r3
90003500:	f8c30000 	swi	r6, r3, 0
90003504:	b9f414fc 	brlid	r15, 5372	// 90004a00 <vPortMemoryBarrier>
90003508:	80000000 	or	r0, r0, r0
9000350c:	e8930028 	lwi	r4, r19, 40
90003510:	e8b3003c 	lwi	r5, r19, 60
90003514:	e873002c 	lwi	r3, r19, 44
90003518:	e8630040 	lwi	r3, r3, 64
9000351c:	10c30000 	addk	r6, r3, r0
90003520:	6064000a 	muli	r3, r4, 10
90003524:	10632800 	addk	r3, r3, r5
90003528:	64830403 	bslli	r4, r3, 3
9000352c:	b0009001 	imm	-28671
90003530:	30603dfc 	addik	r3, r0, 15868
90003534:	10641800 	addk	r3, r4, r3
90003538:	f8c30000 	swi	r6, r3, 0
9000353c:	30600001 	addik	r3, r0, 1
90003540:	f8730024 	swi	r3, r19, 36
90003544:	b8000110 	bri	272		// 90003654
90003548:	e873002c 	lwi	r3, r19, 44
9000354c:	e8830040 	lwi	r4, r3, 64
90003550:	e8730024 	lwi	r3, r19, 36
90003554:	16432000 	rsubk	r18, r3, r4
90003558:	bc1200f0 	beqi	r18, 240		// 90003648
9000355c:	b8000004 	bri	4		// 90003560
90003560:	f813001c 	swi	r0, r19, 28
90003564:	f8130020 	swi	r0, r19, 32
90003568:	b800004c 	bri	76		// 900035b4
9000356c:	b9f41494 	brlid	r15, 5268	// 90004a00 <vPortMemoryBarrier>
90003570:	80000000 	or	r0, r0, r0
90003574:	e8b30020 	lwi	r5, r19, 32
90003578:	e873003c 	lwi	r3, r19, 60
9000357c:	6083000c 	muli	r4, r3, 12
90003580:	60650078 	muli	r3, r5, 120
90003584:	10841800 	addk	r4, r4, r3
90003588:	b0009001 	imm	-28671
9000358c:	3060448c 	addik	r3, r0, 17548
90003590:	10641800 	addk	r3, r4, r3
90003594:	e8630000 	lwi	r3, r3, 0
90003598:	bc030010 	beqi	r3, 16		// 900035a8
9000359c:	e873001c 	lwi	r3, r19, 28
900035a0:	30630001 	addik	r3, r3, 1
900035a4:	f873001c 	swi	r3, r19, 28
900035a8:	e8730020 	lwi	r3, r19, 32
900035ac:	30630001 	addik	r3, r3, 1
900035b0:	f8730020 	swi	r3, r19, 32
900035b4:	e8730020 	lwi	r3, r19, 32
900035b8:	22400013 	addi	r18, r0, 19
900035bc:	16439003 	cmpu	r18, r3, r18
900035c0:	bcb2ffac 	bgei	r18, -84		// 9000356c
900035c4:	b9f4143c 	brlid	r15, 5180	// 90004a00 <vPortMemoryBarrier>
900035c8:	80000000 	or	r0, r0, r0
900035cc:	e8730028 	lwi	r3, r19, 40
900035d0:	e893003c 	lwi	r4, r19, 60
900035d4:	6063000a 	muli	r3, r3, 10
900035d8:	10632000 	addk	r3, r3, r4
900035dc:	64830403 	bslli	r4, r3, 3
900035e0:	b0009001 	imm	-28671
900035e4:	30603dfc 	addik	r3, r0, 15868
900035e8:	10641800 	addk	r3, r4, r3
900035ec:	e8630000 	lwi	r3, r3, 0
900035f0:	10830000 	addk	r4, r3, r0
900035f4:	e873002c 	lwi	r3, r19, 44
900035f8:	e8630040 	lwi	r3, r3, 64
900035fc:	16432000 	rsubk	r18, r3, r4
90003600:	bc320048 	bnei	r18, 72		// 90003648
90003604:	e8b30024 	lwi	r5, r19, 36
90003608:	e873003c 	lwi	r3, r19, 60
9000360c:	6083000c 	muli	r4, r3, 12
90003610:	60650078 	muli	r3, r5, 120
90003614:	10841800 	addk	r4, r4, r3
90003618:	b0009001 	imm	-28671
9000361c:	3060448c 	addik	r3, r0, 17548
90003620:	10641800 	addk	r3, r4, r3
90003624:	e8630000 	lwi	r3, r3, 0
90003628:	10830000 	addk	r4, r3, r0
9000362c:	e8730028 	lwi	r3, r19, 40
90003630:	16432003 	cmpu	r18, r3, r4
90003634:	bcb2ff2c 	bgei	r18, -212		// 90003560
90003638:	e893001c 	lwi	r4, r19, 28
9000363c:	e8730028 	lwi	r3, r19, 40
90003640:	16441803 	cmpu	r18, r4, r3
90003644:	bc52ff1c 	blti	r18, -228		// 90003560
90003648:	e8730024 	lwi	r3, r19, 36
9000364c:	30630001 	addik	r3, r3, 1
90003650:	f8730024 	swi	r3, r19, 36
90003654:	e8730024 	lwi	r3, r19, 36
90003658:	22400013 	addi	r18, r0, 19
9000365c:	16439003 	cmpu	r18, r3, r18
90003660:	bcb2fee8 	bgei	r18, -280		// 90003548
90003664:	b9f4139c 	brlid	r15, 5020	// 90004a00 <vPortMemoryBarrier>
90003668:	80000000 	or	r0, r0, r0
9000366c:	e8730028 	lwi	r3, r19, 40
90003670:	e893003c 	lwi	r4, r19, 60
90003674:	6063000a 	muli	r3, r3, 10
90003678:	10632000 	addk	r3, r3, r4
9000367c:	64830403 	bslli	r4, r3, 3
90003680:	b0009001 	imm	-28671
90003684:	30603dfc 	addik	r3, r0, 15868
90003688:	10641800 	addk	r3, r4, r3
9000368c:	e8630000 	lwi	r3, r3, 0
90003690:	10830000 	addk	r4, r3, r0
90003694:	e873002c 	lwi	r3, r19, 44
90003698:	e8630040 	lwi	r3, r3, 64
9000369c:	16432000 	rsubk	r18, r3, r4
900036a0:	bc32fe2c 	bnei	r18, -468		// 900034cc
900036a4:	e873002c 	lwi	r3, r19, 44
900036a8:	e8a30040 	lwi	r5, r3, 64
900036ac:	e873003c 	lwi	r3, r19, 60
900036b0:	e8d30028 	lwi	r6, r19, 40
900036b4:	6083000c 	muli	r4, r3, 12
900036b8:	60650078 	muli	r3, r5, 120
900036bc:	10841800 	addk	r4, r4, r3
900036c0:	b0009001 	imm	-28671
900036c4:	30604490 	addik	r3, r0, 17552
900036c8:	10641800 	addk	r3, r4, r3
900036cc:	f8c30000 	swi	r6, r3, 0
900036d0:	e9e10000 	lwi	r15, r1, 0
900036d4:	10330000 	addk	r1, r19, r0
900036d8:	ea610030 	lwi	r19, r1, 48
900036dc:	30210034 	addik	r1, r1, 52
900036e0:	b60f0008 	rtsd	r15, 8
900036e4:	80000000 	or	r0, r0, r0

900036e8 <vTaskReleaseNamedMutex>:
900036e8:	3021ffd8 	addik	r1, r1, -40
900036ec:	f9e10000 	swi	r15, r1, 0
900036f0:	fa610024 	swi	r19, r1, 36
900036f4:	12610000 	addk	r19, r1, r0
900036f8:	f8b3002c 	swi	r5, r19, 44
900036fc:	f8d30030 	swi	r6, r19, 48
90003700:	e873002c 	lwi	r3, r19, 44
90003704:	f8730020 	swi	r3, r19, 32
90003708:	b9f412f8 	brlid	r15, 4856	// 90004a00 <vPortMemoryBarrier>
9000370c:	80000000 	or	r0, r0, r0
90003710:	30600001 	addik	r3, r0, 1
90003714:	f873001c 	swi	r3, r19, 28
90003718:	30600001 	addik	r3, r0, 1
9000371c:	f873001c 	swi	r3, r19, 28
90003720:	b8000064 	bri	100		// 90003784
90003724:	e8730020 	lwi	r3, r19, 32
90003728:	e8a30040 	lwi	r5, r3, 64
9000372c:	e8730030 	lwi	r3, r19, 48
90003730:	6083000c 	muli	r4, r3, 12
90003734:	60650078 	muli	r3, r5, 120
90003738:	10841800 	addk	r4, r4, r3
9000373c:	b0009001 	imm	-28671
90003740:	30604490 	addik	r3, r0, 17552
90003744:	10641800 	addk	r3, r4, r3
90003748:	e8830000 	lwi	r4, r3, 0
9000374c:	e8b30030 	lwi	r5, r19, 48
90003750:	e8730020 	lwi	r3, r19, 32
90003754:	e8630040 	lwi	r3, r3, 64
90003758:	10c30000 	addk	r6, r3, r0
9000375c:	6064000a 	muli	r3, r4, 10
90003760:	10632800 	addk	r3, r3, r5
90003764:	64830403 	bslli	r4, r3, 3
90003768:	b0009001 	imm	-28671
9000376c:	30603dfc 	addik	r3, r0, 15868
90003770:	10641800 	addk	r3, r4, r3
90003774:	f8c30000 	swi	r6, r3, 0
90003778:	e873001c 	lwi	r3, r19, 28
9000377c:	30630001 	addik	r3, r3, 1
90003780:	f873001c 	swi	r3, r19, 28
90003784:	e8730020 	lwi	r3, r19, 32
90003788:	e8a30040 	lwi	r5, r3, 64
9000378c:	e8730030 	lwi	r3, r19, 48
90003790:	6083000c 	muli	r4, r3, 12
90003794:	60650078 	muli	r3, r5, 120
90003798:	10841800 	addk	r4, r4, r3
9000379c:	b0009001 	imm	-28671
900037a0:	30604490 	addik	r3, r0, 17552
900037a4:	10641800 	addk	r3, r4, r3
900037a8:	e8830000 	lwi	r4, r3, 0
900037ac:	e873001c 	lwi	r3, r19, 28
900037b0:	16441801 	cmp	r18, r4, r3
900037b4:	bc52ff70 	blti	r18, -144		// 90003724
900037b8:	f813001c 	swi	r0, r19, 28
900037bc:	b80000a4 	bri	164		// 90003860
900037c0:	b9f41240 	brlid	r15, 4672	// 90004a00 <vPortMemoryBarrier>
900037c4:	80000000 	or	r0, r0, r0
900037c8:	e8730020 	lwi	r3, r19, 32
900037cc:	e8830040 	lwi	r4, r3, 64
900037d0:	e873001c 	lwi	r3, r19, 28
900037d4:	16432000 	rsubk	r18, r3, r4
900037d8:	bc12007c 	beqi	r18, 124		// 90003854
900037dc:	e8b3001c 	lwi	r5, r19, 28
900037e0:	e8730030 	lwi	r3, r19, 48
900037e4:	6083000c 	muli	r4, r3, 12
900037e8:	60650078 	muli	r3, r5, 120
900037ec:	10841800 	addk	r4, r4, r3
900037f0:	b0009001 	imm	-28671
900037f4:	3060448c 	addik	r3, r0, 17548
900037f8:	10641800 	addk	r3, r4, r3
900037fc:	e8630000 	lwi	r3, r3, 0
90003800:	bc030054 	beqi	r3, 84		// 90003854
90003804:	e8b3001c 	lwi	r5, r19, 28
90003808:	e8730030 	lwi	r3, r19, 48
9000380c:	6083000c 	muli	r4, r3, 12
90003810:	60650078 	muli	r3, r5, 120
90003814:	10841800 	addk	r4, r4, r3
90003818:	b0009001 	imm	-28671
9000381c:	3060448c 	addik	r3, r0, 17548
90003820:	10641800 	addk	r3, r4, r3
90003824:	e8630000 	lwi	r3, r3, 0
90003828:	e8930030 	lwi	r4, r19, 48
9000382c:	6063000a 	muli	r3, r3, 10
90003830:	10632000 	addk	r3, r3, r4
90003834:	64830403 	bslli	r4, r3, 3
90003838:	b0009001 	imm	-28671
9000383c:	30603dfc 	addik	r3, r0, 15868
90003840:	10641800 	addk	r3, r4, r3
90003844:	e8830000 	lwi	r4, r3, 0
90003848:	e873001c 	lwi	r3, r19, 28
9000384c:	16432000 	rsubk	r18, r3, r4
90003850:	bc32ff8c 	bnei	r18, -116		// 900037dc
90003854:	e873001c 	lwi	r3, r19, 28
90003858:	30630001 	addik	r3, r3, 1
9000385c:	f873001c 	swi	r3, r19, 28
90003860:	e873001c 	lwi	r3, r19, 28
90003864:	22400013 	addi	r18, r0, 19
90003868:	16439003 	cmpu	r18, r3, r18
9000386c:	bcb2ff54 	bgei	r18, -172		// 900037c0
90003870:	e8730020 	lwi	r3, r19, 32
90003874:	e8a30040 	lwi	r5, r3, 64
90003878:	e8730030 	lwi	r3, r19, 48
9000387c:	6083000c 	muli	r4, r3, 12
90003880:	60650078 	muli	r3, r5, 120
90003884:	10841800 	addk	r4, r4, r3
90003888:	b0009001 	imm	-28671
9000388c:	3060448c 	addik	r3, r0, 17548
90003890:	10641800 	addk	r3, r4, r3
90003894:	f8030000 	swi	r0, r3, 0
90003898:	b9f41168 	brlid	r15, 4456	// 90004a00 <vPortMemoryBarrier>
9000389c:	80000000 	or	r0, r0, r0
900038a0:	e9e10000 	lwi	r15, r1, 0
900038a4:	10330000 	addk	r1, r19, r0
900038a8:	ea610024 	lwi	r19, r1, 36
900038ac:	30210028 	addik	r1, r1, 40
900038b0:	b60f0008 	rtsd	r15, 8
900038b4:	80000000 	or	r0, r0, r0

900038b8 <vTaskMissedYield>:
900038b8:	3021fff8 	addik	r1, r1, -8
900038bc:	fa610004 	swi	r19, r1, 4
900038c0:	12610000 	addk	r19, r1, r0
900038c4:	30600001 	addik	r3, r0, 1
900038c8:	b0009001 	imm	-28671
900038cc:	f8603d18 	swi	r3, r0, 15640
900038d0:	10330000 	addk	r1, r19, r0
900038d4:	ea610004 	lwi	r19, r1, 4
900038d8:	30210008 	addik	r1, r1, 8
900038dc:	b60f0008 	rtsd	r15, 8
900038e0:	80000000 	or	r0, r0, r0

900038e4 <prvIdleTask>:
900038e4:	3021ffe0 	addik	r1, r1, -32
900038e8:	f9e10000 	swi	r15, r1, 0
900038ec:	fa61001c 	swi	r19, r1, 28
900038f0:	12610000 	addk	r19, r1, r0
900038f4:	f8b30024 	swi	r5, r19, 36
900038f8:	b9f401f8 	brlid	r15, 504	// 90003af0 <prvCheckTasksWaitingTermination>
900038fc:	80000000 	or	r0, r0, r0
90003900:	b0009001 	imm	-28671
90003904:	e8604e60 	lwi	r3, r0, 20064
90003908:	22400001 	addi	r18, r0, 1
9000390c:	16439003 	cmpu	r18, r3, r18
90003910:	bcb2000c 	bgei	r18, 12		// 9000391c
90003914:	b9f41060 	brlid	r15, 4192	// 90004974 <vPortYield>
90003918:	80000000 	or	r0, r0, r0
9000391c:	b9f418ac 	brlid	r15, 6316	// 900051c8 <vApplicationIdleHook>
90003920:	80000000 	or	r0, r0, r0
90003924:	b800ffd4 	bri	-44		// 900038f8

90003928 <prvInitialiseTCBVariables>:
90003928:	3021ffe0 	addik	r1, r1, -32
9000392c:	f9e10000 	swi	r15, r1, 0
90003930:	fa61001c 	swi	r19, r1, 28
90003934:	12610000 	addk	r19, r1, r0
90003938:	f8b30024 	swi	r5, r19, 36
9000393c:	f8d30028 	swi	r6, r19, 40
90003940:	f8f3002c 	swi	r7, r19, 44
90003944:	f9130030 	swi	r8, r19, 48
90003948:	f5330034 	shi	r9, r19, 52
9000394c:	e8730024 	lwi	r3, r19, 36
90003950:	30630034 	addik	r3, r3, 52
90003954:	e8930028 	lwi	r4, r19, 40
90003958:	10a30000 	addk	r5, r3, r0
9000395c:	10c40000 	addk	r6, r4, r0
90003960:	30e00005 	addik	r7, r0, 5
90003964:	b9f44330 	brlid	r15, 17200	// 90007c94 <strncpy>
90003968:	80000000 	or	r0, r0, r0
9000396c:	e8730024 	lwi	r3, r19, 36
90003970:	f0030038 	sbi	r0, r3, 56
90003974:	e873002c 	lwi	r3, r19, 44
90003978:	22400007 	addi	r18, r0, 7
9000397c:	16439003 	cmpu	r18, r3, r18
90003980:	bcb2000c 	bgei	r18, 12		// 9000398c
90003984:	30600007 	addik	r3, r0, 7
90003988:	f873002c 	swi	r3, r19, 44
9000398c:	e8930024 	lwi	r4, r19, 36
90003990:	e873002c 	lwi	r3, r19, 44
90003994:	f864002c 	swi	r3, r4, 44
90003998:	e8930024 	lwi	r4, r19, 36
9000399c:	e873002c 	lwi	r3, r19, 44
900039a0:	f8640044 	swi	r3, r4, 68
900039a4:	e8730024 	lwi	r3, r19, 36
900039a8:	30630004 	addik	r3, r3, 4
900039ac:	10a30000 	addk	r5, r3, r0
900039b0:	b9f4d06c 	brlid	r15, -12180	// 90000a1c <vListInitialiseItem>
900039b4:	80000000 	or	r0, r0, r0
900039b8:	e8730024 	lwi	r3, r19, 36
900039bc:	30630018 	addik	r3, r3, 24
900039c0:	10a30000 	addk	r5, r3, r0
900039c4:	b9f4d058 	brlid	r15, -12200	// 90000a1c <vListInitialiseItem>
900039c8:	80000000 	or	r0, r0, r0
900039cc:	e8930024 	lwi	r4, r19, 36
900039d0:	e8730024 	lwi	r3, r19, 36
900039d4:	f8640010 	swi	r3, r4, 16
900039d8:	e873002c 	lwi	r3, r19, 44
900039dc:	34830008 	rsubik	r4, r3, 8
900039e0:	e8730024 	lwi	r3, r19, 36
900039e4:	f8830018 	swi	r4, r3, 24
900039e8:	e8930024 	lwi	r4, r19, 36
900039ec:	e8730024 	lwi	r3, r19, 36
900039f0:	f8640024 	swi	r3, r4, 36
900039f4:	e9e10000 	lwi	r15, r1, 0
900039f8:	10330000 	addk	r1, r19, r0
900039fc:	ea61001c 	lwi	r19, r1, 28
90003a00:	30210020 	addik	r1, r1, 32
90003a04:	b60f0008 	rtsd	r15, 8
90003a08:	80000000 	or	r0, r0, r0

90003a0c <prvInitialiseTaskLists>:
90003a0c:	3021ffdc 	addik	r1, r1, -36
90003a10:	f9e10000 	swi	r15, r1, 0
90003a14:	fa610020 	swi	r19, r1, 32
90003a18:	12610000 	addk	r19, r1, r0
90003a1c:	f813001c 	swi	r0, r19, 28
90003a20:	b8000034 	bri	52		// 90003a54
90003a24:	e873001c 	lwi	r3, r19, 28
90003a28:	60630014 	muli	r3, r3, 20
90003a2c:	10830000 	addk	r4, r3, r0
90003a30:	b0009001 	imm	-28671
90003a34:	30604e60 	addik	r3, r0, 20064
90003a38:	10641800 	addk	r3, r4, r3
90003a3c:	10a30000 	addk	r5, r3, r0
90003a40:	b9f4cf68 	brlid	r15, -12440	// 900009a8 <vListInitialise>
90003a44:	80000000 	or	r0, r0, r0
90003a48:	e873001c 	lwi	r3, r19, 28
90003a4c:	30630001 	addik	r3, r3, 1
90003a50:	f873001c 	swi	r3, r19, 28
90003a54:	e873001c 	lwi	r3, r19, 28
90003a58:	22400007 	addi	r18, r0, 7
90003a5c:	16439003 	cmpu	r18, r3, r18
90003a60:	bcb2ffc4 	bgei	r18, -60		// 90003a24
90003a64:	b0009001 	imm	-28671
90003a68:	30a04f00 	addik	r5, r0, 20224
90003a6c:	b9f4cf3c 	brlid	r15, -12484	// 900009a8 <vListInitialise>
90003a70:	80000000 	or	r0, r0, r0
90003a74:	b0009001 	imm	-28671
90003a78:	30a04f14 	addik	r5, r0, 20244
90003a7c:	b9f4cf2c 	brlid	r15, -12500	// 900009a8 <vListInitialise>
90003a80:	80000000 	or	r0, r0, r0
90003a84:	b0009001 	imm	-28671
90003a88:	30a04f30 	addik	r5, r0, 20272
90003a8c:	b9f4cf1c 	brlid	r15, -12516	// 900009a8 <vListInitialise>
90003a90:	80000000 	or	r0, r0, r0
90003a94:	b0009001 	imm	-28671
90003a98:	30604f44 	addik	r3, r0, 20292
90003a9c:	10a30000 	addk	r5, r3, r0
90003aa0:	b9f4cf08 	brlid	r15, -12536	// 900009a8 <vListInitialise>
90003aa4:	80000000 	or	r0, r0, r0
90003aa8:	b0009001 	imm	-28671
90003aac:	30a04f58 	addik	r5, r0, 20312
90003ab0:	b9f4cef8 	brlid	r15, -12552	// 900009a8 <vListInitialise>
90003ab4:	80000000 	or	r0, r0, r0
90003ab8:	b0009001 	imm	-28671
90003abc:	30604f00 	addik	r3, r0, 20224
90003ac0:	b0009001 	imm	-28671
90003ac4:	f8604f28 	swi	r3, r0, 20264
90003ac8:	b0009001 	imm	-28671
90003acc:	30604f14 	addik	r3, r0, 20244
90003ad0:	b0009001 	imm	-28671
90003ad4:	f8604f2c 	swi	r3, r0, 20268
90003ad8:	e9e10000 	lwi	r15, r1, 0
90003adc:	10330000 	addk	r1, r19, r0
90003ae0:	ea610020 	lwi	r19, r1, 32
90003ae4:	30210024 	addik	r1, r1, 36
90003ae8:	b60f0008 	rtsd	r15, 8
90003aec:	80000000 	or	r0, r0, r0

90003af0 <prvCheckTasksWaitingTermination>:
90003af0:	3021ffd4 	addik	r1, r1, -44
90003af4:	f9e10000 	swi	r15, r1, 0
90003af8:	fa610028 	swi	r19, r1, 40
90003afc:	12610000 	addk	r19, r1, r0
90003b00:	b9f415f0 	brlid	r15, 5616	// 900050f0 <xPortGetCurrentCPU>
90003b04:	80000000 	or	r0, r0, r0
90003b08:	f8730020 	swi	r3, r19, 32
90003b0c:	b0009001 	imm	-28671
90003b10:	e8603cf8 	lwi	r3, r0, 15608
90003b14:	bc0300c4 	beqi	r3, 196		// 90003bd8
90003b18:	b9f4e6d8 	brlid	r15, -6440	// 900021f0 <vTaskSuspendAll>
90003b1c:	80000000 	or	r0, r0, r0
90003b20:	b0009001 	imm	-28671
90003b24:	e8604f44 	lwi	r3, r0, 20292
90003b28:	88630400 	pcmpeq	r3, r3, r0
90003b2c:	f8730024 	swi	r3, r19, 36
90003b30:	b9f4e6f4 	brlid	r15, -6412	// 90002224 <xTaskResumeAll>
90003b34:	80000000 	or	r0, r0, r0
90003b38:	e8730024 	lwi	r3, r19, 36
90003b3c:	bc23009c 	bnei	r3, 156		// 90003bd8
90003b40:	e8730020 	lwi	r3, r19, 32
90003b44:	b0009001 	imm	-28671
90003b48:	3080371c 	addik	r4, r0, 14108
90003b4c:	10a30000 	addk	r5, r3, r0
90003b50:	10c40000 	addk	r6, r4, r0
90003b54:	b9f4f290 	brlid	r15, -3440	// 90002de4 <vCPUAcquireMutex>
90003b58:	80000000 	or	r0, r0, r0
90003b5c:	b0009001 	imm	-28671
90003b60:	30604f44 	addik	r3, r0, 20292
90003b64:	30630008 	addik	r3, r3, 8
90003b68:	e8630004 	lwi	r3, r3, 4
90003b6c:	e863000c 	lwi	r3, r3, 12
90003b70:	f873001c 	swi	r3, r19, 28
90003b74:	e873001c 	lwi	r3, r19, 28
90003b78:	30630004 	addik	r3, r3, 4
90003b7c:	10a30000 	addk	r5, r3, r0
90003b80:	b9f4d040 	brlid	r15, -12224	// 90000bc0 <vListRemove>
90003b84:	80000000 	or	r0, r0, r0
90003b88:	b0009001 	imm	-28671
90003b8c:	e8603cfc 	lwi	r3, r0, 15612
90003b90:	3063ffff 	addik	r3, r3, -1
90003b94:	b0009001 	imm	-28671
90003b98:	f8603cfc 	swi	r3, r0, 15612
90003b9c:	b0009001 	imm	-28671
90003ba0:	e8603cf8 	lwi	r3, r0, 15608
90003ba4:	3063ffff 	addik	r3, r3, -1
90003ba8:	b0009001 	imm	-28671
90003bac:	f8603cf8 	swi	r3, r0, 15608
90003bb0:	e8730020 	lwi	r3, r19, 32
90003bb4:	b0009001 	imm	-28671
90003bb8:	3080371c 	addik	r4, r0, 14108
90003bbc:	10a30000 	addk	r5, r3, r0
90003bc0:	10c40000 	addk	r6, r4, r0
90003bc4:	b9f4f49c 	brlid	r15, -2916	// 90003060 <vCPUReleaseMutex>
90003bc8:	80000000 	or	r0, r0, r0
90003bcc:	e8b3001c 	lwi	r5, r19, 28
90003bd0:	b9f401d0 	brlid	r15, 464	// 90003da0 <prvDeleteTCB>
90003bd4:	80000000 	or	r0, r0, r0
90003bd8:	e9e10000 	lwi	r15, r1, 0
90003bdc:	10330000 	addk	r1, r19, r0
90003be0:	ea610028 	lwi	r19, r1, 40
90003be4:	3021002c 	addik	r1, r1, 44
90003be8:	b60f0008 	rtsd	r15, 8
90003bec:	80000000 	or	r0, r0, r0

90003bf0 <prvAddCurrentTaskToDelayedList>:
90003bf0:	3021ffe0 	addik	r1, r1, -32
90003bf4:	f9e10000 	swi	r15, r1, 0
90003bf8:	fa61001c 	swi	r19, r1, 28
90003bfc:	12610000 	addk	r19, r1, r0
90003c00:	f8b30024 	swi	r5, r19, 36
90003c04:	f8d30028 	swi	r6, r19, 40
90003c08:	e8730024 	lwi	r3, r19, 36
90003c0c:	64830402 	bslli	r4, r3, 2
90003c10:	b0009001 	imm	-28671
90003c14:	30605028 	addik	r3, r0, 20520
90003c18:	10641800 	addk	r3, r4, r3
90003c1c:	e8830000 	lwi	r4, r3, 0
90003c20:	e8730028 	lwi	r3, r19, 40
90003c24:	f8640004 	swi	r3, r4, 4
90003c28:	b0009001 	imm	-28671
90003c2c:	e8803d00 	lwi	r4, r0, 15616
90003c30:	e8730028 	lwi	r3, r19, 40
90003c34:	16441803 	cmpu	r18, r4, r3
90003c38:	bcb20038 	bgei	r18, 56		// 90003c70
90003c3c:	b0009001 	imm	-28671
90003c40:	e8a04f2c 	lwi	r5, r0, 20268
90003c44:	e8730024 	lwi	r3, r19, 36
90003c48:	64830402 	bslli	r4, r3, 2
90003c4c:	b0009001 	imm	-28671
90003c50:	30605028 	addik	r3, r0, 20520
90003c54:	10641800 	addk	r3, r4, r3
90003c58:	e8630000 	lwi	r3, r3, 0
90003c5c:	30630004 	addik	r3, r3, 4
90003c60:	10c30000 	addk	r6, r3, r0
90003c64:	b9f4ce80 	brlid	r15, -12672	// 90000ae4 <vListInsert>
90003c68:	80000000 	or	r0, r0, r0
90003c6c:	b8000054 	bri	84		// 90003cc0
90003c70:	b0009001 	imm	-28671
90003c74:	e8a04f28 	lwi	r5, r0, 20264
90003c78:	e8730024 	lwi	r3, r19, 36
90003c7c:	64830402 	bslli	r4, r3, 2
90003c80:	b0009001 	imm	-28671
90003c84:	30605028 	addik	r3, r0, 20520
90003c88:	10641800 	addk	r3, r4, r3
90003c8c:	e8630000 	lwi	r3, r3, 0
90003c90:	30630004 	addik	r3, r3, 4
90003c94:	10c30000 	addk	r6, r3, r0
90003c98:	b9f4ce4c 	brlid	r15, -12724	// 90000ae4 <vListInsert>
90003c9c:	80000000 	or	r0, r0, r0
90003ca0:	b0009001 	imm	-28671
90003ca4:	e880375c 	lwi	r4, r0, 14172
90003ca8:	e8730028 	lwi	r3, r19, 40
90003cac:	16441803 	cmpu	r18, r4, r3
90003cb0:	bcb20010 	bgei	r18, 16		// 90003cc0
90003cb4:	e8730028 	lwi	r3, r19, 40
90003cb8:	b0009001 	imm	-28671
90003cbc:	f860375c 	swi	r3, r0, 14172
90003cc0:	e9e10000 	lwi	r15, r1, 0
90003cc4:	10330000 	addk	r1, r19, r0
90003cc8:	ea61001c 	lwi	r19, r1, 28
90003ccc:	30210020 	addik	r1, r1, 32
90003cd0:	b60f0008 	rtsd	r15, 8
90003cd4:	80000000 	or	r0, r0, r0

90003cd8 <prvAllocateTCBAndStack>:
90003cd8:	3021ffd8 	addik	r1, r1, -40
90003cdc:	f9e10000 	swi	r15, r1, 0
90003ce0:	fa610024 	swi	r19, r1, 36
90003ce4:	12610000 	addk	r19, r1, r0
90003ce8:	f4b3002c 	shi	r5, r19, 44
90003cec:	f8d30030 	swi	r6, r19, 48
90003cf0:	30a00048 	addik	r5, r0, 72
90003cf4:	b9f404a8 	brlid	r15, 1192	// 9000419c <pvPortMalloc>
90003cf8:	80000000 	or	r0, r0, r0
90003cfc:	f873001c 	swi	r3, r19, 28
90003d00:	e873001c 	lwi	r3, r19, 28
90003d04:	bc030080 	beqi	r3, 128		// 90003d84
90003d08:	e8730030 	lwi	r3, r19, 48
90003d0c:	bc230020 	bnei	r3, 32		// 90003d2c
90003d10:	e473002c 	lhui	r3, r19, 44
90003d14:	64630402 	bslli	r3, r3, 2
90003d18:	10a30000 	addk	r5, r3, r0
90003d1c:	b9f40480 	brlid	r15, 1152	// 9000419c <pvPortMalloc>
90003d20:	80000000 	or	r0, r0, r0
90003d24:	f8730020 	swi	r3, r19, 32
90003d28:	b800000c 	bri	12		// 90003d34
90003d2c:	e8730030 	lwi	r3, r19, 48
90003d30:	f8730020 	swi	r3, r19, 32
90003d34:	e873001c 	lwi	r3, r19, 28
90003d38:	e8930020 	lwi	r4, r19, 32
90003d3c:	f8830030 	swi	r4, r3, 48
90003d40:	e873001c 	lwi	r3, r19, 28
90003d44:	e8630030 	lwi	r3, r3, 48
90003d48:	bc230018 	bnei	r3, 24		// 90003d60
90003d4c:	e8b3001c 	lwi	r5, r19, 28
90003d50:	b9f40514 	brlid	r15, 1300	// 90004264 <vPortFree>
90003d54:	80000000 	or	r0, r0, r0
90003d58:	f813001c 	swi	r0, r19, 28
90003d5c:	b8000028 	bri	40		// 90003d84
90003d60:	e873001c 	lwi	r3, r19, 28
90003d64:	e8830030 	lwi	r4, r3, 48
90003d68:	e473002c 	lhui	r3, r19, 44
90003d6c:	64630402 	bslli	r3, r3, 2
90003d70:	10a40000 	addk	r5, r4, r0
90003d74:	30c000a5 	addik	r6, r0, 165
90003d78:	10e30000 	addk	r7, r3, r0
90003d7c:	b9f43d04 	brlid	r15, 15620	// 90007a80 <memset>
90003d80:	80000000 	or	r0, r0, r0
90003d84:	e873001c 	lwi	r3, r19, 28
90003d88:	e9e10000 	lwi	r15, r1, 0
90003d8c:	10330000 	addk	r1, r19, r0
90003d90:	ea610024 	lwi	r19, r1, 36
90003d94:	30210028 	addik	r1, r1, 40
90003d98:	b60f0008 	rtsd	r15, 8
90003d9c:	80000000 	or	r0, r0, r0

90003da0 <prvDeleteTCB>:
90003da0:	3021ffe0 	addik	r1, r1, -32
90003da4:	f9e10000 	swi	r15, r1, 0
90003da8:	fa61001c 	swi	r19, r1, 28
90003dac:	12610000 	addk	r19, r1, r0
90003db0:	f8b30024 	swi	r5, r19, 36
90003db4:	e8730024 	lwi	r3, r19, 36
90003db8:	e8630030 	lwi	r3, r3, 48
90003dbc:	10a30000 	addk	r5, r3, r0
90003dc0:	b9f404a4 	brlid	r15, 1188	// 90004264 <vPortFree>
90003dc4:	80000000 	or	r0, r0, r0
90003dc8:	e8b30024 	lwi	r5, r19, 36
90003dcc:	b9f40498 	brlid	r15, 1176	// 90004264 <vPortFree>
90003dd0:	80000000 	or	r0, r0, r0
90003dd4:	e9e10000 	lwi	r15, r1, 0
90003dd8:	10330000 	addk	r1, r19, r0
90003ddc:	ea61001c 	lwi	r19, r1, 28
90003de0:	30210020 	addik	r1, r1, 32
90003de4:	b60f0008 	rtsd	r15, 8
90003de8:	80000000 	or	r0, r0, r0

90003dec <xTaskGetCurrentTaskHandle>:
90003dec:	3021fff4 	addik	r1, r1, -12
90003df0:	fa610008 	swi	r19, r1, 8
90003df4:	12610000 	addk	r19, r1, r0
90003df8:	f8b30010 	swi	r5, r19, 16
90003dfc:	e8730010 	lwi	r3, r19, 16
90003e00:	64830402 	bslli	r4, r3, 2
90003e04:	b0009001 	imm	-28671
90003e08:	30605028 	addik	r3, r0, 20520
90003e0c:	10641800 	addk	r3, r4, r3
90003e10:	e8630000 	lwi	r3, r3, 0
90003e14:	f8730004 	swi	r3, r19, 4
90003e18:	e8730004 	lwi	r3, r19, 4
90003e1c:	10330000 	addk	r1, r19, r0
90003e20:	ea610008 	lwi	r19, r1, 8
90003e24:	3021000c 	addik	r1, r1, 12
90003e28:	b60f0008 	rtsd	r15, 8
90003e2c:	80000000 	or	r0, r0, r0

90003e30 <xTaskGetSchedulerState>:
90003e30:	3021fff4 	addik	r1, r1, -12
90003e34:	fa610008 	swi	r19, r1, 8
90003e38:	12610000 	addk	r19, r1, r0
90003e3c:	b0009001 	imm	-28671
90003e40:	e8603d0c 	lwi	r3, r0, 15628
90003e44:	bc23000c 	bnei	r3, 12		// 90003e50
90003e48:	f8130004 	swi	r0, r19, 4
90003e4c:	b8000024 	bri	36		// 90003e70
90003e50:	b0009001 	imm	-28671
90003e54:	e8603d10 	lwi	r3, r0, 15632
90003e58:	bc230010 	bnei	r3, 16		// 90003e68
90003e5c:	30600001 	addik	r3, r0, 1
90003e60:	f8730004 	swi	r3, r19, 4
90003e64:	b800000c 	bri	12		// 90003e70
90003e68:	30600002 	addik	r3, r0, 2
90003e6c:	f8730004 	swi	r3, r19, 4
90003e70:	e8730004 	lwi	r3, r19, 4
90003e74:	10330000 	addk	r1, r19, r0
90003e78:	ea610008 	lwi	r19, r1, 8
90003e7c:	3021000c 	addik	r1, r1, 12
90003e80:	b60f0008 	rtsd	r15, 8
90003e84:	80000000 	or	r0, r0, r0

90003e88 <vTaskPriorityInherit>:
90003e88:	3021ffd0 	addik	r1, r1, -48
90003e8c:	f9e10000 	swi	r15, r1, 0
90003e90:	fa61002c 	swi	r19, r1, 44
90003e94:	12610000 	addk	r19, r1, r0
90003e98:	f8b30034 	swi	r5, r19, 52
90003e9c:	e8730034 	lwi	r3, r19, 52
90003ea0:	f8730028 	swi	r3, r19, 40
90003ea4:	f8130024 	swi	r0, r19, 36
90003ea8:	30600002 	addik	r3, r0, 2
90003eac:	f8730020 	swi	r3, r19, 32
90003eb0:	f813001c 	swi	r0, r19, 28
90003eb4:	f8130024 	swi	r0, r19, 36
90003eb8:	b800008c 	bri	140		// 90003f44
90003ebc:	e8730028 	lwi	r3, r19, 40
90003ec0:	e8a3002c 	lwi	r5, r3, 44
90003ec4:	e8730024 	lwi	r3, r19, 36
90003ec8:	64830402 	bslli	r4, r3, 2
90003ecc:	b0009001 	imm	-28671
90003ed0:	30605028 	addik	r3, r0, 20520
90003ed4:	10641800 	addk	r3, r4, r3
90003ed8:	e8630000 	lwi	r3, r3, 0
90003edc:	e863002c 	lwi	r3, r3, 44
90003ee0:	16432803 	cmpu	r18, r3, r5
90003ee4:	bcb20054 	bgei	r18, 84		// 90003f38
90003ee8:	e8730024 	lwi	r3, r19, 36
90003eec:	64830402 	bslli	r4, r3, 2
90003ef0:	b0009001 	imm	-28671
90003ef4:	30605028 	addik	r3, r0, 20520
90003ef8:	10641800 	addk	r3, r4, r3
90003efc:	e8630000 	lwi	r3, r3, 0
90003f00:	e883002c 	lwi	r4, r3, 44
90003f04:	e873001c 	lwi	r3, r19, 28
90003f08:	16441803 	cmpu	r18, r4, r3
90003f0c:	bcb2002c 	bgei	r18, 44		// 90003f38
90003f10:	e8730024 	lwi	r3, r19, 36
90003f14:	64830402 	bslli	r4, r3, 2
90003f18:	b0009001 	imm	-28671
90003f1c:	30605028 	addik	r3, r0, 20520
90003f20:	10641800 	addk	r3, r4, r3
90003f24:	e8630000 	lwi	r3, r3, 0
90003f28:	e863002c 	lwi	r3, r3, 44
90003f2c:	f873001c 	swi	r3, r19, 28
90003f30:	e8730024 	lwi	r3, r19, 36
90003f34:	f8730020 	swi	r3, r19, 32
90003f38:	e8730024 	lwi	r3, r19, 36
90003f3c:	30630001 	addik	r3, r3, 1
90003f40:	f8730024 	swi	r3, r19, 36
90003f44:	e8730024 	lwi	r3, r19, 36
90003f48:	22400001 	addi	r18, r0, 1
90003f4c:	16439003 	cmpu	r18, r3, r18
90003f50:	bcb2ff6c 	bgei	r18, -148		// 90003ebc
90003f54:	e8730020 	lwi	r3, r19, 32
90003f58:	22400001 	addi	r18, r0, 1
90003f5c:	16439003 	cmpu	r18, r3, r18
90003f60:	bc520114 	blti	r18, 276		// 90004074
90003f64:	e8730020 	lwi	r3, r19, 32
90003f68:	64830402 	bslli	r4, r3, 2
90003f6c:	b0009001 	imm	-28671
90003f70:	30605028 	addik	r3, r0, 20520
90003f74:	10641800 	addk	r3, r4, r3
90003f78:	e8630000 	lwi	r3, r3, 0
90003f7c:	e863002c 	lwi	r3, r3, 44
90003f80:	34830008 	rsubik	r4, r3, 8
90003f84:	e8730028 	lwi	r3, r19, 40
90003f88:	f8830018 	swi	r4, r3, 24
90003f8c:	e8730028 	lwi	r3, r19, 40
90003f90:	e8a30014 	lwi	r5, r3, 20
90003f94:	e8730028 	lwi	r3, r19, 40
90003f98:	e863002c 	lwi	r3, r3, 44
90003f9c:	60630014 	muli	r3, r3, 20
90003fa0:	10830000 	addk	r4, r3, r0
90003fa4:	b0009001 	imm	-28671
90003fa8:	30604e60 	addik	r3, r0, 20064
90003fac:	10641800 	addk	r3, r4, r3
90003fb0:	16432800 	rsubk	r18, r3, r5
90003fb4:	bc32009c 	bnei	r18, 156		// 90004050
90003fb8:	e8730028 	lwi	r3, r19, 40
90003fbc:	30630004 	addik	r3, r3, 4
90003fc0:	10a30000 	addk	r5, r3, r0
90003fc4:	b9f4cbfc 	brlid	r15, -13316	// 90000bc0 <vListRemove>
90003fc8:	80000000 	or	r0, r0, r0
90003fcc:	e8730020 	lwi	r3, r19, 32
90003fd0:	64830402 	bslli	r4, r3, 2
90003fd4:	b0009001 	imm	-28671
90003fd8:	30605028 	addik	r3, r0, 20520
90003fdc:	10641800 	addk	r3, r4, r3
90003fe0:	e8630000 	lwi	r3, r3, 0
90003fe4:	e883002c 	lwi	r4, r3, 44
90003fe8:	e8730028 	lwi	r3, r19, 40
90003fec:	f883002c 	swi	r4, r3, 44
90003ff0:	e8730028 	lwi	r3, r19, 40
90003ff4:	e883002c 	lwi	r4, r3, 44
90003ff8:	b0009001 	imm	-28671
90003ffc:	e8603d08 	lwi	r3, r0, 15624
90004000:	16441803 	cmpu	r18, r4, r3
90004004:	bcb20014 	bgei	r18, 20		// 90004018
90004008:	e8730028 	lwi	r3, r19, 40
9000400c:	e863002c 	lwi	r3, r3, 44
90004010:	b0009001 	imm	-28671
90004014:	f8603d08 	swi	r3, r0, 15624
90004018:	e8730028 	lwi	r3, r19, 40
9000401c:	e863002c 	lwi	r3, r3, 44
90004020:	60630014 	muli	r3, r3, 20
90004024:	10830000 	addk	r4, r3, r0
90004028:	b0009001 	imm	-28671
9000402c:	30604e60 	addik	r3, r0, 20064
90004030:	10841800 	addk	r4, r4, r3
90004034:	e8730028 	lwi	r3, r19, 40
90004038:	30630004 	addik	r3, r3, 4
9000403c:	10a40000 	addk	r5, r4, r0
90004040:	10c30000 	addk	r6, r3, r0
90004044:	b9f4ca04 	brlid	r15, -13820	// 90000a48 <vListInsertEnd>
90004048:	80000000 	or	r0, r0, r0
9000404c:	b8000028 	bri	40		// 90004074
90004050:	e8730020 	lwi	r3, r19, 32
90004054:	64830402 	bslli	r4, r3, 2
90004058:	b0009001 	imm	-28671
9000405c:	30605028 	addik	r3, r0, 20520
90004060:	10641800 	addk	r3, r4, r3
90004064:	e8630000 	lwi	r3, r3, 0
90004068:	e883002c 	lwi	r4, r3, 44
9000406c:	e8730028 	lwi	r3, r19, 40
90004070:	f883002c 	swi	r4, r3, 44
90004074:	e9e10000 	lwi	r15, r1, 0
90004078:	10330000 	addk	r1, r19, r0
9000407c:	ea61002c 	lwi	r19, r1, 44
90004080:	30210030 	addik	r1, r1, 48
90004084:	b60f0008 	rtsd	r15, 8
90004088:	80000000 	or	r0, r0, r0

9000408c <vTaskPriorityDisinherit>:
9000408c:	3021ffdc 	addik	r1, r1, -36
90004090:	f9e10000 	swi	r15, r1, 0
90004094:	fa610020 	swi	r19, r1, 32
90004098:	12610000 	addk	r19, r1, r0
9000409c:	f8b30028 	swi	r5, r19, 40
900040a0:	e8730028 	lwi	r3, r19, 40
900040a4:	f873001c 	swi	r3, r19, 28
900040a8:	e8730028 	lwi	r3, r19, 40
900040ac:	bc0300b0 	beqi	r3, 176		// 9000415c
900040b0:	e873001c 	lwi	r3, r19, 28
900040b4:	e883002c 	lwi	r4, r3, 44
900040b8:	e873001c 	lwi	r3, r19, 28
900040bc:	e8630044 	lwi	r3, r3, 68
900040c0:	16432000 	rsubk	r18, r3, r4
900040c4:	bc120098 	beqi	r18, 152		// 9000415c
900040c8:	e873001c 	lwi	r3, r19, 28
900040cc:	30630004 	addik	r3, r3, 4
900040d0:	10a30000 	addk	r5, r3, r0
900040d4:	b9f4caec 	brlid	r15, -13588	// 90000bc0 <vListRemove>
900040d8:	80000000 	or	r0, r0, r0
900040dc:	e873001c 	lwi	r3, r19, 28
900040e0:	e8830044 	lwi	r4, r3, 68
900040e4:	e873001c 	lwi	r3, r19, 28
900040e8:	f883002c 	swi	r4, r3, 44
900040ec:	e873001c 	lwi	r3, r19, 28
900040f0:	e863002c 	lwi	r3, r3, 44
900040f4:	34830008 	rsubik	r4, r3, 8
900040f8:	e873001c 	lwi	r3, r19, 28
900040fc:	f8830018 	swi	r4, r3, 24
90004100:	e873001c 	lwi	r3, r19, 28
90004104:	e883002c 	lwi	r4, r3, 44
90004108:	b0009001 	imm	-28671
9000410c:	e8603d08 	lwi	r3, r0, 15624
90004110:	16441803 	cmpu	r18, r4, r3
90004114:	bcb20014 	bgei	r18, 20		// 90004128
90004118:	e873001c 	lwi	r3, r19, 28
9000411c:	e863002c 	lwi	r3, r3, 44
90004120:	b0009001 	imm	-28671
90004124:	f8603d08 	swi	r3, r0, 15624
90004128:	e873001c 	lwi	r3, r19, 28
9000412c:	e863002c 	lwi	r3, r3, 44
90004130:	60630014 	muli	r3, r3, 20
90004134:	10830000 	addk	r4, r3, r0
90004138:	b0009001 	imm	-28671
9000413c:	30604e60 	addik	r3, r0, 20064
90004140:	10841800 	addk	r4, r4, r3
90004144:	e873001c 	lwi	r3, r19, 28
90004148:	30630004 	addik	r3, r3, 4
9000414c:	10a40000 	addk	r5, r4, r0
90004150:	10c30000 	addk	r6, r3, r0
90004154:	b9f4c8f4 	brlid	r15, -14092	// 90000a48 <vListInsertEnd>
90004158:	80000000 	or	r0, r0, r0
9000415c:	e9e10000 	lwi	r15, r1, 0
90004160:	10330000 	addk	r1, r19, r0
90004164:	ea610020 	lwi	r19, r1, 32
90004168:	30210024 	addik	r1, r1, 36
9000416c:	b60f0008 	rtsd	r15, 8
90004170:	80000000 	or	r0, r0, r0

90004174 <pvGetMemoryMutexObject>:
90004174:	3021fff8 	addik	r1, r1, -8
90004178:	fa610004 	swi	r19, r1, 4
9000417c:	12610000 	addk	r19, r1, r0
90004180:	b0009001 	imm	-28671
90004184:	3060374c 	addik	r3, r0, 14156
90004188:	10330000 	addk	r1, r19, r0
9000418c:	ea610004 	lwi	r19, r1, 4
90004190:	30210008 	addik	r1, r1, 8
90004194:	b60f0008 	rtsd	r15, 8
90004198:	80000000 	or	r0, r0, r0

9000419c <pvPortMalloc>:
9000419c:	3021ffd0 	addik	r1, r1, -48
900041a0:	f9e10000 	swi	r15, r1, 0
900041a4:	fa610028 	swi	r19, r1, 40
900041a8:	fac1002c 	swi	r22, r1, 44
900041ac:	12610000 	addk	r19, r1, r0
900041b0:	f8b30034 	swi	r5, r19, 52
900041b4:	b9f407f8 	brlid	r15, 2040	// 900049ac <xPortAreInterruptsEnabled>
900041b8:	80000000 	or	r0, r0, r0
900041bc:	f8730020 	swi	r3, r19, 32
900041c0:	b9f40f30 	brlid	r15, 3888	// 900050f0 <xPortGetCurrentCPU>
900041c4:	80000000 	or	r0, r0, r0
900041c8:	f873001c 	swi	r3, r19, 28
900041cc:	ead3001c 	lwi	r22, r19, 28
900041d0:	b9f4ffa4 	brlid	r15, -92	// 90004174 <pvGetMemoryMutexObject>
900041d4:	80000000 	or	r0, r0, r0
900041d8:	10b60000 	addk	r5, r22, r0
900041dc:	10c30000 	addk	r6, r3, r0
900041e0:	b9f4ec04 	brlid	r15, -5116	// 90002de4 <vCPUAcquireMutex>
900041e4:	80000000 	or	r0, r0, r0
900041e8:	e8730020 	lwi	r3, r19, 32
900041ec:	aa430001 	xori	r18, r3, 1
900041f0:	bc320008 	bnei	r18, 8		// 900041f8
900041f4:	94110002 	msrclr	r0, 2
900041f8:	e8b30034 	lwi	r5, r19, 52
900041fc:	b9f42fc0 	brlid	r15, 12224	// 900071bc <malloc>
90004200:	80000000 	or	r0, r0, r0
90004204:	f8730024 	swi	r3, r19, 36
90004208:	e8730020 	lwi	r3, r19, 32
9000420c:	aa430001 	xori	r18, r3, 1
90004210:	bc320008 	bnei	r18, 8		// 90004218
90004214:	94100002 	msrset	r0, 2
90004218:	ead3001c 	lwi	r22, r19, 28
9000421c:	b9f4ff58 	brlid	r15, -168	// 90004174 <pvGetMemoryMutexObject>
90004220:	80000000 	or	r0, r0, r0
90004224:	10b60000 	addk	r5, r22, r0
90004228:	10c30000 	addk	r6, r3, r0
9000422c:	b9f4ee34 	brlid	r15, -4556	// 90003060 <vCPUReleaseMutex>
90004230:	80000000 	or	r0, r0, r0
90004234:	e8730024 	lwi	r3, r19, 36
90004238:	bc23000c 	bnei	r3, 12		// 90004244
9000423c:	b9f40fac 	brlid	r15, 4012	// 900051e8 <vApplicationMallocFailedHook>
90004240:	80000000 	or	r0, r0, r0
90004244:	e8730024 	lwi	r3, r19, 36
90004248:	e9e10000 	lwi	r15, r1, 0
9000424c:	10330000 	addk	r1, r19, r0
90004250:	ea610028 	lwi	r19, r1, 40
90004254:	eac1002c 	lwi	r22, r1, 44
90004258:	30210030 	addik	r1, r1, 48
9000425c:	b60f0008 	rtsd	r15, 8
90004260:	80000000 	or	r0, r0, r0

90004264 <vPortFree>:
90004264:	3021ffd4 	addik	r1, r1, -44
90004268:	f9e10000 	swi	r15, r1, 0
9000426c:	fa610024 	swi	r19, r1, 36
90004270:	fac10028 	swi	r22, r1, 40
90004274:	12610000 	addk	r19, r1, r0
90004278:	f8b30030 	swi	r5, r19, 48
9000427c:	e8730030 	lwi	r3, r19, 48
90004280:	bc030080 	beqi	r3, 128		// 90004300
90004284:	b9f40728 	brlid	r15, 1832	// 900049ac <xPortAreInterruptsEnabled>
90004288:	80000000 	or	r0, r0, r0
9000428c:	f8730020 	swi	r3, r19, 32
90004290:	b9f40e60 	brlid	r15, 3680	// 900050f0 <xPortGetCurrentCPU>
90004294:	80000000 	or	r0, r0, r0
90004298:	f873001c 	swi	r3, r19, 28
9000429c:	ead3001c 	lwi	r22, r19, 28
900042a0:	b9f4fed4 	brlid	r15, -300	// 90004174 <pvGetMemoryMutexObject>
900042a4:	80000000 	or	r0, r0, r0
900042a8:	10b60000 	addk	r5, r22, r0
900042ac:	10c30000 	addk	r6, r3, r0
900042b0:	b9f4eb34 	brlid	r15, -5324	// 90002de4 <vCPUAcquireMutex>
900042b4:	80000000 	or	r0, r0, r0
900042b8:	e8730020 	lwi	r3, r19, 32
900042bc:	aa430001 	xori	r18, r3, 1
900042c0:	bc320008 	bnei	r18, 8		// 900042c8
900042c4:	94110002 	msrclr	r0, 2
900042c8:	e8b30030 	lwi	r5, r19, 48
900042cc:	b9f42ec8 	brlid	r15, 11976	// 90007194 <free>
900042d0:	80000000 	or	r0, r0, r0
900042d4:	e8730020 	lwi	r3, r19, 32
900042d8:	aa430001 	xori	r18, r3, 1
900042dc:	bc320008 	bnei	r18, 8		// 900042e4
900042e0:	94100002 	msrset	r0, 2
900042e4:	ead3001c 	lwi	r22, r19, 28
900042e8:	b9f4fe8c 	brlid	r15, -372	// 90004174 <pvGetMemoryMutexObject>
900042ec:	80000000 	or	r0, r0, r0
900042f0:	10b60000 	addk	r5, r22, r0
900042f4:	10c30000 	addk	r6, r3, r0
900042f8:	b9f4ed68 	brlid	r15, -4760	// 90003060 <vCPUReleaseMutex>
900042fc:	80000000 	or	r0, r0, r0
90004300:	e9e10000 	lwi	r15, r1, 0
90004304:	10330000 	addk	r1, r19, r0
90004308:	ea610024 	lwi	r19, r1, 36
9000430c:	eac10028 	lwi	r22, r1, 40
90004310:	3021002c 	addik	r1, r1, 44
90004314:	b60f0008 	rtsd	r15, 8
90004318:	80000000 	or	r0, r0, r0

9000431c <pxPortInitialiseStack>:
9000431c:	3021ffe8 	addik	r1, r1, -24
90004320:	fa610014 	swi	r19, r1, 20
90004324:	12610000 	addk	r19, r1, r0
90004328:	f8b3001c 	swi	r5, r19, 28
9000432c:	f8d30020 	swi	r6, r19, 32
90004330:	f8f30024 	swi	r7, r19, 36
90004334:	f8130010 	swi	r0, r19, 16
90004338:	f813000c 	swi	r0, r19, 12
9000433c:	f8130008 	swi	r0, r19, 8
90004340:	e873001c 	lwi	r3, r19, 28
90004344:	3063ff44 	addik	r3, r3, -188
90004348:	f873001c 	swi	r3, r19, 28
9000434c:	e873001c 	lwi	r3, r19, 28
90004350:	f8730008 	swi	r3, r19, 8
90004354:	e8930008 	lwi	r4, r19, 8
90004358:	e8730020 	lwi	r3, r19, 32
9000435c:	f8640000 	swi	r3, r4, 0
90004360:	e873001c 	lwi	r3, r19, 28
90004364:	f873000c 	swi	r3, r19, 12
90004368:	e873000c 	lwi	r3, r19, 12
9000436c:	30630004 	addik	r3, r3, 4
90004370:	f873000c 	swi	r3, r19, 12
90004374:	30600001 	addik	r3, r0, 1
90004378:	f8730010 	swi	r3, r19, 16
9000437c:	b8000028 	bri	40		// 900043a4
90004380:	e8930010 	lwi	r4, r19, 16
90004384:	e873000c 	lwi	r3, r19, 12
90004388:	f8830000 	swi	r4, r3, 0
9000438c:	e873000c 	lwi	r3, r19, 12
90004390:	30630004 	addik	r3, r3, 4
90004394:	f873000c 	swi	r3, r19, 12
90004398:	e8730010 	lwi	r3, r19, 16
9000439c:	30630001 	addik	r3, r3, 1
900043a0:	f8730010 	swi	r3, r19, 16
900043a4:	e8730010 	lwi	r3, r19, 16
900043a8:	32400006 	addik	r18, r0, 6
900043ac:	16439001 	cmp	r18, r3, r18
900043b0:	bcb2ffd0 	bgei	r18, -48		// 90004380
900043b4:	e873001c 	lwi	r3, r19, 28
900043b8:	f873000c 	swi	r3, r19, 12
900043bc:	e873000c 	lwi	r3, r19, 12
900043c0:	3063001c 	addik	r3, r3, 28
900043c4:	f873000c 	swi	r3, r19, 12
900043c8:	f8130010 	swi	r0, r19, 16
900043cc:	b8000024 	bri	36		// 900043f0
900043d0:	e873000c 	lwi	r3, r19, 12
900043d4:	f8030000 	swi	r0, r3, 0
900043d8:	e873000c 	lwi	r3, r19, 12
900043dc:	30630004 	addik	r3, r3, 4
900043e0:	f873000c 	swi	r3, r19, 12
900043e4:	e8730010 	lwi	r3, r19, 16
900043e8:	30630001 	addik	r3, r3, 1
900043ec:	f8730010 	swi	r3, r19, 16
900043f0:	e8730010 	lwi	r3, r19, 16
900043f4:	3240001f 	addik	r18, r0, 31
900043f8:	16439001 	cmp	r18, r3, r18
900043fc:	bcb2ffd4 	bgei	r18, -44		// 900043d0
90004400:	94608001 	mfs	r3, rmsr
90004404:	f8730004 	swi	r3, r19, 4
90004408:	e8730004 	lwi	r3, r19, 4
9000440c:	a46305a0 	andi	r3, r3, 1440
90004410:	a0830002 	ori	r4, r3, 2
90004414:	e8730008 	lwi	r3, r19, 8
90004418:	f883001c 	swi	r4, r3, 28
9000441c:	e8730008 	lwi	r3, r19, 8
90004420:	f8030020 	swi	r0, r3, 32
90004424:	e8730024 	lwi	r3, r19, 36
90004428:	10830000 	addk	r4, r3, r0
9000442c:	e8730008 	lwi	r3, r19, 8
90004430:	f8830030 	swi	r4, r3, 48
90004434:	e8930008 	lwi	r4, r19, 8
90004438:	30600002 	addik	r3, r0, 2
9000443c:	f8640054 	swi	r3, r4, 84
90004440:	e8730008 	lwi	r3, r19, 8
90004444:	f8030068 	swi	r0, r3, 104
90004448:	e873001c 	lwi	r3, r19, 28
9000444c:	306300a0 	addik	r3, r3, 160
90004450:	10830000 	addk	r4, r3, r0
90004454:	e8730008 	lwi	r3, r19, 8
90004458:	f883009c 	swi	r4, r3, 156
9000445c:	e8730008 	lwi	r3, r19, 8
90004460:	f80300a0 	swi	r0, r3, 160
90004464:	e873001c 	lwi	r3, r19, 28
90004468:	f873000c 	swi	r3, r19, 12
9000446c:	e873000c 	lwi	r3, r19, 12
90004470:	30630280 	addik	r3, r3, 640
90004474:	f873000c 	swi	r3, r19, 12
90004478:	e873000c 	lwi	r3, r19, 12
9000447c:	30630010 	addik	r3, r3, 16
90004480:	f873000c 	swi	r3, r19, 12
90004484:	30600001 	addik	r3, r0, 1
90004488:	f8730010 	swi	r3, r19, 16
9000448c:	b8000028 	bri	40		// 900044b4
90004490:	e8930010 	lwi	r4, r19, 16
90004494:	e873000c 	lwi	r3, r19, 12
90004498:	f8830000 	swi	r4, r3, 0
9000449c:	e873000c 	lwi	r3, r19, 12
900044a0:	30630004 	addik	r3, r3, 4
900044a4:	f873000c 	swi	r3, r19, 12
900044a8:	e8730010 	lwi	r3, r19, 16
900044ac:	30630001 	addik	r3, r3, 1
900044b0:	f8730010 	swi	r3, r19, 16
900044b4:	e8730010 	lwi	r3, r19, 16
900044b8:	32400006 	addik	r18, r0, 6
900044bc:	16439001 	cmp	r18, r3, r18
900044c0:	bcb2ffd0 	bgei	r18, -48		// 90004490
900044c4:	e873001c 	lwi	r3, r19, 28
900044c8:	10330000 	addk	r1, r19, r0
900044cc:	ea610014 	lwi	r19, r1, 20
900044d0:	30210018 	addik	r1, r1, 24
900044d4:	b60f0008 	rtsd	r15, 8
900044d8:	80000000 	or	r0, r0, r0

900044dc <safePrint>:
900044dc:	3021ffec 	addik	r1, r1, -20
900044e0:	fa610010 	swi	r19, r1, 16
900044e4:	12610000 	addk	r19, r1, r0
900044e8:	f8b30018 	swi	r5, r19, 24
900044ec:	f813000c 	swi	r0, r19, 12
900044f0:	30600028 	addik	r3, r0, 40
900044f4:	f873000c 	swi	r3, r19, 12
900044f8:	f8130008 	swi	r0, r19, 8
900044fc:	b8000038 	bri	56		// 90004534
90004500:	e8730008 	lwi	r3, r19, 8
90004504:	10830000 	addk	r4, r3, r0
90004508:	e8730018 	lwi	r3, r19, 24
9000450c:	10641800 	addk	r3, r4, r3
90004510:	e0630000 	lbui	r3, r3, 0
90004514:	90630060 	sext8	r3, r3
90004518:	bc230010 	bnei	r3, 16		// 90004528
9000451c:	e8730008 	lwi	r3, r19, 8
90004520:	f873000c 	swi	r3, r19, 12
90004524:	b8000020 	bri	32		// 90004544
90004528:	e8730008 	lwi	r3, r19, 8
9000452c:	30630001 	addik	r3, r3, 1
90004530:	f8730008 	swi	r3, r19, 8
90004534:	e8730008 	lwi	r3, r19, 8
90004538:	32400027 	addik	r18, r0, 39
9000453c:	16439001 	cmp	r18, r3, r18
90004540:	bcb2ffc0 	bgei	r18, -64		// 90004500
90004544:	b0009001 	imm	-28671
90004548:	e860504c 	lwi	r3, r0, 20556
9000454c:	e463004c 	lhui	r3, r3, 76
90004550:	90630061 	sext16	r3, r3
90004554:	bc23fff0 	bnei	r3, -16		// 90004544
90004558:	f4130004 	shi	r0, r19, 4
9000455c:	f8130008 	swi	r0, r19, 8
90004560:	b8000074 	bri	116		// 900045d4
90004564:	e8730008 	lwi	r3, r19, 8
90004568:	10830000 	addk	r4, r3, r0
9000456c:	e8730018 	lwi	r3, r19, 24
90004570:	10641800 	addk	r3, r4, r3
90004574:	e0630000 	lbui	r3, r3, 0
90004578:	90630060 	sext8	r3, r3
9000457c:	bc030014 	beqi	r3, 20		// 90004590
90004580:	e4730004 	lhui	r3, r19, 4
90004584:	90630061 	sext16	r3, r3
90004588:	aa430001 	xori	r18, r3, 1
9000458c:	bc320010 	bnei	r18, 16		// 9000459c
90004590:	30600001 	addik	r3, r0, 1
90004594:	f4730004 	shi	r3, r19, 4
90004598:	b8000030 	bri	48		// 900045c8
9000459c:	b0009001 	imm	-28671
900045a0:	e8a0504c 	lwi	r5, r0, 20556
900045a4:	e8d30008 	lwi	r6, r19, 8
900045a8:	e8730008 	lwi	r3, r19, 8
900045ac:	10830000 	addk	r4, r3, r0
900045b0:	e8730018 	lwi	r3, r19, 24
900045b4:	10641800 	addk	r3, r4, r3
900045b8:	e0630000 	lbui	r3, r3, 0
900045bc:	90830060 	sext8	r4, r3
900045c0:	10662800 	addk	r3, r6, r5
900045c4:	f0830024 	sbi	r4, r3, 36
900045c8:	e8730008 	lwi	r3, r19, 8
900045cc:	30630001 	addik	r3, r3, 1
900045d0:	f8730008 	swi	r3, r19, 8
900045d4:	e8730008 	lwi	r3, r19, 8
900045d8:	32400027 	addik	r18, r0, 39
900045dc:	16439001 	cmp	r18, r3, r18
900045e0:	bcb2ff84 	bgei	r18, -124		// 90004564
900045e4:	b0009001 	imm	-28671
900045e8:	e860504c 	lwi	r3, r0, 20556
900045ec:	e893000c 	lwi	r4, r19, 12
900045f0:	90840061 	sext16	r4, r4
900045f4:	f483004c 	shi	r4, r3, 76
900045f8:	10330000 	addk	r1, r19, r0
900045fc:	ea610010 	lwi	r19, r1, 16
90004600:	30210014 	addik	r1, r1, 20
90004604:	b60f0008 	rtsd	r15, 8
90004608:	80000000 	or	r0, r0, r0

9000460c <DebugOutPos1>:
9000460c:	3021ffe0 	addik	r1, r1, -32
90004610:	f9e10000 	swi	r15, r1, 0
90004614:	fa61001c 	swi	r19, r1, 28
90004618:	12610000 	addk	r19, r1, r0
9000461c:	b0009001 	imm	-28671
90004620:	30a02f98 	addik	r5, r0, 12184
90004624:	b9f4feb8 	brlid	r15, -328	// 900044dc <safePrint>
90004628:	80000000 	or	r0, r0, r0
9000462c:	b800fff0 	bri	-16		// 9000461c

90004630 <DebugOutNeg1>:
90004630:	3021ffe0 	addik	r1, r1, -32
90004634:	f9e10000 	swi	r15, r1, 0
90004638:	fa61001c 	swi	r19, r1, 28
9000463c:	12610000 	addk	r19, r1, r0
90004640:	b0009001 	imm	-28671
90004644:	30a02f9c 	addik	r5, r0, 12188
90004648:	b9f4fe94 	brlid	r15, -364	// 900044dc <safePrint>
9000464c:	80000000 	or	r0, r0, r0
90004650:	b800fff0 	bri	-16		// 90004640

90004654 <DebugOutPos>:
90004654:	3021ffe0 	addik	r1, r1, -32
90004658:	f9e10000 	swi	r15, r1, 0
9000465c:	fa61001c 	swi	r19, r1, 28
90004660:	12610000 	addk	r19, r1, r0
90004664:	b0009001 	imm	-28671
90004668:	30a02f98 	addik	r5, r0, 12184
9000466c:	b9f41550 	brlid	r15, 5456	// 90005bbc <print>
90004670:	80000000 	or	r0, r0, r0
90004674:	e9e10000 	lwi	r15, r1, 0
90004678:	10330000 	addk	r1, r19, r0
9000467c:	ea61001c 	lwi	r19, r1, 28
90004680:	30210020 	addik	r1, r1, 32
90004684:	b60f0008 	rtsd	r15, 8
90004688:	80000000 	or	r0, r0, r0

9000468c <DebugOutNeg>:
9000468c:	3021ffe0 	addik	r1, r1, -32
90004690:	f9e10000 	swi	r15, r1, 0
90004694:	fa61001c 	swi	r19, r1, 28
90004698:	12610000 	addk	r19, r1, r0
9000469c:	b0009001 	imm	-28671
900046a0:	30a02f9c 	addik	r5, r0, 12188
900046a4:	b9f41518 	brlid	r15, 5400	// 90005bbc <print>
900046a8:	80000000 	or	r0, r0, r0
900046ac:	b800fff0 	bri	-16		// 9000469c

900046b0 <vTickISR>:
900046b0:	3021ffd8 	addik	r1, r1, -40
900046b4:	f9e10000 	swi	r15, r1, 0
900046b8:	fa610024 	swi	r19, r1, 36
900046bc:	12610000 	addk	r19, r1, r0
900046c0:	f8b3002c 	swi	r5, r19, 44
900046c4:	f0d30030 	sbi	r6, r19, 48
900046c8:	b9f40a28 	brlid	r15, 2600	// 900050f0 <xPortGetCurrentCPU>
900046cc:	80000000 	or	r0, r0, r0
900046d0:	f8730020 	swi	r3, r19, 32
900046d4:	e8730020 	lwi	r3, r19, 32
900046d8:	bc230060 	bnei	r3, 96		// 90004738
900046dc:	b9f4de0c 	brlid	r15, -8692	// 900024e8 <vTaskIncrementTick>
900046e0:	80000000 	or	r0, r0, r0
900046e4:	f813001c 	swi	r0, r19, 28
900046e8:	b8000040 	bri	64		// 90004728
900046ec:	e8b3001c 	lwi	r5, r19, 28
900046f0:	64850402 	bslli	r4, r5, 2
900046f4:	b0009001 	imm	-28671
900046f8:	30605044 	addik	r3, r0, 20548
900046fc:	10641800 	addk	r3, r4, r3
90004700:	e8630000 	lwi	r3, r3, 0
90004704:	30c30001 	addik	r6, r3, 1
90004708:	64850402 	bslli	r4, r5, 2
9000470c:	b0009001 	imm	-28671
90004710:	30605044 	addik	r3, r0, 20548
90004714:	10641800 	addk	r3, r4, r3
90004718:	f8c30000 	swi	r6, r3, 0
9000471c:	e873001c 	lwi	r3, r19, 28
90004720:	30630001 	addik	r3, r3, 1
90004724:	f873001c 	swi	r3, r19, 28
90004728:	e873001c 	lwi	r3, r19, 28
9000472c:	22400001 	addi	r18, r0, 1
90004730:	16439003 	cmpu	r18, r3, r18
90004734:	bcb2ffb8 	bgei	r18, -72		// 900046ec
90004738:	e9e10000 	lwi	r15, r1, 0
9000473c:	10330000 	addk	r1, r19, r0
90004740:	ea610024 	lwi	r19, r1, 36
90004744:	30210028 	addik	r1, r1, 40
90004748:	b60f0008 	rtsd	r15, 8
9000474c:	80000000 	or	r0, r0, r0

90004750 <xPortStartScheduler>:
90004750:	3021ffd4 	addik	r1, r1, -44
90004754:	f9e10000 	swi	r15, r1, 0
90004758:	fa610024 	swi	r19, r1, 36
9000475c:	fac10028 	swi	r22, r1, 40
90004760:	12610000 	addk	r19, r1, r0
90004764:	f813001c 	swi	r0, r19, 28
90004768:	f813001c 	swi	r0, r19, 28
9000476c:	b8000050 	bri	80		// 900047bc
90004770:	e873001c 	lwi	r3, r19, 28
90004774:	64830402 	bslli	r4, r3, 2
90004778:	b0009001 	imm	-28671
9000477c:	30605044 	addik	r3, r0, 20548
90004780:	10641800 	addk	r3, r4, r3
90004784:	f8030000 	swi	r0, r3, 0
90004788:	ead3001c 	lwi	r22, r19, 28
9000478c:	30a02000 	addik	r5, r0, 8192	// 2000 <_STACK_SIZE>
90004790:	b9f4fa0c 	brlid	r15, -1524	// 9000419c <pvPortMalloc>
90004794:	80000000 	or	r0, r0, r0
90004798:	10a30000 	addk	r5, r3, r0
9000479c:	64960402 	bslli	r4, r22, 2
900047a0:	b0009001 	imm	-28671
900047a4:	30605058 	addik	r3, r0, 20568
900047a8:	10641800 	addk	r3, r4, r3
900047ac:	f8a30000 	swi	r5, r3, 0
900047b0:	e873001c 	lwi	r3, r19, 28
900047b4:	30630001 	addik	r3, r3, 1
900047b8:	f873001c 	swi	r3, r19, 28
900047bc:	e873001c 	lwi	r3, r19, 28
900047c0:	22400001 	addi	r18, r0, 1
900047c4:	16439003 	cmpu	r18, r3, r18
900047c8:	bcb2ffa8 	bgei	r18, -88		// 90004770
900047cc:	b0009000 	imm	-28672
900047d0:	30600000 	addik	r3, r0, 0
900047d4:	b0009001 	imm	-28671
900047d8:	f860504c 	swi	r3, r0, 20556
900047dc:	b0009001 	imm	-28671
900047e0:	e860504c 	lwi	r3, r0, 20556
900047e4:	3063001c 	addik	r3, r3, 28
900047e8:	b0009001 	imm	-28671
900047ec:	f8605040 	swi	r3, r0, 20544
900047f0:	b0009001 	imm	-28671
900047f4:	e880504c 	lwi	r4, r0, 20556
900047f8:	b0009000 	imm	-28672
900047fc:	306046b0 	addik	r3, r0, 18096
90004800:	f864000c 	swi	r3, r4, 12
90004804:	b0009001 	imm	-28671
90004808:	e880504c 	lwi	r4, r0, 20556
9000480c:	b0009000 	imm	-28672
90004810:	30604bd0 	addik	r3, r0, 19408
90004814:	f8640010 	swi	r3, r4, 16
90004818:	b0009001 	imm	-28671
9000481c:	e880504c 	lwi	r4, r0, 20556
90004820:	b0009000 	imm	-28672
90004824:	30604d80 	addik	r3, r0, 19840
90004828:	f8640014 	swi	r3, r4, 20
9000482c:	b0009001 	imm	-28671
90004830:	e880504c 	lwi	r4, r0, 20556
90004834:	b0009001 	imm	-28671
90004838:	30605058 	addik	r3, r0, 20568
9000483c:	f8640018 	swi	r3, r4, 24
90004840:	f813001c 	swi	r0, r19, 28
90004844:	b8000024 	bri	36		// 90004868
90004848:	b0009001 	imm	-28671
9000484c:	e880504c 	lwi	r4, r0, 20556
90004850:	e873001c 	lwi	r3, r19, 28
90004854:	10632000 	addk	r3, r3, r4
90004858:	f0030024 	sbi	r0, r3, 36
9000485c:	e873001c 	lwi	r3, r19, 28
90004860:	30630001 	addik	r3, r3, 1
90004864:	f873001c 	swi	r3, r19, 28
90004868:	e873001c 	lwi	r3, r19, 28
9000486c:	22400027 	addi	r18, r0, 39
90004870:	16439003 	cmpu	r18, r3, r18
90004874:	bcb2ffd4 	bgei	r18, -44		// 90004848
90004878:	b0009001 	imm	-28671
9000487c:	e860504c 	lwi	r3, r0, 20556
90004880:	f403004c 	shi	r0, r3, 76
90004884:	f813001c 	swi	r0, r19, 28
90004888:	b800002c 	bri	44		// 900048b4
9000488c:	b0009001 	imm	-28671
90004890:	e880504c 	lwi	r4, r0, 20556
90004894:	e873001c 	lwi	r3, r19, 28
90004898:	64630402 	bslli	r3, r3, 2
9000489c:	10632000 	addk	r3, r3, r4
900048a0:	3063001c 	addik	r3, r3, 28
900048a4:	f8030000 	swi	r0, r3, 0
900048a8:	e873001c 	lwi	r3, r19, 28
900048ac:	30630001 	addik	r3, r3, 1
900048b0:	f873001c 	swi	r3, r19, 28
900048b4:	e873001c 	lwi	r3, r19, 28
900048b8:	22400001 	addi	r18, r0, 1
900048bc:	16439003 	cmpu	r18, r3, r18
900048c0:	bcb2ffcc 	bgei	r18, -52		// 9000488c
900048c4:	b0009001 	imm	-28671
900048c8:	e880504c 	lwi	r4, r0, 20556
900048cc:	b0009000 	imm	-28672
900048d0:	30606448 	addik	r3, r0, 25672
900048d4:	f864001c 	swi	r3, r4, 28
900048d8:	b0009001 	imm	-28671
900048dc:	e880504c 	lwi	r4, r0, 20556
900048e0:	30602f02 	addik	r3, r0, 12034
900048e4:	f8640008 	swi	r3, r4, 8
900048e8:	b0009001 	imm	-28671
900048ec:	30a02fa0 	addik	r5, r0, 12192
900048f0:	b9f412cc 	brlid	r15, 4812	// 90005bbc <print>
900048f4:	80000000 	or	r0, r0, r0
900048f8:	b0009001 	imm	-28671
900048fc:	e8602f94 	lwi	r3, r0, 12180
90004900:	b0009000 	imm	-28672
90004904:	30a046b0 	addik	r5, r0, 18096
90004908:	10c30000 	addk	r6, r3, r0
9000490c:	b9f406fc 	brlid	r15, 1788	// 90005008 <xPortSetupTickTimer>
90004910:	80000000 	or	r0, r0, r0
90004914:	bc230010 	bnei	r3, 16		// 90004924
90004918:	10600000 	addk	r3, r0, r0
9000491c:	f8730020 	swi	r3, r19, 32
90004920:	b8000014 	bri	20		// 90004934
90004924:	b9f4045c 	brlid	r15, 1116	// 90004d80 <vPortStartFirstTask>
90004928:	80000000 	or	r0, r0, r0
9000492c:	10600000 	addk	r3, r0, r0
90004930:	f8730020 	swi	r3, r19, 32
90004934:	e8730020 	lwi	r3, r19, 32
90004938:	e9e10000 	lwi	r15, r1, 0
9000493c:	10330000 	addk	r1, r19, r0
90004940:	ea610024 	lwi	r19, r1, 36
90004944:	eac10028 	lwi	r22, r1, 40
90004948:	3021002c 	addik	r1, r1, 44
9000494c:	b60f0008 	rtsd	r15, 8
90004950:	80000000 	or	r0, r0, r0

90004954 <vPortEndScheduler>:
90004954:	3021fff8 	addik	r1, r1, -8
90004958:	fa610004 	swi	r19, r1, 4
9000495c:	12610000 	addk	r19, r1, r0
90004960:	10330000 	addk	r1, r19, r0
90004964:	ea610004 	lwi	r19, r1, 4
90004968:	30210008 	addik	r1, r1, 8
9000496c:	b60f0008 	rtsd	r15, 8
90004970:	80000000 	or	r0, r0, r0

90004974 <vPortYield>:
90004974:	3021ffe0 	addik	r1, r1, -32
90004978:	f9e10000 	swi	r15, r1, 0
9000497c:	fa61001c 	swi	r19, r1, 28
90004980:	12610000 	addk	r19, r1, r0
90004984:	94110002 	msrclr	r0, 2
90004988:	b9f40378 	brlid	r15, 888	// 90004d00 <vPortYieldASM>
9000498c:	80000000 	or	r0, r0, r0
90004990:	94100002 	msrset	r0, 2
90004994:	e9e10000 	lwi	r15, r1, 0
90004998:	10330000 	addk	r1, r19, r0
9000499c:	ea61001c 	lwi	r19, r1, 28
900049a0:	30210020 	addik	r1, r1, 32
900049a4:	b60f0008 	rtsd	r15, 8
900049a8:	80000000 	or	r0, r0, r0

900049ac <xPortAreInterruptsEnabled>:
900049ac:	3021ffec 	addik	r1, r1, -20
900049b0:	fa610010 	swi	r19, r1, 16
900049b4:	12610000 	addk	r19, r1, r0
900049b8:	94608001 	mfs	r3, rmsr
900049bc:	f8730004 	swi	r3, r19, 4
900049c0:	e8730004 	lwi	r3, r19, 4
900049c4:	a4630002 	andi	r3, r3, 2
900049c8:	f873000c 	swi	r3, r19, 12
900049cc:	e873000c 	lwi	r3, r19, 12
900049d0:	aa430001 	xori	r18, r3, 1
900049d4:	bc320010 	bnei	r18, 16		// 900049e4
900049d8:	30600001 	addik	r3, r0, 1
900049dc:	f8730008 	swi	r3, r19, 8
900049e0:	b8000008 	bri	8		// 900049e8
900049e4:	f8130008 	swi	r0, r19, 8
900049e8:	e8730008 	lwi	r3, r19, 8
900049ec:	10330000 	addk	r1, r19, r0
900049f0:	ea610010 	lwi	r19, r1, 16
900049f4:	30210014 	addik	r1, r1, 20
900049f8:	b60f0008 	rtsd	r15, 8
900049fc:	80000000 	or	r0, r0, r0

90004a00 <vPortMemoryBarrier>:
90004a00:	3021fff8 	addik	r1, r1, -8
90004a04:	fa610004 	swi	r19, r1, 4
90004a08:	12610000 	addk	r19, r1, r0
90004a0c:	80000000 	or	r0, r0, r0
90004a10:	b8420004 	mbar	2
90004a14:	80000000 	or	r0, r0, r0
90004a18:	10330000 	addk	r1, r19, r0
90004a1c:	ea610004 	lwi	r19, r1, 4
90004a20:	30210008 	addik	r1, r1, 8
90004a24:	b60f0008 	rtsd	r15, 8
90004a28:	80000000 	or	r0, r0, r0
90004a2c:	
90004a30 <vPortRestoreContext>:
90004a30:	9640a000 	mfs	r18, rpvr0
90004a34:	a65200ff 	andi	r18, r18, 255
90004a38:	62520004 	muli	r18, r18, 4
90004a3c:	b0009001 	imm	-28671
90004a40:	e8725028 	lwi	r3, r18, 20520
90004a44:	e8230000 	lwi	r1, r3, 0
90004a48:	12610000 	addk	r19, r1, r0
90004a4c:	e8610068 	lwi	r3, r1, 104
90004a50:	b0009001 	imm	-28671
90004a54:	f8603760 	swi	r3, r0, 14176
90004a58:	9400c007 	mts	rfsr, r0
90004a5c:	e861001c 	lwi	r3, r1, 28
90004a60:	a4830002 	andi	r4, r3, 2
90004a64:	a463fffd 	andi	r3, r3, -3
90004a68:	9403c001 	mts	rmsr, r3
90004a6c:	ebe10098 	lwi	r31, r1, 152
90004a70:	ebc10094 	lwi	r30, r1, 148
90004a74:	eba10090 	lwi	r29, r1, 144
90004a78:	eb81008c 	lwi	r28, r1, 140
90004a7c:	eb610088 	lwi	r27, r1, 136
90004a80:	eb410084 	lwi	r26, r1, 132
90004a84:	eb210080 	lwi	r25, r1, 128
90004a88:	eb01007c 	lwi	r24, r1, 124
90004a8c:	eae10078 	lwi	r23, r1, 120
90004a90:	eac10074 	lwi	r22, r1, 116
90004a94:	eaa10070 	lwi	r21, r1, 112
90004a98:	ea81006c 	lwi	r20, r1, 108
90004a9c:	ea410064 	lwi	r18, r1, 100
90004aa0:	ea210060 	lwi	r17, r1, 96
90004aa4:	ea01005c 	lwi	r16, r1, 92
90004aa8:	e9e10058 	lwi	r15, r1, 88
90004aac:	e981004c 	lwi	r12, r1, 76
90004ab0:	e9610048 	lwi	r11, r1, 72
90004ab4:	e9410044 	lwi	r10, r1, 68
90004ab8:	e9210040 	lwi	r9, r1, 64
90004abc:	e901003c 	lwi	r8, r1, 60
90004ac0:	e8e10038 	lwi	r7, r1, 56
90004ac4:	e8c10034 	lwi	r6, r1, 52
90004ac8:	e8a10030 	lwi	r5, r1, 48
90004acc:	e8610028 	lwi	r3, r1, 40
90004ad0:	be240020 	bneid	r4, 32		// 90004af0
90004ad4:	e881002c 	lwi	r4, r1, 44
90004ad8:	e9c10000 	lwi	r14, r1, 0
90004adc:	10330000 	addk	r1, r19, r0
90004ae0:	ea61009c 	lwi	r19, r1, 156
90004ae4:	302100a0 	addik	r1, r1, 160
90004ae8:	b60e0008 	rtsd	r14, 8
90004aec:	80000000 	or	r0, r0, r0

90004af0 <__return_with_rtid>:
90004af0:	e9c10000 	lwi	r14, r1, 0
90004af4:	10330000 	addk	r1, r19, r0
90004af8:	ea61009c 	lwi	r19, r1, 156
90004afc:	302100a0 	addik	r1, r1, 160
90004b00:	b62e0000 	rtid	r14, 0
90004b04:	80000000 	or	r0, r0, r0
	...

90004b10 <vPortSaveContext>:
90004b10:	3021fff8 	addik	r1, r1, -8
90004b14:	f9e10000 	swi	r15, r1, 0
90004b18:	fa610004 	swi	r19, r1, 4
90004b1c:	12610000 	addk	r19, r1, r0
90004b20:	f8b3000c 	swi	r5, r19, 12
90004b24:	f8d30010 	swi	r6, r19, 16
90004b28:	f8f30014 	swi	r7, r19, 20
90004b2c:	f9130018 	swi	r8, r19, 24
90004b30:	f933001c 	swi	r9, r19, 28
90004b34:	f9530020 	swi	r10, r19, 32
90004b38:	f8c50000 	swi	r6, r5, 0
90004b3c:	f9650048 	swi	r11, r5, 72
90004b40:	f985004c 	swi	r12, r5, 76
90004b44:	fa450064 	swi	r18, r5, 100
90004b48:	fa85006c 	swi	r20, r5, 108
90004b4c:	faa50070 	swi	r21, r5, 112
90004b50:	fac50074 	swi	r22, r5, 116
90004b54:	fae50078 	swi	r23, r5, 120
90004b58:	fb05007c 	swi	r24, r5, 124
90004b5c:	fb250080 	swi	r25, r5, 128
90004b60:	fb450084 	swi	r26, r5, 132
90004b64:	fb650088 	swi	r27, r5, 136
90004b68:	fb85008c 	swi	r28, r5, 140
90004b6c:	fba50090 	swi	r29, r5, 144
90004b70:	fbc50094 	swi	r30, r5, 148
90004b74:	fbe50098 	swi	r31, r5, 152
90004b78:	94608001 	mfs	r3, rmsr
90004b7c:	be07000c 	beqid	r7, 12		// 90004b88
90004b80:	80000000 	or	r0, r0, r0
90004b84:	a0630002 	ori	r3, r3, 2
90004b88:	f865001c 	swi	r3, r5, 28
90004b8c:	f8050020 	swi	r0, r5, 32
90004b90:	f9050054 	swi	r8, r5, 84
90004b94:	b0009001 	imm	-28671
90004b98:	e8603760 	lwi	r3, r0, 14176
90004b9c:	f8650068 	swi	r3, r5, 104
90004ba0:	9640a000 	mfs	r18, rpvr0
90004ba4:	a65200ff 	andi	r18, r18, 255
90004ba8:	62520004 	muli	r18, r18, 4
90004bac:	b0009001 	imm	-28671
90004bb0:	e8725028 	lwi	r3, r18, 20520
90004bb4:	f8a30000 	swi	r5, r3, 0
90004bb8:	e9e10000 	lwi	r15, r1, 0
90004bbc:	10330000 	addk	r1, r19, r0
90004bc0:	ea610004 	lwi	r19, r1, 4
90004bc4:	30210008 	addik	r1, r1, 8
90004bc8:	b60f0008 	rtsd	r15, 8
90004bcc:	80000000 	or	r0, r0, r0

90004bd0 <_interrupt_handler>:
90004bd0:	3021ff60 	addik	r1, r1, -160
90004bd4:	f9c10000 	swi	r14, r1, 0
90004bd8:	fa61009c 	swi	r19, r1, 156
90004bdc:	12610000 	addk	r19, r1, r0
90004be0:	f8610028 	swi	r3, r1, 40
90004be4:	9460a000 	mfs	r3, rpvr0
90004be8:	a46300ff 	andi	r3, r3, 255
90004bec:	bc030010 	beqi	r3, 16		// 90004bfc
90004bf0:	60630004 	muli	r3, r3, 4
90004bf4:	b0009000 	imm	-28672
90004bf8:	ea430000 	lwi	r18, r3, 0

90004bfc <_no_bridge_swap>:
90004bfc:	9460a000 	mfs	r3, rpvr0
90004c00:	a46300ff 	andi	r3, r3, 255
90004c04:	bc230004 	bnei	r3, 4		// 90004c08

90004c08 <_no_trace>:
90004c08:	f881002c 	swi	r4, r1, 44
90004c0c:	f8a10030 	swi	r5, r1, 48
90004c10:	f8c10034 	swi	r6, r1, 52
90004c14:	f8e10038 	swi	r7, r1, 56
90004c18:	f901003c 	swi	r8, r1, 60
90004c1c:	f9210040 	swi	r9, r1, 64
90004c20:	f9410044 	swi	r10, r1, 68
90004c24:	f9e10058 	swi	r15, r1, 88
90004c28:	10a10000 	addk	r5, r1, r0
90004c2c:	10ce0000 	addk	r6, r14, r0
90004c30:	30e00001 	addik	r7, r0, 1
90004c34:	31000001 	addik	r8, r0, 1
90004c38:	b9f4fed8 	brlid	r15, -296	// 90004b10 <vPortSaveContext>
90004c3c:	80000000 	or	r0, r0, r0
90004c40:	b0008180 	imm	-32384
90004c44:	e8600000 	lwi	r3, r0, 0
90004c48:	a0630001 	ori	r3, r3, 1
90004c4c:	b0008180 	imm	-32384
90004c50:	f8600000 	swi	r3, r0, 0
90004c54:	9640a000 	mfs	r18, rpvr0
90004c58:	a65200ff 	andi	r18, r18, 255
90004c5c:	62520004 	muli	r18, r18, 4
90004c60:	b0009001 	imm	-28671
90004c64:	e8325058 	lwi	r1, r18, 20568
90004c68:	11e00000 	addk	r15, r0, r0
90004c6c:	3021ffdc 	addik	r1, r1, -36
90004c70:	f9e10000 	swi	r15, r1, 0
90004c74:	fa610020 	swi	r19, r1, 32
90004c78:	12610000 	addk	r19, r1, r0
90004c7c:	b0007fff 	imm	32767
90004c80:	3060ffff 	addik	r3, r0, -1
90004c84:	b0009001 	imm	-28671
90004c88:	f8603760 	swi	r3, r0, 14176
90004c8c:	30a00000 	addik	r5, r0, 0
90004c90:	b0009000 	imm	-28672
90004c94:	b9fc6448 	bralid	r15, 25672	// 90006448 <XIntc_DeviceInterruptHandler>
90004c98:	80000000 	or	r0, r0, r0

90004c9c <_no_device_handler>:
90004c9c:	9640a000 	mfs	r18, rpvr0
90004ca0:	a65200ff 	andi	r18, r18, 255
90004ca4:	62520004 	muli	r18, r18, 4
90004ca8:	b0009001 	imm	-28671
90004cac:	e8725044 	lwi	r3, r18, 20548
90004cb0:	bc030014 	beqi	r3, 20		// 90004cc4
90004cb4:	80000000 	or	r0, r0, r0
90004cb8:	b0009000 	imm	-28672
90004cbc:	b9fc26e0 	bralid	r15, 9952	// 900026e0 <vTaskSwitchContext>
90004cc0:	80000000 	or	r0, r0, r0

90004cc4 <__interrupt_handler_restore_context>:
90004cc4:	9640a000 	mfs	r18, rpvr0
90004cc8:	a65200ff 	andi	r18, r18, 255
90004ccc:	62520004 	muli	r18, r18, 4
90004cd0:	b0009001 	imm	-28671
90004cd4:	f8125044 	swi	r0, r18, 20548
90004cd8:	b0008180 	imm	-32384
90004cdc:	e8600000 	lwi	r3, r0, 0
90004ce0:	a463fffe 	andi	r3, r3, -2
90004ce4:	b0008180 	imm	-32384
90004ce8:	f8600000 	swi	r3, r0, 0
90004cec:	b9f4fd44 	brlid	r15, -700	// 90004a30 <vPortRestoreContext>
90004cf0:	80000000 	or	r0, r0, r0
	...

90004d00 <vPortYieldASM>:
90004d00:	3021ff60 	addik	r1, r1, -160
90004d04:	f9e10000 	swi	r15, r1, 0
90004d08:	fa61009c 	swi	r19, r1, 156
90004d0c:	12610000 	addk	r19, r1, r0
90004d10:	10a10000 	addk	r5, r1, r0
90004d14:	10cf0000 	addk	r6, r15, r0
90004d18:	10e00000 	addk	r7, r0, r0
90004d1c:	31000000 	addik	r8, r0, 0
90004d20:	b9f4fdf0 	brlid	r15, -528	// 90004b10 <vPortSaveContext>
90004d24:	80000000 	or	r0, r0, r0
90004d28:	9640a000 	mfs	r18, rpvr0
90004d2c:	a65200ff 	andi	r18, r18, 255
90004d30:	62520004 	muli	r18, r18, 4
90004d34:	b0009001 	imm	-28671
90004d38:	e8325058 	lwi	r1, r18, 20568
90004d3c:	11e00000 	addk	r15, r0, r0
90004d40:	3021ffdc 	addik	r1, r1, -36
90004d44:	f9e10000 	swi	r15, r1, 0
90004d48:	fa610020 	swi	r19, r1, 32
90004d4c:	12610000 	addk	r19, r1, r0
90004d50:	b0007fff 	imm	32767
90004d54:	3060ffff 	addik	r3, r0, -1
90004d58:	b0009001 	imm	-28671
90004d5c:	f8603760 	swi	r3, r0, 14176
90004d60:	b0009000 	imm	-28672
90004d64:	b9fc26e0 	bralid	r15, 9952	// 900026e0 <vTaskSwitchContext>
90004d68:	80000000 	or	r0, r0, r0
90004d6c:	b9f4fcc4 	brlid	r15, -828	// 90004a30 <vPortRestoreContext>
90004d70:	80000000 	or	r0, r0, r0
	...

90004d80 <vPortStartFirstTask>:
90004d80:	3021fff8 	addik	r1, r1, -8
90004d84:	f9e10000 	swi	r15, r1, 0
90004d88:	fa610004 	swi	r19, r1, 4
90004d8c:	12610000 	addk	r19, r1, r0
90004d90:	b9f4fca0 	brlid	r15, -864	// 90004a30 <vPortRestoreContext>
90004d94:	80000000 	or	r0, r0, r0
90004d98:	b0009001 	imm	-28671
90004d9c:	e8205058 	lwi	r1, r0, 20568
90004da0:	b0007fff 	imm	32767
90004da4:	3060ffff 	addik	r3, r0, -1
90004da8:	b0009001 	imm	-28671
90004dac:	f8603760 	swi	r3, r0, 14176
90004db0:	e9e10000 	lwi	r15, r1, 0
90004db4:	10330000 	addk	r1, r19, r0
90004db8:	ea610004 	lwi	r19, r1, 4
90004dbc:	30210008 	addik	r1, r1, 8
90004dc0:	b60f0008 	rtsd	r15, 8
90004dc4:	80000000 	or	r0, r0, r0

90004dc8 <xPortSetupHardware>:
90004dc8:	3021ffdc 	addik	r1, r1, -36
90004dcc:	f9e10000 	swi	r15, r1, 0
90004dd0:	fa610020 	swi	r19, r1, 32
90004dd4:	12610000 	addk	r19, r1, r0
90004dd8:	f813001c 	swi	r0, r19, 28
90004ddc:	b9f40ecc 	brlid	r15, 3788	// 90005ca8 <microblaze_invalidate_icache>
90004de0:	80000000 	or	r0, r0, r0
90004de4:	b9f40e64 	brlid	r15, 3684	// 90005c48 <microblaze_enable_icache>
90004de8:	80000000 	or	r0, r0, r0
90004dec:	b9f40e94 	brlid	r15, 3732	// 90005c80 <microblaze_invalidate_dcache>
90004df0:	80000000 	or	r0, r0, r0
90004df4:	b9f40e28 	brlid	r15, 3624	// 90005c1c <microblaze_enable_dcache>
90004df8:	80000000 	or	r0, r0, r0
90004dfc:	b9f40e38 	brlid	r15, 3640	// 90005c34 <microblaze_enable_exceptions>
90004e00:	80000000 	or	r0, r0, r0
90004e04:	b9f40028 	brlid	r15, 40	// 90004e2c <xPortSetupInterruptController>
90004e08:	80000000 	or	r0, r0, r0
90004e0c:	f873001c 	swi	r3, r19, 28
90004e10:	e873001c 	lwi	r3, r19, 28
90004e14:	e9e10000 	lwi	r15, r1, 0
90004e18:	10330000 	addk	r1, r19, r0
90004e1c:	ea610020 	lwi	r19, r1, 32
90004e20:	30210024 	addik	r1, r1, 36
90004e24:	b60f0008 	rtsd	r15, 8
90004e28:	80000000 	or	r0, r0, r0

90004e2c <xPortSetupInterruptController>:
90004e2c:	3021ffd8 	addik	r1, r1, -40
90004e30:	f9e10000 	swi	r15, r1, 0
90004e34:	fa610024 	swi	r19, r1, 36
90004e38:	12610000 	addk	r19, r1, r0
90004e3c:	f813001c 	swi	r0, r19, 28
90004e40:	b0009001 	imm	-28671
90004e44:	30a04f7c 	addik	r5, r0, 20348
90004e48:	30c00000 	addik	r6, r0, 0
90004e4c:	b9f414cc 	brlid	r15, 5324	// 90006318 <XIntc_Initialize>
90004e50:	80000000 	or	r0, r0, r0
90004e54:	f8730020 	swi	r3, r19, 32
90004e58:	e8730020 	lwi	r3, r19, 32
90004e5c:	bc230044 	bnei	r3, 68		// 90004ea0
90004e60:	b0009001 	imm	-28671
90004e64:	e8604f7c 	lwi	r3, r0, 20348
90004e68:	10a30000 	addk	r5, r3, r0
90004e6c:	30c00002 	addik	r6, r0, 2
90004e70:	b9f41768 	brlid	r15, 5992	// 900065d8 <XIntc_SetIntrSvcOption>
90004e74:	80000000 	or	r0, r0, r0
90004e78:	b0009001 	imm	-28671
90004e7c:	30a04f7c 	addik	r5, r0, 20348
90004e80:	30c00001 	addik	r6, r0, 1
90004e84:	b9f413ac 	brlid	r15, 5036	// 90006230 <XIntc_Start>
90004e88:	80000000 	or	r0, r0, r0
90004e8c:	f8730020 	swi	r3, r19, 32
90004e90:	e8730020 	lwi	r3, r19, 32
90004e94:	bc23000c 	bnei	r3, 12		// 90004ea0
90004e98:	30600001 	addik	r3, r0, 1
90004e9c:	f873001c 	swi	r3, r19, 28
90004ea0:	e873001c 	lwi	r3, r19, 28
90004ea4:	e9e10000 	lwi	r15, r1, 0
90004ea8:	10330000 	addk	r1, r19, r0
90004eac:	ea610024 	lwi	r19, r1, 36
90004eb0:	30210028 	addik	r1, r1, 40
90004eb4:	b60f0008 	rtsd	r15, 8
90004eb8:	80000000 	or	r0, r0, r0

90004ebc <vPortEnableInterrupt>:
90004ebc:	3021ffe0 	addik	r1, r1, -32
90004ec0:	f9e10000 	swi	r15, r1, 0
90004ec4:	fa61001c 	swi	r19, r1, 28
90004ec8:	12610000 	addk	r19, r1, r0
90004ecc:	f0b30024 	sbi	r5, r19, 36
90004ed0:	b0009001 	imm	-28671
90004ed4:	30a04f7c 	addik	r5, r0, 20348
90004ed8:	e0d30024 	lbui	r6, r19, 36
90004edc:	b9f41058 	brlid	r15, 4184	// 90005f34 <XIntc_Enable>
90004ee0:	80000000 	or	r0, r0, r0
90004ee4:	b9f40d7c 	brlid	r15, 3452	// 90005c60 <microblaze_enable_interrupts>
90004ee8:	80000000 	or	r0, r0, r0
90004eec:	e9e10000 	lwi	r15, r1, 0
90004ef0:	10330000 	addk	r1, r19, r0
90004ef4:	ea61001c 	lwi	r19, r1, 28
90004ef8:	30210020 	addik	r1, r1, 32
90004efc:	b60f0008 	rtsd	r15, 8
90004f00:	80000000 	or	r0, r0, r0

90004f04 <vPortDisableInterrupt>:
90004f04:	3021ffe0 	addik	r1, r1, -32
90004f08:	f9e10000 	swi	r15, r1, 0
90004f0c:	fa61001c 	swi	r19, r1, 28
90004f10:	12610000 	addk	r19, r1, r0
90004f14:	f0b30024 	sbi	r5, r19, 36
90004f18:	b0009001 	imm	-28671
90004f1c:	30a04f7c 	addik	r5, r0, 20348
90004f20:	e0d30024 	lbui	r6, r19, 36
90004f24:	b9f40f60 	brlid	r15, 3936	// 90005e84 <XIntc_Disable>
90004f28:	80000000 	or	r0, r0, r0
90004f2c:	e9e10000 	lwi	r15, r1, 0
90004f30:	10330000 	addk	r1, r19, r0
90004f34:	ea61001c 	lwi	r19, r1, 28
90004f38:	30210020 	addik	r1, r1, 32
90004f3c:	b60f0008 	rtsd	r15, 8
90004f40:	80000000 	or	r0, r0, r0

90004f44 <xPortConnectInterruptHandler>:
90004f44:	3021ffd8 	addik	r1, r1, -40
90004f48:	f9e10000 	swi	r15, r1, 0
90004f4c:	fa610024 	swi	r19, r1, 36
90004f50:	12610000 	addk	r19, r1, r0
90004f54:	f0b3002c 	sbi	r5, r19, 44
90004f58:	f8d30030 	swi	r6, r19, 48
90004f5c:	f8f30034 	swi	r7, r19, 52
90004f60:	f813001c 	swi	r0, r19, 28
90004f64:	b0009001 	imm	-28671
90004f68:	30a04f7c 	addik	r5, r0, 20348
90004f6c:	e0d3002c 	lbui	r6, r19, 44
90004f70:	e8f30030 	lwi	r7, r19, 48
90004f74:	e9130034 	lwi	r8, r19, 52
90004f78:	b9f41134 	brlid	r15, 4404	// 900060ac <XIntc_Connect>
90004f7c:	80000000 	or	r0, r0, r0
90004f80:	f8730020 	swi	r3, r19, 32
90004f84:	e8730020 	lwi	r3, r19, 32
90004f88:	bc230018 	bnei	r3, 24		// 90004fa0
90004f8c:	e0b3002c 	lbui	r5, r19, 44
90004f90:	b9f4ff2c 	brlid	r15, -212	// 90004ebc <vPortEnableInterrupt>
90004f94:	80000000 	or	r0, r0, r0
90004f98:	30600001 	addik	r3, r0, 1
90004f9c:	f873001c 	swi	r3, r19, 28
90004fa0:	e873001c 	lwi	r3, r19, 28
90004fa4:	e9e10000 	lwi	r15, r1, 0
90004fa8:	10330000 	addk	r1, r19, r0
90004fac:	ea610024 	lwi	r19, r1, 36
90004fb0:	30210028 	addik	r1, r1, 40
90004fb4:	b60f0008 	rtsd	r15, 8
90004fb8:	80000000 	or	r0, r0, r0

90004fbc <vPortDisconnectInterruptHandler>:
90004fbc:	3021ffe0 	addik	r1, r1, -32
90004fc0:	f9e10000 	swi	r15, r1, 0
90004fc4:	fa61001c 	swi	r19, r1, 28
90004fc8:	12610000 	addk	r19, r1, r0
90004fcc:	f0b30024 	sbi	r5, r19, 36
90004fd0:	e0b30024 	lbui	r5, r19, 36
90004fd4:	b9f4ff30 	brlid	r15, -208	// 90004f04 <vPortDisableInterrupt>
90004fd8:	80000000 	or	r0, r0, r0
90004fdc:	b0009001 	imm	-28671
90004fe0:	30a04f7c 	addik	r5, r0, 20348
90004fe4:	e0d30024 	lbui	r6, r19, 36
90004fe8:	b9f40ff8 	brlid	r15, 4088	// 90005fe0 <XIntc_Disconnect>
90004fec:	80000000 	or	r0, r0, r0
90004ff0:	e9e10000 	lwi	r15, r1, 0
90004ff4:	10330000 	addk	r1, r19, r0
90004ff8:	ea61001c 	lwi	r19, r1, 28
90004ffc:	30210020 	addik	r1, r1, 32
90005000:	b60f0008 	rtsd	r15, 8
90005004:	80000000 	or	r0, r0, r0

90005008 <xPortSetupTickTimer>:
90005008:	3021ffd8 	addik	r1, r1, -40
9000500c:	f9e10000 	swi	r15, r1, 0
90005010:	fa610024 	swi	r19, r1, 36
90005014:	12610000 	addk	r19, r1, r0
90005018:	f8b3002c 	swi	r5, r19, 44
9000501c:	f8d30030 	swi	r6, r19, 48
90005020:	f813001c 	swi	r0, r19, 28
90005024:	b0009001 	imm	-28671
90005028:	30a04f90 	addik	r5, r0, 20368
9000502c:	30c00000 	addik	r6, r0, 0
90005030:	b9f41b84 	brlid	r15, 7044	// 90006bb4 <XTmrCtr_Initialize>
90005034:	80000000 	or	r0, r0, r0
90005038:	f8730020 	swi	r3, r19, 32
9000503c:	e8730020 	lwi	r3, r19, 32
90005040:	bc230094 	bnei	r3, 148		// 900050d4
90005044:	b0009001 	imm	-28671
90005048:	30a04f90 	addik	r5, r0, 20368
9000504c:	10c00000 	addk	r6, r0, r0
90005050:	30e0002c 	addik	r7, r0, 44
90005054:	b9f41f54 	brlid	r15, 8020	// 90006fa8 <XTmrCtr_SetOptions>
90005058:	80000000 	or	r0, r0, r0
9000505c:	b0009001 	imm	-28671
90005060:	30a04f90 	addik	r5, r0, 20368
90005064:	10c00000 	addk	r6, r0, r0
90005068:	e8f30030 	lwi	r7, r19, 48
9000506c:	b9f41858 	brlid	r15, 6232	// 900068c4 <XTmrCtr_SetResetValue>
90005070:	80000000 	or	r0, r0, r0
90005074:	b0009001 	imm	-28671
90005078:	30a04f90 	addik	r5, r0, 20368
9000507c:	e8d3002c 	lwi	r6, r19, 44
90005080:	b0009001 	imm	-28671
90005084:	30e04f90 	addik	r7, r0, 20368
90005088:	b9f41d5c 	brlid	r15, 7516	// 90006de4 <XTmrCtr_SetHandler>
9000508c:	80000000 	or	r0, r0, r0
90005090:	10a00000 	addk	r5, r0, r0
90005094:	b0009000 	imm	-28672
90005098:	30c06ce0 	addik	r6, r0, 27872
9000509c:	b0009001 	imm	-28671
900050a0:	30e04f90 	addik	r7, r0, 20368
900050a4:	b9f4fea0 	brlid	r15, -352	// 90004f44 <xPortConnectInterruptHandler>
900050a8:	80000000 	or	r0, r0, r0
900050ac:	f873001c 	swi	r3, r19, 28
900050b0:	e873001c 	lwi	r3, r19, 28
900050b4:	bc030020 	beqi	r3, 32		// 900050d4
900050b8:	b0009001 	imm	-28671
900050bc:	30a04f90 	addik	r5, r0, 20368
900050c0:	10c00000 	addk	r6, r0, r0
900050c4:	b9f41a34 	brlid	r15, 6708	// 90006af8 <XTmrCtr_Start>
900050c8:	80000000 	or	r0, r0, r0
900050cc:	30600001 	addik	r3, r0, 1
900050d0:	f873001c 	swi	r3, r19, 28
900050d4:	e873001c 	lwi	r3, r19, 28
900050d8:	e9e10000 	lwi	r15, r1, 0
900050dc:	10330000 	addk	r1, r19, r0
900050e0:	ea610024 	lwi	r19, r1, 36
900050e4:	30210028 	addik	r1, r1, 40
900050e8:	b60f0008 	rtsd	r15, 8
900050ec:	80000000 	or	r0, r0, r0

900050f0 <xPortGetCurrentCPU>:
900050f0:	3021ffd8 	addik	r1, r1, -40
900050f4:	f9e10000 	swi	r15, r1, 0
900050f8:	fa610024 	swi	r19, r1, 36
900050fc:	12610000 	addk	r19, r1, r0
90005100:	30730020 	addik	r3, r19, 32
90005104:	10a30000 	addk	r5, r3, r0
90005108:	b9f40bf0 	brlid	r15, 3056	// 90005cf8 <microblaze_get_pvr>
9000510c:	80000000 	or	r0, r0, r0
90005110:	e8730020 	lwi	r3, r19, 32
90005114:	a46300ff 	andi	r3, r3, 255
90005118:	f873001c 	swi	r3, r19, 28
9000511c:	e873001c 	lwi	r3, r19, 28
90005120:	e9e10000 	lwi	r15, r1, 0
90005124:	10330000 	addk	r1, r19, r0
90005128:	ea610024 	lwi	r19, r1, 36
9000512c:	30210028 	addik	r1, r1, 40
90005130:	b60f0008 	rtsd	r15, 8
90005134:	80000000 	or	r0, r0, r0

90005138 <main>:
90005138:	3021ffdc 	addik	r1, r1, -36
9000513c:	f9e10000 	swi	r15, r1, 0
90005140:	fa610020 	swi	r19, r1, 32
90005144:	12610000 	addk	r19, r1, r0
90005148:	b0009000 	imm	-28672
9000514c:	30604bd0 	addik	r3, r0, 19408
90005150:	f873001c 	swi	r3, r19, 28
90005154:	30800010 	addik	r4, r0, 16	// 10 <_vector_interrupt>
90005158:	e873001c 	lwi	r3, r19, 28
9000515c:	b000ffff 	imm	-1
90005160:	a4630000 	andi	r3, r3, 0
90005164:	64630010 	bsrli	r3, r3, 16
90005168:	b000b000 	imm	-20480
9000516c:	a0630000 	ori	r3, r3, 0
90005170:	f8640000 	swi	r3, r4, 0
90005174:	30800014 	addik	r4, r0, 20
90005178:	e873001c 	lwi	r3, r19, 28
9000517c:	b0000000 	imm	0
90005180:	a463ffff 	andi	r3, r3, -1
90005184:	b000b808 	imm	-18424
90005188:	a0630000 	ori	r3, r3, 0
9000518c:	f8640000 	swi	r3, r4, 0
90005190:	b9f4fc38 	brlid	r15, -968	// 90004dc8 <xPortSetupHardware>
90005194:	80000000 	or	r0, r0, r0
90005198:	30a00001 	addik	r5, r0, 1
9000519c:	b9f4029c 	brlid	r15, 668	// 90005438 <vStartSyncTestTasks>
900051a0:	80000000 	or	r0, r0, r0
900051a4:	b9f4ce3c 	brlid	r15, -12740	// 90001fe0 <vTaskStartScheduler>
900051a8:	80000000 	or	r0, r0, r0
900051ac:	10600000 	addk	r3, r0, r0
900051b0:	e9e10000 	lwi	r15, r1, 0
900051b4:	10330000 	addk	r1, r19, r0
900051b8:	ea610020 	lwi	r19, r1, 32
900051bc:	30210024 	addik	r1, r1, 36
900051c0:	b60f0008 	rtsd	r15, 8
900051c4:	80000000 	or	r0, r0, r0

900051c8 <vApplicationIdleHook>:
900051c8:	3021fff8 	addik	r1, r1, -8
900051cc:	fa610004 	swi	r19, r1, 4
900051d0:	12610000 	addk	r19, r1, r0
900051d4:	10330000 	addk	r1, r19, r0
900051d8:	ea610004 	lwi	r19, r1, 4
900051dc:	30210008 	addik	r1, r1, 8
900051e0:	b60f0008 	rtsd	r15, 8
900051e4:	80000000 	or	r0, r0, r0

900051e8 <vApplicationMallocFailedHook>:
900051e8:	3021fff8 	addik	r1, r1, -8
900051ec:	fa610004 	swi	r19, r1, 4
900051f0:	12610000 	addk	r19, r1, r0
900051f4:	10330000 	addk	r1, r19, r0
900051f8:	ea610004 	lwi	r19, r1, 4
900051fc:	30210008 	addik	r1, r1, 8
90005200:	b60f0008 	rtsd	r15, 8
90005204:	80000000 	or	r0, r0, r0

90005208 <vApplicationStackOverflowHook>:
90005208:	3021fff8 	addik	r1, r1, -8
9000520c:	fa610004 	swi	r19, r1, 4
90005210:	12610000 	addk	r19, r1, r0
90005214:	10330000 	addk	r1, r19, r0
90005218:	ea610004 	lwi	r19, r1, 4
9000521c:	30210008 	addik	r1, r1, 8
90005220:	b60f0008 	rtsd	r15, 8
90005224:	80000000 	or	r0, r0, r0

90005228 <vStartConcTestTasks>:
90005228:	3021ffd4 	addik	r1, r1, -44
9000522c:	f9e10000 	swi	r15, r1, 0
90005230:	fa610028 	swi	r19, r1, 40
90005234:	12610000 	addk	r19, r1, r0
90005238:	f8b30030 	swi	r5, r19, 48
9000523c:	b0009001 	imm	-28671
90005240:	30602fc8 	addik	r3, r0, 12232
90005244:	f801001c 	swi	r0, r1, 28
90005248:	f8010020 	swi	r0, r1, 32
9000524c:	f8010024 	swi	r0, r1, 36
90005250:	10a00000 	addk	r5, r0, r0
90005254:	b0009000 	imm	-28672
90005258:	30c052fc 	addik	r6, r0, 21244
9000525c:	10e30000 	addk	r7, r3, r0
90005260:	31002000 	addik	r8, r0, 8192	// 2000 <_STACK_SIZE>
90005264:	11200000 	addk	r9, r0, r0
90005268:	e9530030 	lwi	r10, r19, 48
9000526c:	b9f4b9ec 	brlid	r15, -17940	// 90000c58 <xTaskGenericCreate>
90005270:	80000000 	or	r0, r0, r0
90005274:	b0009001 	imm	-28671
90005278:	30602fcc 	addik	r3, r0, 12236
9000527c:	f801001c 	swi	r0, r1, 28
90005280:	f8010020 	swi	r0, r1, 32
90005284:	f8010024 	swi	r0, r1, 36
90005288:	30a00003 	addik	r5, r0, 3
9000528c:	b0009000 	imm	-28672
90005290:	30c05380 	addik	r6, r0, 21376
90005294:	10e30000 	addk	r7, r3, r0
90005298:	31002000 	addik	r8, r0, 8192	// 2000 <_STACK_SIZE>
9000529c:	11200000 	addk	r9, r0, r0
900052a0:	e9530030 	lwi	r10, r19, 48
900052a4:	b9f4b9b4 	brlid	r15, -17996	// 90000c58 <xTaskGenericCreate>
900052a8:	80000000 	or	r0, r0, r0
900052ac:	b0009001 	imm	-28671
900052b0:	30602fd0 	addik	r3, r0, 12240
900052b4:	f801001c 	swi	r0, r1, 28
900052b8:	f8010020 	swi	r0, r1, 32
900052bc:	f8010024 	swi	r0, r1, 36
900052c0:	30a00003 	addik	r5, r0, 3
900052c4:	b0009000 	imm	-28672
900052c8:	30c053dc 	addik	r6, r0, 21468
900052cc:	10e30000 	addk	r7, r3, r0
900052d0:	31002000 	addik	r8, r0, 8192	// 2000 <_STACK_SIZE>
900052d4:	11200000 	addk	r9, r0, r0
900052d8:	e9530030 	lwi	r10, r19, 48
900052dc:	b9f4b97c 	brlid	r15, -18052	// 90000c58 <xTaskGenericCreate>
900052e0:	80000000 	or	r0, r0, r0
900052e4:	e9e10000 	lwi	r15, r1, 0
900052e8:	10330000 	addk	r1, r19, r0
900052ec:	ea610028 	lwi	r19, r1, 40
900052f0:	3021002c 	addik	r1, r1, 44
900052f4:	b60f0008 	rtsd	r15, 8
900052f8:	80000000 	or	r0, r0, r0

900052fc <vConcTestMonitor>:
900052fc:	3021ffdc 	addik	r1, r1, -36
90005300:	f9e10000 	swi	r15, r1, 0
90005304:	fa610020 	swi	r19, r1, 32
90005308:	12610000 	addk	r19, r1, r0
9000530c:	f8b30028 	swi	r5, r19, 40
90005310:	b0009001 	imm	-28671
90005314:	e8604fa4 	lwi	r3, r0, 20388
90005318:	b000000f 	imm	15
9000531c:	aa434240 	xori	r18, r3, 16960
90005320:	bc32003c 	bnei	r18, 60		// 9000535c
90005324:	b0009001 	imm	-28671
90005328:	e8604fa8 	lwi	r3, r0, 20392
9000532c:	b000000f 	imm	15
90005330:	aa434240 	xori	r18, r3, 16960
90005334:	bc320028 	bnei	r18, 40		// 9000535c
90005338:	b9f4d0d8 	brlid	r15, -12072	// 90002410 <xTaskGetTickCount>
9000533c:	80000000 	or	r0, r0, r0
90005340:	f873001c 	swi	r3, r19, 28
90005344:	b0009001 	imm	-28671
90005348:	30a02fd4 	addik	r5, r0, 12244
9000534c:	e8d3001c 	lwi	r6, r19, 28
90005350:	b9f427f0 	brlid	r15, 10224	// 90007b40 <printf>
90005354:	80000000 	or	r0, r0, r0
90005358:	b8000000 	bri	0		// 90005358
9000535c:	e8730028 	lwi	r3, r19, 40
90005360:	e8830004 	lwi	r4, r3, 4
90005364:	b0009001 	imm	-28671
90005368:	e8602fc4 	lwi	r3, r0, 12228
9000536c:	10a40000 	addk	r5, r4, r0
90005370:	10c30000 	addk	r6, r3, r0
90005374:	b9f4c3bc 	brlid	r15, -15428	// 90001730 <vTaskDelay>
90005378:	80000000 	or	r0, r0, r0
9000537c:	b800ff94 	bri	-108		// 90005310

90005380 <vConcTest0>:
90005380:	3021fff4 	addik	r1, r1, -12
90005384:	fa610008 	swi	r19, r1, 8
90005388:	12610000 	addk	r19, r1, r0
9000538c:	f8b30010 	swi	r5, r19, 16
90005390:	f8130004 	swi	r0, r19, 4
90005394:	b0009001 	imm	-28671
90005398:	f8004fa4 	swi	r0, r0, 20388
9000539c:	f8130004 	swi	r0, r19, 4
900053a0:	b8000024 	bri	36		// 900053c4
900053a4:	b0009001 	imm	-28671
900053a8:	e8604fa4 	lwi	r3, r0, 20388
900053ac:	30630001 	addik	r3, r3, 1
900053b0:	b0009001 	imm	-28671
900053b4:	f8604fa4 	swi	r3, r0, 20388
900053b8:	e8730004 	lwi	r3, r19, 4
900053bc:	30630001 	addik	r3, r3, 1
900053c0:	f8730004 	swi	r3, r19, 4
900053c4:	e8730004 	lwi	r3, r19, 4
900053c8:	b000000f 	imm	15
900053cc:	3240423f 	addik	r18, r0, 16959
900053d0:	16439001 	cmp	r18, r3, r18
900053d4:	bcb2ffd0 	bgei	r18, -48		// 900053a4
900053d8:	b8000000 	bri	0		// 900053d8

900053dc <vConcTest1>:
900053dc:	3021fff4 	addik	r1, r1, -12
900053e0:	fa610008 	swi	r19, r1, 8
900053e4:	12610000 	addk	r19, r1, r0
900053e8:	f8b30010 	swi	r5, r19, 16
900053ec:	f8130004 	swi	r0, r19, 4
900053f0:	b0009001 	imm	-28671
900053f4:	f8004fa8 	swi	r0, r0, 20392
900053f8:	f8130004 	swi	r0, r19, 4
900053fc:	b8000024 	bri	36		// 90005420
90005400:	b0009001 	imm	-28671
90005404:	e8604fa8 	lwi	r3, r0, 20392
90005408:	30630001 	addik	r3, r3, 1
9000540c:	b0009001 	imm	-28671
90005410:	f8604fa8 	swi	r3, r0, 20392
90005414:	e8730004 	lwi	r3, r19, 4
90005418:	30630001 	addik	r3, r3, 1
9000541c:	f8730004 	swi	r3, r19, 4
90005420:	e8730004 	lwi	r3, r19, 4
90005424:	b000000f 	imm	15
90005428:	3240423f 	addik	r18, r0, 16959
9000542c:	16439001 	cmp	r18, r3, r18
90005430:	bcb2ffd0 	bgei	r18, -48		// 90005400
90005434:	b8000000 	bri	0		// 90005434

90005438 <vStartSyncTestTasks>:
90005438:	3021ffd4 	addik	r1, r1, -44
9000543c:	f9e10000 	swi	r15, r1, 0
90005440:	fa610028 	swi	r19, r1, 40
90005444:	12610000 	addk	r19, r1, r0
90005448:	f8b30030 	swi	r5, r19, 48
9000544c:	b0009001 	imm	-28671
90005450:	30603018 	addik	r3, r0, 12312
90005454:	f801001c 	swi	r0, r1, 28
90005458:	f8010020 	swi	r0, r1, 32
9000545c:	f8010024 	swi	r0, r1, 36
90005460:	10a00000 	addk	r5, r0, r0
90005464:	b0009000 	imm	-28672
90005468:	30c05518 	addik	r6, r0, 21784
9000546c:	10e30000 	addk	r7, r3, r0
90005470:	31002000 	addik	r8, r0, 8192	// 2000 <_STACK_SIZE>
90005474:	11200000 	addk	r9, r0, r0
90005478:	e9530030 	lwi	r10, r19, 48
9000547c:	b9f4b7dc 	brlid	r15, -18468	// 90000c58 <xTaskGenericCreate>
90005480:	80000000 	or	r0, r0, r0
90005484:	b0009001 	imm	-28671
90005488:	3060301c 	addik	r3, r0, 12316
9000548c:	f801001c 	swi	r0, r1, 28
90005490:	f8010020 	swi	r0, r1, 32
90005494:	f8010024 	swi	r0, r1, 36
90005498:	10a00000 	addk	r5, r0, r0
9000549c:	b0009000 	imm	-28672
900054a0:	30c0588c 	addik	r6, r0, 22668
900054a4:	10e30000 	addk	r7, r3, r0
900054a8:	31002000 	addik	r8, r0, 8192	// 2000 <_STACK_SIZE>
900054ac:	b0009001 	imm	-28671
900054b0:	31204fbc 	addik	r9, r0, 20412
900054b4:	e9530030 	lwi	r10, r19, 48
900054b8:	b9f4b7a0 	brlid	r15, -18528	// 90000c58 <xTaskGenericCreate>
900054bc:	80000000 	or	r0, r0, r0
900054c0:	b0009001 	imm	-28671
900054c4:	30603020 	addik	r3, r0, 12320
900054c8:	b0009001 	imm	-28671
900054cc:	30804fc0 	addik	r4, r0, 20416
900054d0:	f801001c 	swi	r0, r1, 28
900054d4:	f8010020 	swi	r0, r1, 32
900054d8:	f8010024 	swi	r0, r1, 36
900054dc:	30a00001 	addik	r5, r0, 1
900054e0:	b0009000 	imm	-28672
900054e4:	30c059e0 	addik	r6, r0, 23008
900054e8:	10e30000 	addk	r7, r3, r0
900054ec:	31002000 	addik	r8, r0, 8192	// 2000 <_STACK_SIZE>
900054f0:	11240000 	addk	r9, r4, r0
900054f4:	e9530030 	lwi	r10, r19, 48
900054f8:	b9f4b760 	brlid	r15, -18592	// 90000c58 <xTaskGenericCreate>
900054fc:	80000000 	or	r0, r0, r0
90005500:	e9e10000 	lwi	r15, r1, 0
90005504:	10330000 	addk	r1, r19, r0
90005508:	ea610028 	lwi	r19, r1, 40
9000550c:	3021002c 	addik	r1, r1, 44
90005510:	b60f0008 	rtsd	r15, 8
90005514:	80000000 	or	r0, r0, r0

90005518 <vSyncTestMonitor>:
90005518:	3021ffc8 	addik	r1, r1, -56
9000551c:	f9e10000 	swi	r15, r1, 0
90005520:	fa610034 	swi	r19, r1, 52
90005524:	12610000 	addk	r19, r1, r0
90005528:	f8b3003c 	swi	r5, r19, 60
9000552c:	f8130020 	swi	r0, r19, 32
90005530:	b0009001 	imm	-28671
90005534:	e880302c 	lwi	r4, r0, 12332
90005538:	b0009001 	imm	-28671
9000553c:	e8a03030 	lwi	r5, r0, 12336
90005540:	f8930024 	swi	r4, r19, 36
90005544:	f8b30028 	swi	r5, r19, 40
90005548:	b0009001 	imm	-28671
9000554c:	e8803024 	lwi	r4, r0, 12324
90005550:	b0009001 	imm	-28671
90005554:	e8a03028 	lwi	r5, r0, 12328
90005558:	f893002c 	swi	r4, r19, 44
9000555c:	f8b30030 	swi	r5, r19, 48
90005560:	b0009001 	imm	-28671
90005564:	e8604fc4 	lwi	r3, r0, 20420
90005568:	f8730024 	swi	r3, r19, 36
9000556c:	b0009001 	imm	-28671
90005570:	e8604fc8 	lwi	r3, r0, 20424
90005574:	f8730028 	swi	r3, r19, 40
90005578:	f813001c 	swi	r0, r19, 28
9000557c:	f813001c 	swi	r0, r19, 28
90005580:	b8000128 	bri	296		// 900056a8
90005584:	e873001c 	lwi	r3, r19, 28
90005588:	64830402 	bslli	r4, r3, 2
9000558c:	3073001c 	addik	r3, r19, 28
90005590:	10641800 	addk	r3, r4, r3
90005594:	30630008 	addik	r3, r3, 8
90005598:	e8a30000 	lwi	r5, r3, 0
9000559c:	e873001c 	lwi	r3, r19, 28
900055a0:	64830402 	bslli	r4, r3, 2
900055a4:	3073001c 	addik	r3, r19, 28
900055a8:	10641800 	addk	r3, r4, r3
900055ac:	30630010 	addik	r3, r3, 16
900055b0:	e8630000 	lwi	r3, r3, 0
900055b4:	16451801 	cmp	r18, r5, r3
900055b8:	bcb200e4 	bgei	r18, 228		// 9000569c
900055bc:	e873001c 	lwi	r3, r19, 28
900055c0:	64830402 	bslli	r4, r3, 2
900055c4:	3073001c 	addik	r3, r19, 28
900055c8:	10641800 	addk	r3, r4, r3
900055cc:	30630008 	addik	r3, r3, 8
900055d0:	e8a30000 	lwi	r5, r3, 0
900055d4:	e873001c 	lwi	r3, r19, 28
900055d8:	64830402 	bslli	r4, r3, 2
900055dc:	3073001c 	addik	r3, r19, 28
900055e0:	10641800 	addk	r3, r4, r3
900055e4:	30630010 	addik	r3, r3, 16
900055e8:	e8630000 	lwi	r3, r3, 0
900055ec:	14632800 	rsubk	r3, r3, r5
900055f0:	32400063 	addik	r18, r0, 99
900055f4:	16439001 	cmp	r18, r3, r18
900055f8:	bcb200a4 	bgei	r18, 164		// 9000569c
900055fc:	e873001c 	lwi	r3, r19, 28
90005600:	bc230034 	bnei	r3, 52		// 90005634
90005604:	e873001c 	lwi	r3, r19, 28
90005608:	64830402 	bslli	r4, r3, 2
9000560c:	b0009001 	imm	-28671
90005610:	30604fc4 	addik	r3, r0, 20420
90005614:	10641800 	addk	r3, r4, r3
90005618:	e8630000 	lwi	r3, r3, 0
9000561c:	b0009001 	imm	-28671
90005620:	30a03034 	addik	r5, r0, 12340
90005624:	10c30000 	addk	r6, r3, r0
90005628:	b9f42518 	brlid	r15, 9496	// 90007b40 <printf>
9000562c:	80000000 	or	r0, r0, r0
90005630:	b800003c 	bri	60		// 9000566c
90005634:	e873001c 	lwi	r3, r19, 28
90005638:	aa430001 	xori	r18, r3, 1
9000563c:	bc320030 	bnei	r18, 48		// 9000566c
90005640:	e873001c 	lwi	r3, r19, 28
90005644:	64830402 	bslli	r4, r3, 2
90005648:	b0009001 	imm	-28671
9000564c:	30604fc4 	addik	r3, r0, 20420
90005650:	10641800 	addk	r3, r4, r3
90005654:	e8630000 	lwi	r3, r3, 0
90005658:	b0009001 	imm	-28671
9000565c:	30a03060 	addik	r5, r0, 12384
90005660:	10c30000 	addk	r6, r3, r0
90005664:	b9f424dc 	brlid	r15, 9436	// 90007b40 <printf>
90005668:	80000000 	or	r0, r0, r0
9000566c:	e8d3001c 	lwi	r6, r19, 28
90005670:	e873001c 	lwi	r3, r19, 28
90005674:	64830402 	bslli	r4, r3, 2
90005678:	3073001c 	addik	r3, r19, 28
9000567c:	10641800 	addk	r3, r4, r3
90005680:	30630008 	addik	r3, r3, 8
90005684:	e8a30000 	lwi	r5, r3, 0
90005688:	64860402 	bslli	r4, r6, 2
9000568c:	3073001c 	addik	r3, r19, 28
90005690:	10641800 	addk	r3, r4, r3
90005694:	30630010 	addik	r3, r3, 16
90005698:	f8a30000 	swi	r5, r3, 0
9000569c:	e873001c 	lwi	r3, r19, 28
900056a0:	30630001 	addik	r3, r3, 1
900056a4:	f873001c 	swi	r3, r19, 28
900056a8:	e873001c 	lwi	r3, r19, 28
900056ac:	32400001 	addik	r18, r0, 1
900056b0:	16439001 	cmp	r18, r3, r18
900056b4:	bcb2fed0 	bgei	r18, -304		// 90005584
900056b8:	b0009001 	imm	-28671
900056bc:	e8804fbc 	lwi	r4, r0, 20412
900056c0:	b0009001 	imm	-28671
900056c4:	e8603004 	lwi	r3, r0, 12292
900056c8:	16432000 	rsubk	r18, r3, r4
900056cc:	bc12001c 	beqi	r18, 28		// 900056e8
900056d0:	b0009001 	imm	-28671
900056d4:	e8804fc0 	lwi	r4, r0, 20416
900056d8:	b0009001 	imm	-28671
900056dc:	e8603004 	lwi	r3, r0, 12292
900056e0:	16432000 	rsubk	r18, r3, r4
900056e4:	bc320014 	bnei	r18, 20		// 900056f8
900056e8:	e8730020 	lwi	r3, r19, 32
900056ec:	30630001 	addik	r3, r3, 1
900056f0:	f8730020 	swi	r3, r19, 32
900056f4:	b8000134 	bri	308		// 90005828
900056f8:	b0009001 	imm	-28671
900056fc:	e8804fbc 	lwi	r4, r0, 20412
90005700:	b0009001 	imm	-28671
90005704:	e8603008 	lwi	r3, r0, 12296
90005708:	16432000 	rsubk	r18, r3, r4
9000570c:	bc32001c 	bnei	r18, 28		// 90005728
90005710:	b0009001 	imm	-28671
90005714:	e8804fc0 	lwi	r4, r0, 20416
90005718:	b0009001 	imm	-28671
9000571c:	e8603008 	lwi	r3, r0, 12296
90005720:	16432000 	rsubk	r18, r3, r4
90005724:	bc120064 	beqi	r18, 100		// 90005788
90005728:	b0009001 	imm	-28671
9000572c:	e8804fbc 	lwi	r4, r0, 20412
90005730:	b0009001 	imm	-28671
90005734:	e860300c 	lwi	r3, r0, 12300
90005738:	16432000 	rsubk	r18, r3, r4
9000573c:	bc32001c 	bnei	r18, 28		// 90005758
90005740:	b0009001 	imm	-28671
90005744:	e8804fc0 	lwi	r4, r0, 20416
90005748:	b0009001 	imm	-28671
9000574c:	e8603008 	lwi	r3, r0, 12296
90005750:	16432000 	rsubk	r18, r3, r4
90005754:	bc120034 	beqi	r18, 52		// 90005788
90005758:	b0009001 	imm	-28671
9000575c:	e8804fc0 	lwi	r4, r0, 20416
90005760:	b0009001 	imm	-28671
90005764:	e860300c 	lwi	r3, r0, 12300
90005768:	16432000 	rsubk	r18, r3, r4
9000576c:	bc320044 	bnei	r18, 68		// 900057b0
90005770:	b0009001 	imm	-28671
90005774:	e8804fbc 	lwi	r4, r0, 20412
90005778:	b0009001 	imm	-28671
9000577c:	e8603008 	lwi	r3, r0, 12296
90005780:	16432000 	rsubk	r18, r3, r4
90005784:	bc32002c 	bnei	r18, 44		// 900057b0
90005788:	f8130020 	swi	r0, r19, 32
9000578c:	b0009001 	imm	-28671
90005790:	e8603004 	lwi	r3, r0, 12292
90005794:	b0009001 	imm	-28671
90005798:	f8604fbc 	swi	r3, r0, 20412
9000579c:	b0009001 	imm	-28671
900057a0:	e8603004 	lwi	r3, r0, 12292
900057a4:	b0009001 	imm	-28671
900057a8:	f8604fc0 	swi	r3, r0, 20416
900057ac:	b800007c 	bri	124		// 90005828
900057b0:	b0009001 	imm	-28671
900057b4:	e8804fbc 	lwi	r4, r0, 20412
900057b8:	b0009001 	imm	-28671
900057bc:	e860300c 	lwi	r3, r0, 12300
900057c0:	16432000 	rsubk	r18, r3, r4
900057c4:	bc320064 	bnei	r18, 100		// 90005828
900057c8:	b0009001 	imm	-28671
900057cc:	e8804fc0 	lwi	r4, r0, 20416
900057d0:	b0009001 	imm	-28671
900057d4:	e860300c 	lwi	r3, r0, 12300
900057d8:	16432000 	rsubk	r18, r3, r4
900057dc:	bc32004c 	bnei	r18, 76		// 90005828
900057e0:	f8130020 	swi	r0, r19, 32
900057e4:	b0009001 	imm	-28671
900057e8:	e8604fb8 	lwi	r3, r0, 20408
900057ec:	bc230018 	bnei	r3, 24		// 90005804
900057f0:	b0009001 	imm	-28671
900057f4:	30a0308c 	addik	r5, r0, 12428
900057f8:	b9f403c4 	brlid	r15, 964	// 90005bbc <print>
900057fc:	80000000 	or	r0, r0, r0
90005800:	b8000024 	bri	36		// 90005824
90005804:	b0009001 	imm	-28671
90005808:	e8604fb8 	lwi	r3, r0, 20408
9000580c:	aa430001 	xori	r18, r3, 1
90005810:	bc320014 	bnei	r18, 20		// 90005824
90005814:	b0009001 	imm	-28671
90005818:	30a030cc 	addik	r5, r0, 12492
9000581c:	b9f403a0 	brlid	r15, 928	// 90005bbc <print>
90005820:	80000000 	or	r0, r0, r0
90005824:	b8000000 	bri	0		// 90005824
90005828:	b0009001 	imm	-28671
9000582c:	e8803014 	lwi	r4, r0, 12308
90005830:	e8730020 	lwi	r3, r19, 32
90005834:	16441801 	cmp	r18, r4, r3
90005838:	bc520014 	blti	r18, 20		// 9000584c
9000583c:	b0009001 	imm	-28671
90005840:	30a03120 	addik	r5, r0, 12576
90005844:	b9f40378 	brlid	r15, 888	// 90005bbc <print>
90005848:	80000000 	or	r0, r0, r0
9000584c:	b0009001 	imm	-28671
90005850:	e8604fb8 	lwi	r3, r0, 20408
90005854:	bc030014 	beqi	r3, 20		// 90005868
90005858:	b0009001 	imm	-28671
9000585c:	30a03144 	addik	r5, r0, 12612
90005860:	b9f4035c 	brlid	r15, 860	// 90005bbc <print>
90005864:	80000000 	or	r0, r0, r0
90005868:	e873003c 	lwi	r3, r19, 60
9000586c:	e8830004 	lwi	r4, r3, 4
90005870:	b0009001 	imm	-28671
90005874:	e8603010 	lwi	r3, r0, 12304
90005878:	10a40000 	addk	r5, r4, r0
9000587c:	10c30000 	addk	r6, r3, r0
90005880:	b9f4beb0 	brlid	r15, -16720	// 90001730 <vTaskDelay>
90005884:	80000000 	or	r0, r0, r0
90005888:	b800fcd8 	bri	-808		// 90005560

9000588c <vSyncTest0>:
9000588c:	3021ffd8 	addik	r1, r1, -40
90005890:	f9e10000 	swi	r15, r1, 0
90005894:	fa610024 	swi	r19, r1, 36
90005898:	12610000 	addk	r19, r1, r0
9000589c:	f8b3002c 	swi	r5, r19, 44
900058a0:	b0009001 	imm	-28671
900058a4:	f8004fc4 	swi	r0, r0, 20420
900058a8:	e873002c 	lwi	r3, r19, 44
900058ac:	e8630000 	lwi	r3, r3, 0
900058b0:	f8730020 	swi	r3, r19, 32
900058b4:	e8730020 	lwi	r3, r19, 32
900058b8:	f8030000 	swi	r0, r3, 0
900058bc:	b0009001 	imm	-28671
900058c0:	f8003768 	swi	r0, r0, 14184
900058c4:	b0009001 	imm	-28671
900058c8:	e8603768 	lwi	r3, r0, 14184
900058cc:	30630001 	addik	r3, r3, 1
900058d0:	b0009001 	imm	-28671
900058d4:	f8603768 	swi	r3, r0, 14184
900058d8:	b0009001 	imm	-28671
900058dc:	e8804fc4 	lwi	r4, r0, 20420
900058e0:	b0009001 	imm	-28671
900058e4:	e8603000 	lwi	r3, r0, 12288
900058e8:	16432000 	rsubk	r18, r3, r4
900058ec:	bc320018 	bnei	r18, 24		// 90005904
900058f0:	b0009001 	imm	-28671
900058f4:	e880300c 	lwi	r4, r0, 12300
900058f8:	e8730020 	lwi	r3, r19, 32
900058fc:	f8830000 	swi	r4, r3, 0
90005900:	b800fff0 	bri	-16		// 900058f0
90005904:	b0009001 	imm	-28671
90005908:	e8803008 	lwi	r4, r0, 12296
9000590c:	e8730020 	lwi	r3, r19, 32
90005910:	f8830000 	swi	r4, r3, 0
90005914:	e873002c 	lwi	r3, r19, 44
90005918:	e8830004 	lwi	r4, r3, 4
9000591c:	b0009001 	imm	-28671
90005920:	e8602ffc 	lwi	r3, r0, 12284
90005924:	10a40000 	addk	r5, r4, r0
90005928:	10c30000 	addk	r6, r3, r0
9000592c:	b9f4daf0 	brlid	r15, -9488	// 9000341c <vTaskAcquireNamedMutex>
90005930:	80000000 	or	r0, r0, r0
90005934:	b0009001 	imm	-28671
90005938:	e8604fb4 	lwi	r3, r0, 20404
9000593c:	10a30000 	addk	r5, r3, r0
90005940:	30c003e8 	addik	r6, r0, 1000
90005944:	b9f401e0 	brlid	r15, 480	// 90005b24 <__modsi3>
90005948:	80000000 	or	r0, r0, r0
9000594c:	bc030010 	beqi	r3, 16		// 9000595c
90005950:	30600001 	addik	r3, r0, 1
90005954:	b0009001 	imm	-28671
90005958:	f8604fb8 	swi	r3, r0, 20408
9000595c:	f813001c 	swi	r0, r19, 28
90005960:	b0009001 	imm	-28671
90005964:	e8803008 	lwi	r4, r0, 12296
90005968:	e8730020 	lwi	r3, r19, 32
9000596c:	f8830000 	swi	r4, r3, 0
90005970:	f813001c 	swi	r0, r19, 28
90005974:	b8000024 	bri	36		// 90005998
90005978:	b0009001 	imm	-28671
9000597c:	e8604fb4 	lwi	r3, r0, 20404
90005980:	30630001 	addik	r3, r3, 1
90005984:	b0009001 	imm	-28671
90005988:	f8604fb4 	swi	r3, r0, 20404
9000598c:	e873001c 	lwi	r3, r19, 28
90005990:	30630001 	addik	r3, r3, 1
90005994:	f873001c 	swi	r3, r19, 28
90005998:	e873001c 	lwi	r3, r19, 28
9000599c:	324003e7 	addik	r18, r0, 999
900059a0:	16439001 	cmp	r18, r3, r18
900059a4:	bcb2ffd4 	bgei	r18, -44		// 90005978
900059a8:	e873002c 	lwi	r3, r19, 44
900059ac:	e8830004 	lwi	r4, r3, 4
900059b0:	b0009001 	imm	-28671
900059b4:	e8602ffc 	lwi	r3, r0, 12284
900059b8:	10a40000 	addk	r5, r4, r0
900059bc:	10c30000 	addk	r6, r3, r0
900059c0:	b9f4dd28 	brlid	r15, -8920	// 900036e8 <vTaskReleaseNamedMutex>
900059c4:	80000000 	or	r0, r0, r0
900059c8:	b0009001 	imm	-28671
900059cc:	e8604fc4 	lwi	r3, r0, 20420
900059d0:	30630001 	addik	r3, r3, 1
900059d4:	b0009001 	imm	-28671
900059d8:	f8604fc4 	swi	r3, r0, 20420
900059dc:	b800fee8 	bri	-280		// 900058c4

900059e0 <vSyncTest1>:
900059e0:	3021ffd8 	addik	r1, r1, -40
900059e4:	f9e10000 	swi	r15, r1, 0
900059e8:	fa610024 	swi	r19, r1, 36
900059ec:	12610000 	addk	r19, r1, r0
900059f0:	f8b3002c 	swi	r5, r19, 44
900059f4:	b0009001 	imm	-28671
900059f8:	f8004fc8 	swi	r0, r0, 20424
900059fc:	e873002c 	lwi	r3, r19, 44
90005a00:	e8630000 	lwi	r3, r3, 0
90005a04:	f8730020 	swi	r3, r19, 32
90005a08:	e8730020 	lwi	r3, r19, 32
90005a0c:	f8030000 	swi	r0, r3, 0
90005a10:	b0009001 	imm	-28671
90005a14:	f800376c 	swi	r0, r0, 14188
90005a18:	b0009001 	imm	-28671
90005a1c:	e860376c 	lwi	r3, r0, 14188
90005a20:	30630001 	addik	r3, r3, 1
90005a24:	b0009001 	imm	-28671
90005a28:	f860376c 	swi	r3, r0, 14188
90005a2c:	b0009001 	imm	-28671
90005a30:	e8804fc8 	lwi	r4, r0, 20424
90005a34:	b0009001 	imm	-28671
90005a38:	e8603000 	lwi	r3, r0, 12288
90005a3c:	16432000 	rsubk	r18, r3, r4
90005a40:	bc320018 	bnei	r18, 24		// 90005a58
90005a44:	b0009001 	imm	-28671
90005a48:	e880300c 	lwi	r4, r0, 12300
90005a4c:	e8730020 	lwi	r3, r19, 32
90005a50:	f8830000 	swi	r4, r3, 0
90005a54:	b800fff0 	bri	-16		// 90005a44
90005a58:	b0009001 	imm	-28671
90005a5c:	e8803008 	lwi	r4, r0, 12296
90005a60:	e8730020 	lwi	r3, r19, 32
90005a64:	f8830000 	swi	r4, r3, 0
90005a68:	e873002c 	lwi	r3, r19, 44
90005a6c:	e8830004 	lwi	r4, r3, 4
90005a70:	b0009001 	imm	-28671
90005a74:	e8602ffc 	lwi	r3, r0, 12284
90005a78:	10a40000 	addk	r5, r4, r0
90005a7c:	10c30000 	addk	r6, r3, r0
90005a80:	b9f4d99c 	brlid	r15, -9828	// 9000341c <vTaskAcquireNamedMutex>
90005a84:	80000000 	or	r0, r0, r0
90005a88:	b0009001 	imm	-28671
90005a8c:	e8604fb4 	lwi	r3, r0, 20404
90005a90:	10a30000 	addk	r5, r3, r0
90005a94:	30c003e8 	addik	r6, r0, 1000
90005a98:	b9f4008c 	brlid	r15, 140	// 90005b24 <__modsi3>
90005a9c:	80000000 	or	r0, r0, r0
90005aa0:	bc030010 	beqi	r3, 16		// 90005ab0
90005aa4:	30600001 	addik	r3, r0, 1
90005aa8:	b0009001 	imm	-28671
90005aac:	f8604fb8 	swi	r3, r0, 20408
90005ab0:	f813001c 	swi	r0, r19, 28
90005ab4:	f813001c 	swi	r0, r19, 28
90005ab8:	b8000024 	bri	36		// 90005adc
90005abc:	b0009001 	imm	-28671
90005ac0:	e8604fb4 	lwi	r3, r0, 20404
90005ac4:	30630001 	addik	r3, r3, 1
90005ac8:	b0009001 	imm	-28671
90005acc:	f8604fb4 	swi	r3, r0, 20404
90005ad0:	e873001c 	lwi	r3, r19, 28
90005ad4:	30630001 	addik	r3, r3, 1
90005ad8:	f873001c 	swi	r3, r19, 28
90005adc:	e873001c 	lwi	r3, r19, 28
90005ae0:	324003e7 	addik	r18, r0, 999
90005ae4:	16439001 	cmp	r18, r3, r18
90005ae8:	bcb2ffd4 	bgei	r18, -44		// 90005abc
90005aec:	e873002c 	lwi	r3, r19, 44
90005af0:	e8830004 	lwi	r4, r3, 4
90005af4:	b0009001 	imm	-28671
90005af8:	e8602ffc 	lwi	r3, r0, 12284
90005afc:	10a40000 	addk	r5, r4, r0
90005b00:	10c30000 	addk	r6, r3, r0
90005b04:	b9f4dbe4 	brlid	r15, -9244	// 900036e8 <vTaskReleaseNamedMutex>
90005b08:	80000000 	or	r0, r0, r0
90005b0c:	b0009001 	imm	-28671
90005b10:	e8604fc8 	lwi	r3, r0, 20424
90005b14:	30630001 	addik	r3, r3, 1
90005b18:	b0009001 	imm	-28671
90005b1c:	f8604fc8 	swi	r3, r0, 20424
90005b20:	b800fef8 	bri	-264		// 90005a18

90005b24 <__modsi3>:
90005b24:	3021fff0 	addik	r1, r1, -16
90005b28:	fb810000 	swi	r28, r1, 0
90005b2c:	fba10004 	swi	r29, r1, 4
90005b30:	fbc10008 	swi	r30, r1, 8
90005b34:	fbe1000c 	swi	r31, r1, 12
90005b38:	bc060068 	beqi	r6, 104		// 90005ba0
90005b3c:	bc050064 	beqi	r5, 100		// 90005ba0
90005b40:	bea5000c 	bgeid	r5, 12		// 90005b4c
90005b44:	03850000 	add	r28, r5, r0
90005b48:	24a50000 	rsubi	r5, r5, 0
90005b4c:	bca60008 	bgei	r6, 8		// 90005b54
90005b50:	24c60000 	rsubi	r6, r6, 0
90005b54:	30600000 	addik	r3, r0, 0
90005b58:	33c00000 	addik	r30, r0, 0
90005b5c:	33a00020 	addik	r29, r0, 32	// 20 <_vector_hw_exception>
90005b60:	00a52800 	add	r5, r5, r5
90005b64:	bea5fffc 	bgeid	r5, -4		// 90005b60
90005b68:	33bdffff 	addik	r29, r29, -1
90005b6c:	00a52800 	add	r5, r5, r5
90005b70:	08631800 	addc	r3, r3, r3
90005b74:	07e61800 	rsub	r31, r6, r3
90005b78:	bc5f000c 	blti	r31, 12		// 90005b84
90005b7c:	8060f800 	or	r3, r0, r31
90005b80:	33de0001 	addik	r30, r30, 1
90005b84:	33bdffff 	addik	r29, r29, -1
90005b88:	bc1d000c 	beqi	r29, 12		// 90005b94
90005b8c:	03def000 	add	r30, r30, r30
90005b90:	b800ffdc 	bri	-36		// 90005b6c
90005b94:	bcbc0010 	bgei	r28, 16		// 90005ba4
90005b98:	b810000c 	brid	12		// 90005ba4
90005b9c:	24630000 	rsubi	r3, r3, 0
90005ba0:	80600000 	or	r3, r0, r0
90005ba4:	eb810000 	lwi	r28, r1, 0
90005ba8:	eba10004 	lwi	r29, r1, 4
90005bac:	ebc10008 	lwi	r30, r1, 8
90005bb0:	ebe1000c 	lwi	r31, r1, 12
90005bb4:	b60f0008 	rtsd	r15, 8
90005bb8:	30210010 	addik	r1, r1, 16

90005bbc <print>:
90005bbc:	3021ffe0 	addik	r1, r1, -32
90005bc0:	fa61001c 	swi	r19, r1, 28
90005bc4:	f9e10000 	swi	r15, r1, 0
90005bc8:	e0650000 	lbui	r3, r5, 0
90005bcc:	12650000 	addk	r19, r5, r0
90005bd0:	90a30060 	sext8	r5, r3
90005bd4:	be050020 	beqid	r5, 32		// 90005bf4
90005bd8:	e9e10000 	lwi	r15, r1, 0
90005bdc:	b9f400f4 	brlid	r15, 244	// 90005cd0 <outbyte>
90005be0:	32730001 	addik	r19, r19, 1
90005be4:	e0930000 	lbui	r4, r19, 0
90005be8:	90a40060 	sext8	r5, r4
90005bec:	be25fff0 	bneid	r5, -16		// 90005bdc
90005bf0:	e9e10000 	lwi	r15, r1, 0
90005bf4:	ea61001c 	lwi	r19, r1, 28
90005bf8:	b60f0008 	rtsd	r15, 8
90005bfc:	30210020 	addik	r1, r1, 32

90005c00 <_exception_handler>:
90005c00:	b6110000 	rtsd	r17, 0
90005c04:	80000000 	or	r0, r0, r0

90005c08 <_program_clean>:
90005c08:	b60f0008 	rtsd	r15, 8
90005c0c:	80000000 	or	r0, r0, r0

90005c10 <_program_init>:
90005c10:	b60f0008 	rtsd	r15, 8
90005c14:	80000000 	or	r0, r0, r0

90005c18 <_hw_exception_handler>:
90005c18:	b8000000 	bri	0		// 90005c18

90005c1c <microblaze_enable_dcache>:
90005c1c:	2021fffc 	addi	r1, r1, -4
90005c20:	95008001 	mfs	r8, rmsr
90005c24:	a1080080 	ori	r8, r8, 128
90005c28:	9408c001 	mts	rmsr, r8
90005c2c:	b60f0008 	rtsd	r15, 8
90005c30:	20210004 	addi	r1, r1, 4

90005c34 <microblaze_enable_exceptions>:
90005c34:	94808001 	mfs	r4, rmsr
90005c38:	a0840100 	ori	r4, r4, 256
90005c3c:	9404c001 	mts	rmsr, r4
90005c40:	b60f0008 	rtsd	r15, 8
90005c44:	80000000 	or	r0, r0, r0

90005c48 <microblaze_enable_icache>:
90005c48:	2021fffc 	addi	r1, r1, -4
90005c4c:	95008001 	mfs	r8, rmsr
90005c50:	a1080020 	ori	r8, r8, 32
90005c54:	9408c001 	mts	rmsr, r8
90005c58:	b60f0008 	rtsd	r15, 8
90005c5c:	20210004 	addi	r1, r1, 4

90005c60 <microblaze_enable_interrupts>:
90005c60:	2021fffc 	addi	r1, r1, -4
90005c64:	f9810000 	swi	r12, r1, 0
90005c68:	95808001 	mfs	r12, rmsr
90005c6c:	a18c0002 	ori	r12, r12, 2
90005c70:	940cc001 	mts	rmsr, r12
90005c74:	e9810000 	lwi	r12, r1, 0
90005c78:	b60f0008 	rtsd	r15, 8
90005c7c:	20210004 	addi	r1, r1, 4

90005c80 <microblaze_invalidate_dcache>:
90005c80:	a4a5fff0 	andi	r5, r5, -16
90005c84:	30c52000 	addik	r6, r5, 8192
90005c88:	a4c6fff0 	andi	r6, r6, -16

90005c8c <L_start>:
90005c8c:	90050064 	wdc	r5, r0
90005c90:	16453003 	cmpu	r18, r5, r6
90005c94:	bc72000c 	blei	r18, 12		// 90005ca0
90005c98:	b810fff4 	brid	-12		// 90005c8c
90005c9c:	30a50010 	addik	r5, r5, 16

90005ca0 <L_done>:
90005ca0:	b60f0008 	rtsd	r15, 8
90005ca4:	80000000 	or	r0, r0, r0

90005ca8 <microblaze_invalidate_icache>:
90005ca8:	a4a5fff0 	andi	r5, r5, -16
90005cac:	30c52000 	addik	r6, r5, 8192
90005cb0:	a4c6fff0 	andi	r6, r6, -16

90005cb4 <L_start>:
90005cb4:	90050068 	wic	r5, r0
90005cb8:	16453003 	cmpu	r18, r5, r6
90005cbc:	bc72000c 	blei	r18, 12		// 90005cc8
90005cc0:	b810fff4 	brid	-12		// 90005cb4
90005cc4:	30a50010 	addik	r5, r5, 16

90005cc8 <L_done>:
90005cc8:	b60f0008 	rtsd	r15, 8
90005ccc:	80000000 	or	r0, r0, r0

90005cd0 <outbyte>:
90005cd0:	90c50060 	sext8	r6, r5
90005cd4:	b0008400 	imm	-31744
90005cd8:	30a00000 	addik	r5, r0, 0
90005cdc:	3021ffe4 	addik	r1, r1, -28
90005ce0:	f9e10000 	swi	r15, r1, 0
90005ce4:	b9f40034 	brlid	r15, 52	// 90005d18 <XUartLite_SendByte>
90005ce8:	80000000 	or	r0, r0, r0
90005cec:	e9e10000 	lwi	r15, r1, 0
90005cf0:	b60f0008 	rtsd	r15, 8
90005cf4:	3021001c 	addik	r1, r1, 28

90005cf8 <microblaze_get_pvr>:
90005cf8:	be050018 	beqid	r5, 24		// 90005d10
90005cfc:	3060ffff 	addik	r3, r0, -1
90005d00:	f8050000 	swi	r0, r5, 0
90005d04:	9460a000 	mfs	r3, rpvr0
90005d08:	f8650000 	swi	r3, r5, 0
90005d0c:	10600000 	addk	r3, r0, r0
90005d10:	b60f0008 	rtsd	r15, 8
90005d14:	80000000 	or	r0, r0, r0

90005d18 <XUartLite_SendByte>:
90005d18:	a4c600ff 	andi	r6, r6, 255
90005d1c:	30850008 	addik	r4, r5, 8
90005d20:	e8640000 	lwi	r3, r4, 0
90005d24:	a4630008 	andi	r3, r3, 8
90005d28:	bc23fff8 	bnei	r3, -8		// 90005d20
90005d2c:	f8c50004 	swi	r6, r5, 4
90005d30:	b60f0008 	rtsd	r15, 8
90005d34:	80000000 	or	r0, r0, r0

90005d38 <XUartLite_RecvByte>:
90005d38:	30850008 	addik	r4, r5, 8
90005d3c:	e8640000 	lwi	r3, r4, 0
90005d40:	a4630001 	andi	r3, r3, 1
90005d44:	bc03fff8 	beqi	r3, -8		// 90005d3c
90005d48:	e8650000 	lwi	r3, r5, 0
90005d4c:	b60f0008 	rtsd	r15, 8
90005d50:	a46300ff 	andi	r3, r3, 255

90005d54 <XIntc_LookupConfig>:
90005d54:	b0009001 	imm	-28671
90005d58:	e4603770 	lhui	r3, r0, 14192
90005d5c:	b0000000 	imm	0
90005d60:	a4a5ffff 	andi	r5, r5, -1
90005d64:	b0009001 	imm	-28671
90005d68:	30803770 	addik	r4, r0, 14192
90005d6c:	16451800 	rsubk	r18, r5, r3
90005d70:	bc32000c 	bnei	r18, 12		// 90005d7c
90005d74:	b60f0008 	rtsd	r15, 8
90005d78:	10640000 	addk	r3, r4, r0
90005d7c:	10800000 	addk	r4, r0, r0
90005d80:	b60f0008 	rtsd	r15, 8
90005d84:	10640000 	addk	r3, r4, r0

90005d88 <StubHandler>:
90005d88:	10850000 	addk	r4, r5, r0
90005d8c:	3021ffe4 	addik	r1, r1, -28
90005d90:	f9e10000 	swi	r15, r1, 0
90005d94:	b0009001 	imm	-28671
90005d98:	30a03170 	addik	r5, r0, 12656
90005d9c:	be040028 	beqid	r4, 40		// 90005dc4
90005da0:	30c00231 	addik	r6, r0, 561
90005da4:	e864000c 	lwi	r3, r4, 12
90005da8:	b0009001 	imm	-28671
90005dac:	f800506c 	swi	r0, r0, 20588
90005db0:	30630001 	addik	r3, r3, 1
90005db4:	f864000c 	swi	r3, r4, 12
90005db8:	e9e10000 	lwi	r15, r1, 0
90005dbc:	b60f0008 	rtsd	r15, 8
90005dc0:	3021001c 	addik	r1, r1, 28
90005dc4:	b9f41354 	brlid	r15, 4948	// 90007118 <Xil_Assert>
90005dc8:	80000000 	or	r0, r0, r0
90005dcc:	30600001 	addik	r3, r0, 1
90005dd0:	b0009001 	imm	-28671
90005dd4:	f860506c 	swi	r3, r0, 20588
90005dd8:	b810ffe4 	brid	-28		// 90005dbc
90005ddc:	e9e10000 	lwi	r15, r1, 0

90005de0 <XIntc_Acknowledge>:
90005de0:	10850000 	addk	r4, r5, r0
90005de4:	3021ffe4 	addik	r1, r1, -28
90005de8:	a4e600ff 	andi	r7, r6, 255
90005dec:	f9e10000 	swi	r15, r1, 0
90005df0:	b0009001 	imm	-28671
90005df4:	30a03170 	addik	r5, r0, 12656
90005df8:	be040020 	beqid	r4, 32		// 90005e18
90005dfc:	30c0020d 	addik	r6, r0, 525
90005e00:	b0009001 	imm	-28671
90005e04:	f800506c 	swi	r0, r0, 20588
90005e08:	22400001 	addi	r18, r0, 1
90005e0c:	16479003 	cmpu	r18, r7, r18
90005e10:	beb20028 	bgeid	r18, 40		// 90005e38
90005e14:	30c0020e 	addik	r6, r0, 526
90005e18:	b9f41300 	brlid	r15, 4864	// 90007118 <Xil_Assert>
90005e1c:	80000000 	or	r0, r0, r0
90005e20:	e9e10000 	lwi	r15, r1, 0
90005e24:	30600001 	addik	r3, r0, 1
90005e28:	b0009001 	imm	-28671
90005e2c:	f860506c 	swi	r3, r0, 20588
90005e30:	b60f0008 	rtsd	r15, 8
90005e34:	3021001c 	addik	r1, r1, 28
90005e38:	e8640004 	lwi	r3, r4, 4
90005e3c:	b0009001 	imm	-28671
90005e40:	30a03170 	addik	r5, r0, 12656
90005e44:	b0009001 	imm	-28671
90005e48:	f800506c 	swi	r0, r0, 20588
90005e4c:	b0001111 	imm	4369
90005e50:	aa431111 	xori	r18, r3, 4369
90005e54:	be32ffc4 	bneid	r18, -60		// 90005e18
90005e58:	30c0020f 	addik	r6, r0, 527
90005e5c:	64670402 	bslli	r3, r7, 2
90005e60:	e8a40000 	lwi	r5, r4, 0
90005e64:	b0009001 	imm	-28671
90005e68:	e8835060 	lwi	r4, r3, 20576
90005e6c:	b0009001 	imm	-28671
90005e70:	f800506c 	swi	r0, r0, 20588
90005e74:	f885000c 	swi	r4, r5, 12
90005e78:	e9e10000 	lwi	r15, r1, 0
90005e7c:	b60f0008 	rtsd	r15, 8
90005e80:	3021001c 	addik	r1, r1, 28

90005e84 <XIntc_Disable>:
90005e84:	10850000 	addk	r4, r5, r0
90005e88:	3021ffe4 	addik	r1, r1, -28
90005e8c:	a4e600ff 	andi	r7, r6, 255
90005e90:	f9e10000 	swi	r15, r1, 0
90005e94:	b0009001 	imm	-28671
90005e98:	30a03170 	addik	r5, r0, 12656
90005e9c:	be040020 	beqid	r4, 32		// 90005ebc
90005ea0:	30c001e2 	addik	r6, r0, 482
90005ea4:	b0009001 	imm	-28671
90005ea8:	f800506c 	swi	r0, r0, 20588
90005eac:	22400001 	addi	r18, r0, 1
90005eb0:	16479003 	cmpu	r18, r7, r18
90005eb4:	beb20028 	bgeid	r18, 40		// 90005edc
90005eb8:	30c001e3 	addik	r6, r0, 483
90005ebc:	b9f4125c 	brlid	r15, 4700	// 90007118 <Xil_Assert>
90005ec0:	80000000 	or	r0, r0, r0
90005ec4:	e9e10000 	lwi	r15, r1, 0
90005ec8:	30600001 	addik	r3, r0, 1
90005ecc:	b0009001 	imm	-28671
90005ed0:	f860506c 	swi	r3, r0, 20588
90005ed4:	b60f0008 	rtsd	r15, 8
90005ed8:	3021001c 	addik	r1, r1, 28
90005edc:	e8640004 	lwi	r3, r4, 4
90005ee0:	b0009001 	imm	-28671
90005ee4:	30a03170 	addik	r5, r0, 12656
90005ee8:	b0009001 	imm	-28671
90005eec:	f800506c 	swi	r0, r0, 20588
90005ef0:	b0001111 	imm	4369
90005ef4:	aa431111 	xori	r18, r3, 4369
90005ef8:	be32ffc4 	bneid	r18, -60		// 90005ebc
90005efc:	30c001e4 	addik	r6, r0, 484
90005f00:	e8c40000 	lwi	r6, r4, 0
90005f04:	64a70402 	bslli	r5, r7, 2
90005f08:	b0009001 	imm	-28671
90005f0c:	f800506c 	swi	r0, r0, 20588
90005f10:	b0009001 	imm	-28671
90005f14:	e8655060 	lwi	r3, r5, 20576
90005f18:	e8860008 	lwi	r4, r6, 8
90005f1c:	a863ffff 	xori	r3, r3, -1
90005f20:	84841800 	and	r4, r4, r3
90005f24:	f8860008 	swi	r4, r6, 8
90005f28:	e9e10000 	lwi	r15, r1, 0
90005f2c:	b60f0008 	rtsd	r15, 8
90005f30:	3021001c 	addik	r1, r1, 28

90005f34 <XIntc_Enable>:
90005f34:	10e50000 	addk	r7, r5, r0
90005f38:	3021ffe4 	addik	r1, r1, -28
90005f3c:	a48600ff 	andi	r4, r6, 255
90005f40:	f9e10000 	swi	r15, r1, 0
90005f44:	b0009001 	imm	-28671
90005f48:	30a03170 	addik	r5, r0, 12656
90005f4c:	be070020 	beqid	r7, 32		// 90005f6c
90005f50:	30c001b5 	addik	r6, r0, 437
90005f54:	b0009001 	imm	-28671
90005f58:	f800506c 	swi	r0, r0, 20588
90005f5c:	22400001 	addi	r18, r0, 1
90005f60:	16449003 	cmpu	r18, r4, r18
90005f64:	beb20028 	bgeid	r18, 40		// 90005f8c
90005f68:	30c001b6 	addik	r6, r0, 438
90005f6c:	b9f411ac 	brlid	r15, 4524	// 90007118 <Xil_Assert>
90005f70:	80000000 	or	r0, r0, r0
90005f74:	e9e10000 	lwi	r15, r1, 0
90005f78:	30600001 	addik	r3, r0, 1
90005f7c:	b0009001 	imm	-28671
90005f80:	f860506c 	swi	r3, r0, 20588
90005f84:	b60f0008 	rtsd	r15, 8
90005f88:	3021001c 	addik	r1, r1, 28
90005f8c:	e8670004 	lwi	r3, r7, 4
90005f90:	b0009001 	imm	-28671
90005f94:	30a03170 	addik	r5, r0, 12656
90005f98:	b0009001 	imm	-28671
90005f9c:	f800506c 	swi	r0, r0, 20588
90005fa0:	b0001111 	imm	4369
90005fa4:	aa431111 	xori	r18, r3, 4369
90005fa8:	be32ffc4 	bneid	r18, -60		// 90005f6c
90005fac:	30c001b7 	addik	r6, r0, 439
90005fb0:	e8c70000 	lwi	r6, r7, 0
90005fb4:	64840402 	bslli	r4, r4, 2
90005fb8:	b0009001 	imm	-28671
90005fbc:	f800506c 	swi	r0, r0, 20588
90005fc0:	b0009001 	imm	-28671
90005fc4:	e8a45060 	lwi	r5, r4, 20576
90005fc8:	e8660008 	lwi	r3, r6, 8
90005fcc:	80632800 	or	r3, r3, r5
90005fd0:	f8660008 	swi	r3, r6, 8
90005fd4:	e9e10000 	lwi	r15, r1, 0
90005fd8:	b60f0008 	rtsd	r15, 8
90005fdc:	3021001c 	addik	r1, r1, 28

90005fe0 <XIntc_Disconnect>:
90005fe0:	11250000 	addk	r9, r5, r0
90005fe4:	3021ffe4 	addik	r1, r1, -28
90005fe8:	a50600ff 	andi	r8, r6, 255
90005fec:	f9e10000 	swi	r15, r1, 0
90005ff0:	b0009001 	imm	-28671
90005ff4:	30a03170 	addik	r5, r0, 12656
90005ff8:	be090020 	beqid	r9, 32		// 90006018
90005ffc:	30c00183 	addik	r6, r0, 387
90006000:	b0009001 	imm	-28671
90006004:	f800506c 	swi	r0, r0, 20588
90006008:	22400001 	addi	r18, r0, 1
9000600c:	16489003 	cmpu	r18, r8, r18
90006010:	beb20028 	bgeid	r18, 40		// 90006038
90006014:	30c00184 	addik	r6, r0, 388
90006018:	b9f41100 	brlid	r15, 4352	// 90007118 <Xil_Assert>
9000601c:	80000000 	or	r0, r0, r0
90006020:	e9e10000 	lwi	r15, r1, 0
90006024:	30600001 	addik	r3, r0, 1
90006028:	b0009001 	imm	-28671
9000602c:	f860506c 	swi	r3, r0, 20588
90006030:	b60f0008 	rtsd	r15, 8
90006034:	3021001c 	addik	r1, r1, 28
90006038:	e8690004 	lwi	r3, r9, 4
9000603c:	b0009001 	imm	-28671
90006040:	30a03170 	addik	r5, r0, 12656
90006044:	b0009001 	imm	-28671
90006048:	f800506c 	swi	r0, r0, 20588
9000604c:	b0001111 	imm	4369
90006050:	aa431111 	xori	r18, r3, 4369
90006054:	be32ffc4 	bneid	r18, -60		// 90006018
90006058:	30c00185 	addik	r6, r0, 389
9000605c:	e8e90000 	lwi	r7, r9, 0
90006060:	64a80402 	bslli	r5, r8, 2
90006064:	e8c90010 	lwi	r6, r9, 16
90006068:	b0009001 	imm	-28671
9000606c:	e8655060 	lwi	r3, r5, 20576
90006070:	e8870008 	lwi	r4, r7, 8
90006074:	64a80403 	bslli	r5, r8, 3
90006078:	a863ffff 	xori	r3, r3, -1
9000607c:	84841800 	and	r4, r4, r3
90006080:	b0009000 	imm	-28672
90006084:	30605d88 	addik	r3, r0, 23944
90006088:	10a53000 	addk	r5, r5, r6
9000608c:	f8870008 	swi	r4, r7, 8
90006090:	f9250014 	swi	r9, r5, 20
90006094:	f8650010 	swi	r3, r5, 16
90006098:	e9e10000 	lwi	r15, r1, 0
9000609c:	b0009001 	imm	-28671
900060a0:	f800506c 	swi	r0, r0, 20588
900060a4:	b60f0008 	rtsd	r15, 8
900060a8:	3021001c 	addik	r1, r1, 28

900060ac <XIntc_Connect>:
900060ac:	3021ffe4 	addik	r1, r1, -28
900060b0:	f9e10000 	swi	r15, r1, 0
900060b4:	be0500bc 	beqid	r5, 188		// 90006170
900060b8:	a4c600ff 	andi	r6, r6, 255
900060bc:	b0009001 	imm	-28671
900060c0:	f800506c 	swi	r0, r0, 20588
900060c4:	22400001 	addi	r18, r0, 1
900060c8:	16469003 	cmpu	r18, r6, r18
900060cc:	bcb20030 	bgei	r18, 48		// 900060fc
900060d0:	b0009001 	imm	-28671
900060d4:	30a03170 	addik	r5, r0, 12656
900060d8:	b9f41040 	brlid	r15, 4160	// 90007118 <Xil_Assert>
900060dc:	30c0015c 	addik	r6, r0, 348
900060e0:	30600001 	addik	r3, r0, 1
900060e4:	b0009001 	imm	-28671
900060e8:	f860506c 	swi	r3, r0, 20588
900060ec:	e9e10000 	lwi	r15, r1, 0
900060f0:	10600000 	addk	r3, r0, r0
900060f4:	b60f0008 	rtsd	r15, 8
900060f8:	3021001c 	addik	r1, r1, 28
900060fc:	bc070098 	beqi	r7, 152		// 90006194
90006100:	e8650004 	lwi	r3, r5, 4
90006104:	b0009001 	imm	-28671
90006108:	f800506c 	swi	r0, r0, 20588
9000610c:	b0001111 	imm	4369
90006110:	aa431111 	xori	r18, r3, 4369
90006114:	be120034 	beqid	r18, 52		// 90006148
90006118:	64660403 	bslli	r3, r6, 3
9000611c:	b0009001 	imm	-28671
90006120:	30a03170 	addik	r5, r0, 12656
90006124:	b9f40ff4 	brlid	r15, 4084	// 90007118 <Xil_Assert>
90006128:	30c0015e 	addik	r6, r0, 350
9000612c:	e9e10000 	lwi	r15, r1, 0
90006130:	30600001 	addik	r3, r0, 1
90006134:	b0009001 	imm	-28671
90006138:	f860506c 	swi	r3, r0, 20588
9000613c:	10600000 	addk	r3, r0, r0
90006140:	b60f0008 	rtsd	r15, 8
90006144:	3021001c 	addik	r1, r1, 28
90006148:	e8850010 	lwi	r4, r5, 16
9000614c:	b0009001 	imm	-28671
90006150:	f800506c 	swi	r0, r0, 20588
90006154:	10632000 	addk	r3, r3, r4
90006158:	f9030014 	swi	r8, r3, 20
9000615c:	f8e30010 	swi	r7, r3, 16
90006160:	e9e10000 	lwi	r15, r1, 0
90006164:	10600000 	addk	r3, r0, r0
90006168:	b60f0008 	rtsd	r15, 8
9000616c:	3021001c 	addik	r1, r1, 28
90006170:	b0009001 	imm	-28671
90006174:	30a03170 	addik	r5, r0, 12656
90006178:	b9f40fa0 	brlid	r15, 4000	// 90007118 <Xil_Assert>
9000617c:	30c0015b 	addik	r6, r0, 347
90006180:	30600001 	addik	r3, r0, 1
90006184:	b0009001 	imm	-28671
90006188:	f860506c 	swi	r3, r0, 20588
9000618c:	b810ff64 	brid	-156		// 900060f0
90006190:	e9e10000 	lwi	r15, r1, 0
90006194:	b0009001 	imm	-28671
90006198:	30a03170 	addik	r5, r0, 12656
9000619c:	b9f40f7c 	brlid	r15, 3964	// 90007118 <Xil_Assert>
900061a0:	30c0015d 	addik	r6, r0, 349
900061a4:	30600001 	addik	r3, r0, 1
900061a8:	b0009001 	imm	-28671
900061ac:	f860506c 	swi	r3, r0, 20588
900061b0:	b810ff40 	brid	-192		// 900060f0
900061b4:	e9e10000 	lwi	r15, r1, 0

900061b8 <XIntc_Stop>:
900061b8:	10850000 	addk	r4, r5, r0
900061bc:	3021ffe4 	addik	r1, r1, -28
900061c0:	f9e10000 	swi	r15, r1, 0
900061c4:	b0009001 	imm	-28671
900061c8:	30a03170 	addik	r5, r0, 12656
900061cc:	be040024 	beqid	r4, 36		// 900061f0
900061d0:	30c0012f 	addik	r6, r0, 303
900061d4:	e8640004 	lwi	r3, r4, 4
900061d8:	b0009001 	imm	-28671
900061dc:	f800506c 	swi	r0, r0, 20588
900061e0:	b0001111 	imm	4369
900061e4:	aa431111 	xori	r18, r3, 4369
900061e8:	be120028 	beqid	r18, 40		// 90006210
900061ec:	30c00130 	addik	r6, r0, 304
900061f0:	b9f40f28 	brlid	r15, 3880	// 90007118 <Xil_Assert>
900061f4:	80000000 	or	r0, r0, r0
900061f8:	e9e10000 	lwi	r15, r1, 0
900061fc:	30600001 	addik	r3, r0, 1
90006200:	b0009001 	imm	-28671
90006204:	f860506c 	swi	r3, r0, 20588
90006208:	b60f0008 	rtsd	r15, 8
9000620c:	3021001c 	addik	r1, r1, 28
90006210:	e8640000 	lwi	r3, r4, 0
90006214:	b0009001 	imm	-28671
90006218:	f800506c 	swi	r0, r0, 20588
9000621c:	f803001c 	swi	r0, r3, 28
90006220:	f8040008 	swi	r0, r4, 8
90006224:	e9e10000 	lwi	r15, r1, 0
90006228:	b60f0008 	rtsd	r15, 8
9000622c:	3021001c 	addik	r1, r1, 28

90006230 <XIntc_Start>:
90006230:	3021ffe4 	addik	r1, r1, -28
90006234:	f9e10000 	swi	r15, r1, 0
90006238:	be0500bc 	beqid	r5, 188		// 900062f4
9000623c:	a4c600ff 	andi	r6, r6, 255
90006240:	b0009001 	imm	-28671
90006244:	f800506c 	swi	r0, r0, 20588
90006248:	22400001 	addi	r18, r0, 1
9000624c:	16469003 	cmpu	r18, r6, r18
90006250:	bcb20030 	bgei	r18, 48		// 90006280
90006254:	b0009001 	imm	-28671
90006258:	30a03170 	addik	r5, r0, 12656
9000625c:	b9f40ebc 	brlid	r15, 3772	// 90007118 <Xil_Assert>
90006260:	30c00103 	addik	r6, r0, 259
90006264:	30600001 	addik	r3, r0, 1
90006268:	b0009001 	imm	-28671
9000626c:	f860506c 	swi	r3, r0, 20588
90006270:	e9e10000 	lwi	r15, r1, 0
90006274:	10600000 	addk	r3, r0, r0
90006278:	b60f0008 	rtsd	r15, 8
9000627c:	3021001c 	addik	r1, r1, 28
90006280:	e8650004 	lwi	r3, r5, 4
90006284:	b0009001 	imm	-28671
90006288:	f800506c 	swi	r0, r0, 20588
9000628c:	b0001111 	imm	4369
90006290:	aa431111 	xori	r18, r3, 4369
90006294:	bc120030 	beqi	r18, 48		// 900062c4
90006298:	b0009001 	imm	-28671
9000629c:	30a03170 	addik	r5, r0, 12656
900062a0:	b9f40e78 	brlid	r15, 3704	// 90007118 <Xil_Assert>
900062a4:	30c00104 	addik	r6, r0, 260
900062a8:	e9e10000 	lwi	r15, r1, 0
900062ac:	30600001 	addik	r3, r0, 1
900062b0:	b0009001 	imm	-28671
900062b4:	f860506c 	swi	r3, r0, 20588
900062b8:	10600000 	addk	r3, r0, r0
900062bc:	b60f0008 	rtsd	r15, 8
900062c0:	3021001c 	addik	r1, r1, 28
900062c4:	be26000c 	bneid	r6, 12		// 900062d0
900062c8:	30e00003 	addik	r7, r0, 3
900062cc:	30e00001 	addik	r7, r0, 1
900062d0:	b0002222 	imm	8738
900062d4:	30602222 	addik	r3, r0, 8738
900062d8:	e8850000 	lwi	r4, r5, 0
900062dc:	f8650008 	swi	r3, r5, 8
900062e0:	f8e4001c 	swi	r7, r4, 28
900062e4:	e9e10000 	lwi	r15, r1, 0
900062e8:	10600000 	addk	r3, r0, r0
900062ec:	b60f0008 	rtsd	r15, 8
900062f0:	3021001c 	addik	r1, r1, 28
900062f4:	b0009001 	imm	-28671
900062f8:	30a03170 	addik	r5, r0, 12656
900062fc:	b9f40e1c 	brlid	r15, 3612	// 90007118 <Xil_Assert>
90006300:	30c00101 	addik	r6, r0, 257
90006304:	30600001 	addik	r3, r0, 1
90006308:	b0009001 	imm	-28671
9000630c:	f860506c 	swi	r3, r0, 20588
90006310:	b810ff64 	brid	-156		// 90006274
90006314:	e9e10000 	lwi	r15, r1, 0

90006318 <XIntc_Initialize>:
90006318:	3021ffe0 	addik	r1, r1, -32
9000631c:	fa61001c 	swi	r19, r1, 28
90006320:	12650000 	addk	r19, r5, r0
90006324:	b0000000 	imm	0
90006328:	a4a6ffff 	andi	r5, r6, -1
9000632c:	be1300f8 	beqid	r19, 248		// 90006424
90006330:	f9e10000 	swi	r15, r1, 0
90006334:	e8730008 	lwi	r3, r19, 8
90006338:	b0009001 	imm	-28671
9000633c:	f800506c 	swi	r0, r0, 20588
90006340:	b0002222 	imm	8738
90006344:	aa432222 	xori	r18, r3, 8738
90006348:	be1200a8 	beqid	r18, 168		// 900063f0
9000634c:	30e00005 	addik	r7, r0, 5
90006350:	b9f4fa04 	brlid	r15, -1532	// 90005d54 <XIntc_LookupConfig>
90006354:	80000000 	or	r0, r0, r0
90006358:	10830000 	addk	r4, r3, r0
9000635c:	be030094 	beqid	r3, 148		// 900063f0
90006360:	30e00002 	addik	r7, r0, 2
90006364:	f8130004 	swi	r0, r19, 4
90006368:	f8130008 	swi	r0, r19, 8
9000636c:	e8c30004 	lwi	r6, r3, 4
90006370:	e8a30010 	lwi	r5, r3, 16
90006374:	30600001 	addik	r3, r0, 1
90006378:	f864000c 	swi	r3, r4, 12
9000637c:	f8930010 	swi	r4, r19, 16
90006380:	be050084 	beqid	r5, 132		// 90006404
90006384:	f8d30000 	swi	r6, r19, 0
90006388:	b0009000 	imm	-28672
9000638c:	aa457110 	xori	r18, r5, 28944
90006390:	bc120074 	beqi	r18, 116		// 90006404
90006394:	e8a40018 	lwi	r5, r4, 24
90006398:	30600001 	addik	r3, r0, 1
9000639c:	b0009001 	imm	-28671
900063a0:	f8605060 	swi	r3, r0, 20576
900063a4:	be050070 	beqid	r5, 112		// 90006414
900063a8:	fa640014 	swi	r19, r4, 20
900063ac:	b0009000 	imm	-28672
900063b0:	aa457110 	xori	r18, r5, 28944
900063b4:	bc120060 	beqi	r18, 96		// 90006414
900063b8:	30600002 	addik	r3, r0, 2
900063bc:	b0009001 	imm	-28671
900063c0:	f8605064 	swi	r3, r0, 20580
900063c4:	f806001c 	swi	r0, r6, 28
900063c8:	e8730000 	lwi	r3, r19, 0
900063cc:	fa64001c 	swi	r19, r4, 28
900063d0:	b0001111 	imm	4369
900063d4:	30801111 	addik	r4, r0, 4369
900063d8:	f8030008 	swi	r0, r3, 8
900063dc:	e8b30000 	lwi	r5, r19, 0
900063e0:	3060ffff 	addik	r3, r0, -1
900063e4:	10e00000 	addk	r7, r0, r0
900063e8:	f865000c 	swi	r3, r5, 12
900063ec:	f8930004 	swi	r4, r19, 4
900063f0:	10670000 	addk	r3, r7, r0
900063f4:	e9e10000 	lwi	r15, r1, 0
900063f8:	ea61001c 	lwi	r19, r1, 28
900063fc:	b60f0008 	rtsd	r15, 8
90006400:	30210020 	addik	r1, r1, 32
90006404:	b0009000 	imm	-28672
90006408:	30605d88 	addik	r3, r0, 23944
9000640c:	b810ff88 	brid	-120		// 90006394
90006410:	f8640010 	swi	r3, r4, 16
90006414:	b0009000 	imm	-28672
90006418:	30605d88 	addik	r3, r0, 23944
9000641c:	b810ff9c 	brid	-100		// 900063b8
90006420:	f8640018 	swi	r3, r4, 24
90006424:	b0009001 	imm	-28671
90006428:	30a03170 	addik	r5, r0, 12656
9000642c:	b9f40cec 	brlid	r15, 3308	// 90007118 <Xil_Assert>
90006430:	30c00086 	addik	r6, r0, 134
90006434:	30600001 	addik	r3, r0, 1
90006438:	b0009001 	imm	-28671
9000643c:	f860506c 	swi	r3, r0, 20588
90006440:	b810ffb0 	brid	-80		// 900063f0
90006444:	10f30000 	addk	r7, r19, r0

90006448 <XIntc_DeviceInterruptHandler>:
90006448:	b0009001 	imm	-28671
9000644c:	30603770 	addik	r3, r0, 14192
90006450:	64a50405 	bslli	r5, r5, 5
90006454:	3021ffcc 	addik	r1, r1, -52
90006458:	fa610020 	swi	r19, r1, 32
9000645c:	fac10024 	swi	r22, r1, 36
90006460:	fae10028 	swi	r23, r1, 40
90006464:	fb01002c 	swi	r24, r1, 44
90006468:	fb210030 	swi	r25, r1, 48
9000646c:	f9e10000 	swi	r15, r1, 0
90006470:	12651800 	addk	r19, r5, r3
90006474:	e8d30004 	lwi	r6, r19, 4
90006478:	33000001 	addik	r24, r0, 1
9000647c:	13200000 	addk	r25, r0, r0
90006480:	e8860000 	lwi	r4, r6, 0
90006484:	e8660008 	lwi	r3, r6, 8
90006488:	32e00010 	addik	r23, r0, 16	// 10 <_vector_interrupt>
9000648c:	86c41800 	and	r22, r4, r3
90006490:	a4760001 	andi	r3, r22, 1
90006494:	1093b800 	addk	r4, r19, r23
90006498:	33390001 	addik	r25, r25, 1
9000649c:	be030054 	beqid	r3, 84		// 900064f0
900064a0:	92d60041 	srl	r22, r22
900064a4:	e8730008 	lwi	r3, r19, 8
900064a8:	84781800 	and	r3, r24, r3
900064ac:	bc230088 	bnei	r3, 136		// 90006534
900064b0:	e8a40004 	lwi	r5, r4, 4
900064b4:	c893b800 	lw	r4, r19, r23
900064b8:	99fc2000 	brald	r15, r4
900064bc:	80000000 	or	r0, r0, r0
900064c0:	e8730008 	lwi	r3, r19, 8
900064c4:	84781800 	and	r3, r24, r3
900064c8:	bc03005c 	beqi	r3, 92		// 90006524
900064cc:	e8d30004 	lwi	r6, r19, 4
900064d0:	e873000c 	lwi	r3, r19, 12
900064d4:	e8860000 	lwi	r4, r6, 0
900064d8:	e8a60008 	lwi	r5, r6, 8
900064dc:	84842800 	and	r4, r4, r5
900064e0:	f881001c 	swi	r4, r1, 28
900064e4:	aa430001 	xori	r18, r3, 1
900064e8:	be120020 	beqid	r18, 32		// 90006508
900064ec:	e9e10000 	lwi	r15, r1, 0
900064f0:	be160014 	beqid	r22, 20		// 90006504
900064f4:	1318c000 	addk	r24, r24, r24
900064f8:	aa590002 	xori	r18, r25, 2
900064fc:	be32ff94 	bneid	r18, -108		// 90006490
90006500:	32f70008 	addik	r23, r23, 8
90006504:	e9e10000 	lwi	r15, r1, 0
90006508:	ea610020 	lwi	r19, r1, 32
9000650c:	eac10024 	lwi	r22, r1, 36
90006510:	eae10028 	lwi	r23, r1, 40
90006514:	eb01002c 	lwi	r24, r1, 44
90006518:	eb210030 	lwi	r25, r1, 48
9000651c:	b60f0008 	rtsd	r15, 8
90006520:	30210034 	addik	r1, r1, 52
90006524:	e8730004 	lwi	r3, r19, 4
90006528:	fb03000c 	swi	r24, r3, 12
9000652c:	b810ffa4 	brid	-92		// 900064d0
90006530:	e8d30004 	lwi	r6, r19, 4
90006534:	fb06000c 	swi	r24, r6, 12
90006538:	b810ff7c 	brid	-132		// 900064b4
9000653c:	e8a40004 	lwi	r5, r4, 4

90006540 <XIntc_LowLevelInterruptHandler>:
90006540:	3021ffe4 	addik	r1, r1, -28
90006544:	f9e10000 	swi	r15, r1, 0
90006548:	b9f4ff00 	brlid	r15, -256	// 90006448 <XIntc_DeviceInterruptHandler>
9000654c:	10a00000 	addk	r5, r0, r0
90006550:	e9e10000 	lwi	r15, r1, 0
90006554:	b60f0008 	rtsd	r15, 8
90006558:	3021001c 	addik	r1, r1, 28

9000655c <LookupConfigByBaseAddress>:
9000655c:	b0009001 	imm	-28671
90006560:	e8603774 	lwi	r3, r0, 14196
90006564:	b0009001 	imm	-28671
90006568:	30803770 	addik	r4, r0, 14192
9000656c:	16451800 	rsubk	r18, r5, r3
90006570:	bc32000c 	bnei	r18, 12		// 9000657c
90006574:	b60f0008 	rtsd	r15, 8
90006578:	10640000 	addk	r3, r4, r0
9000657c:	10800000 	addk	r4, r0, r0
90006580:	b60f0008 	rtsd	r15, 8
90006584:	10640000 	addk	r3, r4, r0

90006588 <XIntc_RegisterHandler>:
90006588:	3021ffd8 	addik	r1, r1, -40
9000658c:	fac10020 	swi	r22, r1, 32
90006590:	12c60000 	addk	r22, r6, r0
90006594:	fa61001c 	swi	r19, r1, 28
90006598:	fae10024 	swi	r23, r1, 36
9000659c:	66d60403 	bslli	r22, r22, 3
900065a0:	f9e10000 	swi	r15, r1, 0
900065a4:	12e70000 	addk	r23, r7, r0
900065a8:	b9f4ffb4 	brlid	r15, -76	// 9000655c <LookupConfigByBaseAddress>
900065ac:	12680000 	addk	r19, r8, r0
900065b0:	be030010 	beqid	r3, 16		// 900065c0
900065b4:	12d61800 	addk	r22, r22, r3
900065b8:	fa760014 	swi	r19, r22, 20
900065bc:	faf60010 	swi	r23, r22, 16
900065c0:	e9e10000 	lwi	r15, r1, 0
900065c4:	ea61001c 	lwi	r19, r1, 28
900065c8:	eac10020 	lwi	r22, r1, 32
900065cc:	eae10024 	lwi	r23, r1, 36
900065d0:	b60f0008 	rtsd	r15, 8
900065d4:	30210028 	addik	r1, r1, 40

900065d8 <XIntc_SetIntrSvcOption>:
900065d8:	3021ffe0 	addik	r1, r1, -32
900065dc:	fa61001c 	swi	r19, r1, 28
900065e0:	f9e10000 	swi	r15, r1, 0
900065e4:	b9f4ff78 	brlid	r15, -136	// 9000655c <LookupConfigByBaseAddress>
900065e8:	12660000 	addk	r19, r6, r0
900065ec:	be030010 	beqid	r3, 16		// 900065fc
900065f0:	e9e10000 	lwi	r15, r1, 0
900065f4:	fa63000c 	swi	r19, r3, 12
900065f8:	e9e10000 	lwi	r15, r1, 0
900065fc:	ea61001c 	lwi	r19, r1, 28
90006600:	b60f0008 	rtsd	r15, 8
90006604:	30210020 	addik	r1, r1, 32

90006608 <XTmrCtr_LookupConfig>:
90006608:	b0009001 	imm	-28671
9000660c:	e4603790 	lhui	r3, r0, 14224
90006610:	b0000000 	imm	0
90006614:	a4a5ffff 	andi	r5, r5, -1
90006618:	b0009001 	imm	-28671
9000661c:	30803790 	addik	r4, r0, 14224
90006620:	16451800 	rsubk	r18, r5, r3
90006624:	bc32000c 	bnei	r18, 12		// 90006630
90006628:	b60f0008 	rtsd	r15, 8
9000662c:	10640000 	addk	r3, r4, r0
90006630:	10800000 	addk	r4, r0, r0
90006634:	b60f0008 	rtsd	r15, 8
90006638:	10640000 	addk	r3, r4, r0

9000663c <XTmrCtr_IsExpired>:
9000663c:	3021ffe0 	addik	r1, r1, -32
90006640:	fa61001c 	swi	r19, r1, 28
90006644:	12650000 	addk	r19, r5, r0
90006648:	a48600ff 	andi	r4, r6, 255
9000664c:	f9e10000 	swi	r15, r1, 0
90006650:	b0009001 	imm	-28671
90006654:	30a03178 	addik	r5, r0, 12664
90006658:	be1300b0 	beqid	r19, 176		// 90006708
9000665c:	30c001bd 	addik	r6, r0, 445
90006660:	b0009001 	imm	-28671
90006664:	f800506c 	swi	r0, r0, 20588
90006668:	22400001 	addi	r18, r0, 1
9000666c:	16449003 	cmpu	r18, r4, r18
90006670:	beb20034 	bgeid	r18, 52		// 900066a4
90006674:	30c001be 	addik	r6, r0, 446
90006678:	b9f40aa0 	brlid	r15, 2720	// 90007118 <Xil_Assert>
9000667c:	80000000 	or	r0, r0, r0
90006680:	30600001 	addik	r3, r0, 1
90006684:	10a00000 	addk	r5, r0, r0
90006688:	b0009001 	imm	-28671
9000668c:	f860506c 	swi	r3, r0, 20588
90006690:	10650000 	addk	r3, r5, r0
90006694:	e9e10000 	lwi	r15, r1, 0
90006698:	ea61001c 	lwi	r19, r1, 28
9000669c:	b60f0008 	rtsd	r15, 8
900066a0:	30210020 	addik	r1, r1, 32
900066a4:	e8730008 	lwi	r3, r19, 8
900066a8:	b0009001 	imm	-28671
900066ac:	30a03178 	addik	r5, r0, 12664
900066b0:	b0009001 	imm	-28671
900066b4:	f800506c 	swi	r0, r0, 20588
900066b8:	b0001111 	imm	4369
900066bc:	aa431111 	xori	r18, r3, 4369
900066c0:	be120024 	beqid	r18, 36		// 900066e4
900066c4:	30c001bf 	addik	r6, r0, 447
900066c8:	b9f40a50 	brlid	r15, 2640	// 90007118 <Xil_Assert>
900066cc:	80000000 	or	r0, r0, r0
900066d0:	30600001 	addik	r3, r0, 1
900066d4:	b0009001 	imm	-28671
900066d8:	f860506c 	swi	r3, r0, 20588
900066dc:	b810ffb4 	brid	-76		// 90006690
900066e0:	10a00000 	addk	r5, r0, r0
900066e4:	b0009001 	imm	-28671
900066e8:	e0a43798 	lbui	r5, r4, 14232
900066ec:	e8930004 	lwi	r4, r19, 4
900066f0:	b0009001 	imm	-28671
900066f4:	f800506c 	swi	r0, r0, 20588
900066f8:	c8642800 	lw	r3, r4, r5
900066fc:	64630008 	bsrli	r3, r3, 8
90006700:	b810ff90 	brid	-112		// 90006690
90006704:	a4a30001 	andi	r5, r3, 1
90006708:	b9f40a10 	brlid	r15, 2576	// 90007118 <Xil_Assert>
9000670c:	80000000 	or	r0, r0, r0
90006710:	30600001 	addik	r3, r0, 1
90006714:	b0009001 	imm	-28671
90006718:	f860506c 	swi	r3, r0, 20588
9000671c:	b810ff74 	brid	-140		// 90006690
90006720:	10b30000 	addk	r5, r19, r0

90006724 <XTmrCtr_Reset>:
90006724:	11050000 	addk	r8, r5, r0
90006728:	3021ffe4 	addik	r1, r1, -28
9000672c:	a48600ff 	andi	r4, r6, 255
90006730:	f9e10000 	swi	r15, r1, 0
90006734:	b0009001 	imm	-28671
90006738:	30a03178 	addik	r5, r0, 12664
9000673c:	be080020 	beqid	r8, 32		// 9000675c
90006740:	30c00190 	addik	r6, r0, 400
90006744:	b0009001 	imm	-28671
90006748:	f800506c 	swi	r0, r0, 20588
9000674c:	22400001 	addi	r18, r0, 1
90006750:	16449003 	cmpu	r18, r4, r18
90006754:	beb20028 	bgeid	r18, 40		// 9000677c
90006758:	30c00191 	addik	r6, r0, 401
9000675c:	b9f409bc 	brlid	r15, 2492	// 90007118 <Xil_Assert>
90006760:	80000000 	or	r0, r0, r0
90006764:	e9e10000 	lwi	r15, r1, 0
90006768:	30600001 	addik	r3, r0, 1
9000676c:	b0009001 	imm	-28671
90006770:	f860506c 	swi	r3, r0, 20588
90006774:	b60f0008 	rtsd	r15, 8
90006778:	3021001c 	addik	r1, r1, 28
9000677c:	e8680008 	lwi	r3, r8, 8
90006780:	b0009001 	imm	-28671
90006784:	30a03178 	addik	r5, r0, 12664
90006788:	b0009001 	imm	-28671
9000678c:	f800506c 	swi	r0, r0, 20588
90006790:	b0001111 	imm	4369
90006794:	aa431111 	xori	r18, r3, 4369
90006798:	be32ffc4 	bneid	r18, -60		// 9000675c
9000679c:	30c00192 	addik	r6, r0, 402
900067a0:	b0009001 	imm	-28671
900067a4:	e0c43798 	lbui	r6, r4, 14232
900067a8:	e8a80004 	lwi	r5, r8, 4
900067ac:	b0009001 	imm	-28671
900067b0:	f800506c 	swi	r0, r0, 20588
900067b4:	c8e53000 	lw	r7, r5, r6
900067b8:	a0670020 	ori	r3, r7, 32
900067bc:	d8653000 	sw	r3, r5, r6
900067c0:	b0009001 	imm	-28671
900067c4:	e0843798 	lbui	r4, r4, 14232
900067c8:	e8680004 	lwi	r3, r8, 4
900067cc:	d8e32000 	sw	r7, r3, r4
900067d0:	e9e10000 	lwi	r15, r1, 0
900067d4:	b60f0008 	rtsd	r15, 8
900067d8:	3021001c 	addik	r1, r1, 28

900067dc <XTmrCtr_GetCaptureValue>:
900067dc:	3021ffe0 	addik	r1, r1, -32
900067e0:	fa61001c 	swi	r19, r1, 28
900067e4:	12650000 	addk	r19, r5, r0
900067e8:	a48600ff 	andi	r4, r6, 255
900067ec:	f9e10000 	swi	r15, r1, 0
900067f0:	b0009001 	imm	-28671
900067f4:	30a03178 	addik	r5, r0, 12664
900067f8:	be1300b0 	beqid	r19, 176		// 900068a8
900067fc:	30c00173 	addik	r6, r0, 371
90006800:	b0009001 	imm	-28671
90006804:	f800506c 	swi	r0, r0, 20588
90006808:	22400001 	addi	r18, r0, 1
9000680c:	16449003 	cmpu	r18, r4, r18
90006810:	beb20034 	bgeid	r18, 52		// 90006844
90006814:	30c00174 	addik	r6, r0, 372
90006818:	b9f40900 	brlid	r15, 2304	// 90007118 <Xil_Assert>
9000681c:	80000000 	or	r0, r0, r0
90006820:	30600001 	addik	r3, r0, 1
90006824:	10a00000 	addk	r5, r0, r0
90006828:	b0009001 	imm	-28671
9000682c:	f860506c 	swi	r3, r0, 20588
90006830:	10650000 	addk	r3, r5, r0
90006834:	e9e10000 	lwi	r15, r1, 0
90006838:	ea61001c 	lwi	r19, r1, 28
9000683c:	b60f0008 	rtsd	r15, 8
90006840:	30210020 	addik	r1, r1, 32
90006844:	e8730008 	lwi	r3, r19, 8
90006848:	b0009001 	imm	-28671
9000684c:	30a03178 	addik	r5, r0, 12664
90006850:	b0009001 	imm	-28671
90006854:	f800506c 	swi	r0, r0, 20588
90006858:	b0001111 	imm	4369
9000685c:	aa431111 	xori	r18, r3, 4369
90006860:	be120024 	beqid	r18, 36		// 90006884
90006864:	30c00175 	addik	r6, r0, 373
90006868:	b9f408b0 	brlid	r15, 2224	// 90007118 <Xil_Assert>
9000686c:	80000000 	or	r0, r0, r0
90006870:	30600001 	addik	r3, r0, 1
90006874:	b0009001 	imm	-28671
90006878:	f860506c 	swi	r3, r0, 20588
9000687c:	b810ffb4 	brid	-76		// 90006830
90006880:	10a00000 	addk	r5, r0, r0
90006884:	e8730004 	lwi	r3, r19, 4
90006888:	b0009001 	imm	-28671
9000688c:	e0843798 	lbui	r4, r4, 14232
90006890:	b0009001 	imm	-28671
90006894:	f800506c 	swi	r0, r0, 20588
90006898:	30630004 	addik	r3, r3, 4
9000689c:	c8a32000 	lw	r5, r3, r4
900068a0:	b810ff94 	brid	-108		// 90006834
900068a4:	10650000 	addk	r3, r5, r0
900068a8:	b9f40870 	brlid	r15, 2160	// 90007118 <Xil_Assert>
900068ac:	80000000 	or	r0, r0, r0
900068b0:	30600001 	addik	r3, r0, 1
900068b4:	b0009001 	imm	-28671
900068b8:	f860506c 	swi	r3, r0, 20588
900068bc:	b810ff74 	brid	-140		// 90006830
900068c0:	10b30000 	addk	r5, r19, r0

900068c4 <XTmrCtr_SetResetValue>:
900068c4:	10850000 	addk	r4, r5, r0
900068c8:	3021ffe4 	addik	r1, r1, -28
900068cc:	a50600ff 	andi	r8, r6, 255
900068d0:	f9e10000 	swi	r15, r1, 0
900068d4:	b0009001 	imm	-28671
900068d8:	30a03178 	addik	r5, r0, 12664
900068dc:	be040020 	beqid	r4, 32		// 900068fc
900068e0:	30c00157 	addik	r6, r0, 343
900068e4:	b0009001 	imm	-28671
900068e8:	f800506c 	swi	r0, r0, 20588
900068ec:	22400001 	addi	r18, r0, 1
900068f0:	16489003 	cmpu	r18, r8, r18
900068f4:	beb20028 	bgeid	r18, 40		// 9000691c
900068f8:	30c00158 	addik	r6, r0, 344
900068fc:	b9f4081c 	brlid	r15, 2076	// 90007118 <Xil_Assert>
90006900:	80000000 	or	r0, r0, r0
90006904:	e9e10000 	lwi	r15, r1, 0
90006908:	30600001 	addik	r3, r0, 1
9000690c:	b0009001 	imm	-28671
90006910:	f860506c 	swi	r3, r0, 20588
90006914:	b60f0008 	rtsd	r15, 8
90006918:	3021001c 	addik	r1, r1, 28
9000691c:	e8640008 	lwi	r3, r4, 8
90006920:	b0009001 	imm	-28671
90006924:	30a03178 	addik	r5, r0, 12664
90006928:	b0009001 	imm	-28671
9000692c:	f800506c 	swi	r0, r0, 20588
90006930:	b0001111 	imm	4369
90006934:	aa431111 	xori	r18, r3, 4369
90006938:	be32ffc4 	bneid	r18, -60		// 900068fc
9000693c:	30c00159 	addik	r6, r0, 345
90006940:	e8640004 	lwi	r3, r4, 4
90006944:	b0009001 	imm	-28671
90006948:	e0883798 	lbui	r4, r8, 14232
9000694c:	b0009001 	imm	-28671
90006950:	f800506c 	swi	r0, r0, 20588
90006954:	30630004 	addik	r3, r3, 4
90006958:	d8e32000 	sw	r7, r3, r4
9000695c:	e9e10000 	lwi	r15, r1, 0
90006960:	b60f0008 	rtsd	r15, 8
90006964:	3021001c 	addik	r1, r1, 28

90006968 <XTmrCtr_GetValue>:
90006968:	3021ffe0 	addik	r1, r1, -32
9000696c:	fa61001c 	swi	r19, r1, 28
90006970:	12650000 	addk	r19, r5, r0
90006974:	a48600ff 	andi	r4, r6, 255
90006978:	f9e10000 	swi	r15, r1, 0
9000697c:	b0009001 	imm	-28671
90006980:	30a03178 	addik	r5, r0, 12664
90006984:	be1300b0 	beqid	r19, 176		// 90006a34
90006988:	30c00137 	addik	r6, r0, 311
9000698c:	b0009001 	imm	-28671
90006990:	f800506c 	swi	r0, r0, 20588
90006994:	22400001 	addi	r18, r0, 1
90006998:	16449003 	cmpu	r18, r4, r18
9000699c:	beb20034 	bgeid	r18, 52		// 900069d0
900069a0:	30c00138 	addik	r6, r0, 312
900069a4:	b9f40774 	brlid	r15, 1908	// 90007118 <Xil_Assert>
900069a8:	80000000 	or	r0, r0, r0
900069ac:	30600001 	addik	r3, r0, 1
900069b0:	10a00000 	addk	r5, r0, r0
900069b4:	b0009001 	imm	-28671
900069b8:	f860506c 	swi	r3, r0, 20588
900069bc:	10650000 	addk	r3, r5, r0
900069c0:	e9e10000 	lwi	r15, r1, 0
900069c4:	ea61001c 	lwi	r19, r1, 28
900069c8:	b60f0008 	rtsd	r15, 8
900069cc:	30210020 	addik	r1, r1, 32
900069d0:	e8730008 	lwi	r3, r19, 8
900069d4:	b0009001 	imm	-28671
900069d8:	30a03178 	addik	r5, r0, 12664
900069dc:	b0009001 	imm	-28671
900069e0:	f800506c 	swi	r0, r0, 20588
900069e4:	b0001111 	imm	4369
900069e8:	aa431111 	xori	r18, r3, 4369
900069ec:	be120024 	beqid	r18, 36		// 90006a10
900069f0:	30c00139 	addik	r6, r0, 313
900069f4:	b9f40724 	brlid	r15, 1828	// 90007118 <Xil_Assert>
900069f8:	80000000 	or	r0, r0, r0
900069fc:	30600001 	addik	r3, r0, 1
90006a00:	b0009001 	imm	-28671
90006a04:	f860506c 	swi	r3, r0, 20588
90006a08:	b810ffb4 	brid	-76		// 900069bc
90006a0c:	10a00000 	addk	r5, r0, r0
90006a10:	e8730004 	lwi	r3, r19, 4
90006a14:	b0009001 	imm	-28671
90006a18:	e0843798 	lbui	r4, r4, 14232
90006a1c:	b0009001 	imm	-28671
90006a20:	f800506c 	swi	r0, r0, 20588
90006a24:	30630008 	addik	r3, r3, 8
90006a28:	c8a32000 	lw	r5, r3, r4
90006a2c:	b810ff94 	brid	-108		// 900069c0
90006a30:	10650000 	addk	r3, r5, r0
90006a34:	b9f406e4 	brlid	r15, 1764	// 90007118 <Xil_Assert>
90006a38:	80000000 	or	r0, r0, r0
90006a3c:	30600001 	addik	r3, r0, 1
90006a40:	b0009001 	imm	-28671
90006a44:	f860506c 	swi	r3, r0, 20588
90006a48:	b810ff74 	brid	-140		// 900069bc
90006a4c:	10b30000 	addk	r5, r19, r0

90006a50 <XTmrCtr_Stop>:
90006a50:	10850000 	addk	r4, r5, r0
90006a54:	3021ffe4 	addik	r1, r1, -28
90006a58:	a4e600ff 	andi	r7, r6, 255
90006a5c:	f9e10000 	swi	r15, r1, 0
90006a60:	b0009001 	imm	-28671
90006a64:	30a03178 	addik	r5, r0, 12664
90006a68:	be040020 	beqid	r4, 32		// 90006a88
90006a6c:	30c0010d 	addik	r6, r0, 269
90006a70:	b0009001 	imm	-28671
90006a74:	f800506c 	swi	r0, r0, 20588
90006a78:	22400001 	addi	r18, r0, 1
90006a7c:	16479003 	cmpu	r18, r7, r18
90006a80:	beb20028 	bgeid	r18, 40		// 90006aa8
90006a84:	30c0010e 	addik	r6, r0, 270
90006a88:	b9f40690 	brlid	r15, 1680	// 90007118 <Xil_Assert>
90006a8c:	80000000 	or	r0, r0, r0
90006a90:	e9e10000 	lwi	r15, r1, 0
90006a94:	30600001 	addik	r3, r0, 1
90006a98:	b0009001 	imm	-28671
90006a9c:	f860506c 	swi	r3, r0, 20588
90006aa0:	b60f0008 	rtsd	r15, 8
90006aa4:	3021001c 	addik	r1, r1, 28
90006aa8:	e8640008 	lwi	r3, r4, 8
90006aac:	b0009001 	imm	-28671
90006ab0:	30a03178 	addik	r5, r0, 12664
90006ab4:	b0009001 	imm	-28671
90006ab8:	f800506c 	swi	r0, r0, 20588
90006abc:	b0001111 	imm	4369
90006ac0:	aa431111 	xori	r18, r3, 4369
90006ac4:	be32ffc4 	bneid	r18, -60		// 90006a88
90006ac8:	30c0010f 	addik	r6, r0, 271
90006acc:	b0009001 	imm	-28671
90006ad0:	e0a73798 	lbui	r5, r7, 14232
90006ad4:	e8840004 	lwi	r4, r4, 4
90006ad8:	b0009001 	imm	-28671
90006adc:	f800506c 	swi	r0, r0, 20588
90006ae0:	c8642800 	lw	r3, r4, r5
90006ae4:	a463ff7f 	andi	r3, r3, -129
90006ae8:	d8642800 	sw	r3, r4, r5
90006aec:	e9e10000 	lwi	r15, r1, 0
90006af0:	b60f0008 	rtsd	r15, 8
90006af4:	3021001c 	addik	r1, r1, 28

90006af8 <XTmrCtr_Start>:
90006af8:	11250000 	addk	r9, r5, r0
90006afc:	3021ffe4 	addik	r1, r1, -28
90006b00:	a50600ff 	andi	r8, r6, 255
90006b04:	f9e10000 	swi	r15, r1, 0
90006b08:	b0009001 	imm	-28671
90006b0c:	30a03178 	addik	r5, r0, 12664
90006b10:	be090020 	beqid	r9, 32		// 90006b30
90006b14:	30c000d8 	addik	r6, r0, 216
90006b18:	b0009001 	imm	-28671
90006b1c:	f800506c 	swi	r0, r0, 20588
90006b20:	22400001 	addi	r18, r0, 1
90006b24:	16489003 	cmpu	r18, r8, r18
90006b28:	beb20028 	bgeid	r18, 40		// 90006b50
90006b2c:	30c000d9 	addik	r6, r0, 217
90006b30:	b9f405e8 	brlid	r15, 1512	// 90007118 <Xil_Assert>
90006b34:	80000000 	or	r0, r0, r0
90006b38:	e9e10000 	lwi	r15, r1, 0
90006b3c:	30600001 	addik	r3, r0, 1
90006b40:	b0009001 	imm	-28671
90006b44:	f860506c 	swi	r3, r0, 20588
90006b48:	b60f0008 	rtsd	r15, 8
90006b4c:	3021001c 	addik	r1, r1, 28
90006b50:	e8690008 	lwi	r3, r9, 8
90006b54:	b0009001 	imm	-28671
90006b58:	30a03178 	addik	r5, r0, 12664
90006b5c:	b0009001 	imm	-28671
90006b60:	f800506c 	swi	r0, r0, 20588
90006b64:	b0001111 	imm	4369
90006b68:	aa431111 	xori	r18, r3, 4369
90006b6c:	be32ffc4 	bneid	r18, -60		// 90006b30
90006b70:	30c000da 	addik	r6, r0, 218
90006b74:	b0009001 	imm	-28671
90006b78:	e0e83798 	lbui	r7, r8, 14232
90006b7c:	e8a90004 	lwi	r5, r9, 4
90006b80:	30600020 	addik	r3, r0, 32	// 20 <_vector_hw_exception>
90006b84:	b0009001 	imm	-28671
90006b88:	f800506c 	swi	r0, r0, 20588
90006b8c:	c8853800 	lw	r4, r5, r7
90006b90:	d8653800 	sw	r3, r5, r7
90006b94:	b0009001 	imm	-28671
90006b98:	e0c83798 	lbui	r6, r8, 14232
90006b9c:	e8690004 	lwi	r3, r9, 4
90006ba0:	a0840080 	ori	r4, r4, 128
90006ba4:	d8833000 	sw	r4, r3, r6
90006ba8:	e9e10000 	lwi	r15, r1, 0
90006bac:	b60f0008 	rtsd	r15, 8
90006bb0:	3021001c 	addik	r1, r1, 28

90006bb4 <XTmrCtr_Initialize>:
90006bb4:	3021ffe0 	addik	r1, r1, -32
90006bb8:	fa61001c 	swi	r19, r1, 28
90006bbc:	12650000 	addk	r19, r5, r0
90006bc0:	b0000000 	imm	0
90006bc4:	a466ffff 	andi	r3, r6, -1
90006bc8:	f9e10000 	swi	r15, r1, 0
90006bcc:	b0009001 	imm	-28671
90006bd0:	30a03178 	addik	r5, r0, 12664
90006bd4:	be1300f0 	beqid	r19, 240		// 90006cc4
90006bd8:	30c0006f 	addik	r6, r0, 111
90006bdc:	b0009001 	imm	-28671
90006be0:	f800506c 	swi	r0, r0, 20588
90006be4:	b9f4fa24 	brlid	r15, -1500	// 90006608 <XTmrCtr_LookupConfig>
90006be8:	10a30000 	addk	r5, r3, r0
90006bec:	be0300c4 	beqid	r3, 196		// 90006cb0
90006bf0:	31000002 	addik	r8, r0, 2
90006bf4:	e8a30004 	lwi	r5, r3, 4
90006bf8:	b0009001 	imm	-28671
90006bfc:	e0803798 	lbui	r4, r0, 14232
90006c00:	31000005 	addik	r8, r0, 5
90006c04:	c8642800 	lw	r3, r4, r5
90006c08:	a4630080 	andi	r3, r3, 128
90006c0c:	be2300a4 	bneid	r3, 164		// 90006cb0
90006c10:	30c50004 	addik	r6, r5, 4
90006c14:	b0009001 	imm	-28671
90006c18:	e0603799 	lbui	r3, r0, 14233
90006c1c:	31200120 	addik	r9, r0, 288
90006c20:	c8832800 	lw	r4, r3, r5
90006c24:	a4e40080 	andi	r7, r4, 128
90006c28:	be27008c 	bneid	r7, 140		// 90006cb4
90006c2c:	10680000 	addk	r3, r8, r0
90006c30:	f8b30004 	swi	r5, r19, 4
90006c34:	f8f30000 	swi	r7, r19, 0
90006c38:	f8f3000c 	swi	r7, r19, 12
90006c3c:	f8f30010 	swi	r7, r19, 16
90006c40:	b0009001 	imm	-28671
90006c44:	e0603798 	lbui	r3, r0, 14232
90006c48:	11070000 	addk	r8, r7, r0
90006c4c:	d8e61800 	sw	r7, r6, r3
90006c50:	b0009001 	imm	-28671
90006c54:	e0803798 	lbui	r4, r0, 14232
90006c58:	e8730004 	lwi	r3, r19, 4
90006c5c:	d9232000 	sw	r9, r3, r4
90006c60:	b0009001 	imm	-28671
90006c64:	e0a03798 	lbui	r5, r0, 14232
90006c68:	e8930004 	lwi	r4, r19, 4
90006c6c:	d8e42800 	sw	r7, r4, r5
90006c70:	e8730004 	lwi	r3, r19, 4
90006c74:	b0009001 	imm	-28671
90006c78:	e0803799 	lbui	r4, r0, 14233
90006c7c:	30630004 	addik	r3, r3, 4
90006c80:	d8e32000 	sw	r7, r3, r4
90006c84:	b0009001 	imm	-28671
90006c88:	e0a03799 	lbui	r5, r0, 14233
90006c8c:	e8730004 	lwi	r3, r19, 4
90006c90:	d9232800 	sw	r9, r3, r5
90006c94:	b0009001 	imm	-28671
90006c98:	e0c03799 	lbui	r6, r0, 14233
90006c9c:	e8930004 	lwi	r4, r19, 4
90006ca0:	b0001111 	imm	4369
90006ca4:	30601111 	addik	r3, r0, 4369
90006ca8:	d8e43000 	sw	r7, r4, r6
90006cac:	f8730008 	swi	r3, r19, 8
90006cb0:	10680000 	addk	r3, r8, r0
90006cb4:	e9e10000 	lwi	r15, r1, 0
90006cb8:	ea61001c 	lwi	r19, r1, 28
90006cbc:	b60f0008 	rtsd	r15, 8
90006cc0:	30210020 	addik	r1, r1, 32
90006cc4:	b9f40454 	brlid	r15, 1108	// 90007118 <Xil_Assert>
90006cc8:	80000000 	or	r0, r0, r0
90006ccc:	30600001 	addik	r3, r0, 1
90006cd0:	b0009001 	imm	-28671
90006cd4:	f860506c 	swi	r3, r0, 20588
90006cd8:	b810ffd8 	brid	-40		// 90006cb0
90006cdc:	11130000 	addk	r8, r19, r0

90006ce0 <XTmrCtr_InterruptHandler>:
90006ce0:	3021ffdc 	addik	r1, r1, -36
90006ce4:	fac10020 	swi	r22, r1, 32
90006ce8:	f9e10000 	swi	r15, r1, 0
90006cec:	fa61001c 	swi	r19, r1, 28
90006cf0:	be0500d0 	beqid	r5, 208		// 90006dc0
90006cf4:	12c50000 	addk	r22, r5, r0
90006cf8:	12600000 	addk	r19, r0, r0
90006cfc:	b0009001 	imm	-28671
90006d00:	fa60506c 	swi	r19, r0, 20588
90006d04:	e8960004 	lwi	r4, r22, 4
90006d08:	b0009001 	imm	-28671
90006d0c:	e0b33798 	lbui	r5, r19, 14232
90006d10:	a4d300ff 	andi	r6, r19, 255
90006d14:	c8642800 	lw	r3, r4, r5
90006d18:	a4830100 	andi	r4, r3, 256
90006d1c:	a4630040 	andi	r3, r3, 64
90006d20:	bc030008 	beqi	r3, 8		// 90006d28
90006d24:	bc240024 	bnei	r4, 36		// 90006d48
90006d28:	32730001 	addik	r19, r19, 1
90006d2c:	aa530002 	xori	r18, r19, 2
90006d30:	be32ffd4 	bneid	r18, -44		// 90006d04
90006d34:	e9e10000 	lwi	r15, r1, 0
90006d38:	ea61001c 	lwi	r19, r1, 28
90006d3c:	eac10020 	lwi	r22, r1, 32
90006d40:	b60f0008 	rtsd	r15, 8
90006d44:	30210024 	addik	r1, r1, 36
90006d48:	e8760000 	lwi	r3, r22, 0
90006d4c:	e896000c 	lwi	r4, r22, 12
90006d50:	e8b60010 	lwi	r5, r22, 16
90006d54:	30630001 	addik	r3, r3, 1
90006d58:	99fc2000 	brald	r15, r4
90006d5c:	f8760000 	swi	r3, r22, 0
90006d60:	b0009001 	imm	-28671
90006d64:	e0d33798 	lbui	r6, r19, 14232
90006d68:	e8960004 	lwi	r4, r22, 4
90006d6c:	c8a43000 	lw	r5, r4, r6
90006d70:	a4650011 	andi	r3, r5, 17
90006d74:	bc030014 	beqi	r3, 20		// 90006d88
90006d78:	a0650100 	ori	r3, r5, 256
90006d7c:	d8643000 	sw	r3, r4, r6
90006d80:	b810ffac 	brid	-84		// 90006d2c
90006d84:	32730001 	addik	r19, r19, 1
90006d88:	a4a5ff7f 	andi	r5, r5, -129
90006d8c:	a0650020 	ori	r3, r5, 32
90006d90:	d8643000 	sw	r3, r4, r6
90006d94:	b0009001 	imm	-28671
90006d98:	e0933798 	lbui	r4, r19, 14232
90006d9c:	e8760004 	lwi	r3, r22, 4
90006da0:	d8a32000 	sw	r5, r3, r4
90006da4:	b0009001 	imm	-28671
90006da8:	e0d33798 	lbui	r6, r19, 14232
90006dac:	e8960004 	lwi	r4, r22, 4
90006db0:	a0650100 	ori	r3, r5, 256
90006db4:	d8643000 	sw	r3, r4, r6
90006db8:	b810ff74 	brid	-140		// 90006d2c
90006dbc:	32730001 	addik	r19, r19, 1
90006dc0:	b0009001 	imm	-28671
90006dc4:	30a03184 	addik	r5, r0, 12676
90006dc8:	b9f40350 	brlid	r15, 848	// 90007118 <Xil_Assert>
90006dcc:	30c0008b 	addik	r6, r0, 139
90006dd0:	30600001 	addik	r3, r0, 1
90006dd4:	b0009001 	imm	-28671
90006dd8:	f860506c 	swi	r3, r0, 20588
90006ddc:	b810ff5c 	brid	-164		// 90006d38
90006de0:	e9e10000 	lwi	r15, r1, 0

90006de4 <XTmrCtr_SetHandler>:
90006de4:	10850000 	addk	r4, r5, r0
90006de8:	3021ffe4 	addik	r1, r1, -28
90006dec:	11060000 	addk	r8, r6, r0
90006df0:	f9e10000 	swi	r15, r1, 0
90006df4:	b0009001 	imm	-28671
90006df8:	30a03184 	addik	r5, r0, 12676
90006dfc:	be040030 	beqid	r4, 48		// 90006e2c
90006e00:	30c0006c 	addik	r6, r0, 108
90006e04:	b0009001 	imm	-28671
90006e08:	f800506c 	swi	r0, r0, 20588
90006e0c:	bc08005c 	beqi	r8, 92		// 90006e68
90006e10:	e8640008 	lwi	r3, r4, 8
90006e14:	b0009001 	imm	-28671
90006e18:	f800506c 	swi	r0, r0, 20588
90006e1c:	b0001111 	imm	4369
90006e20:	aa431111 	xori	r18, r3, 4369
90006e24:	be120028 	beqid	r18, 40		// 90006e4c
90006e28:	30c0006e 	addik	r6, r0, 110
90006e2c:	b9f402ec 	brlid	r15, 748	// 90007118 <Xil_Assert>
90006e30:	80000000 	or	r0, r0, r0
90006e34:	30600001 	addik	r3, r0, 1
90006e38:	b0009001 	imm	-28671
90006e3c:	f860506c 	swi	r3, r0, 20588
90006e40:	e9e10000 	lwi	r15, r1, 0
90006e44:	b60f0008 	rtsd	r15, 8
90006e48:	3021001c 	addik	r1, r1, 28
90006e4c:	f8e40010 	swi	r7, r4, 16
90006e50:	f904000c 	swi	r8, r4, 12
90006e54:	e9e10000 	lwi	r15, r1, 0
90006e58:	b0009001 	imm	-28671
90006e5c:	f800506c 	swi	r0, r0, 20588
90006e60:	b60f0008 	rtsd	r15, 8
90006e64:	3021001c 	addik	r1, r1, 28
90006e68:	b9f402b0 	brlid	r15, 688	// 90007118 <Xil_Assert>
90006e6c:	30c0006d 	addik	r6, r0, 109
90006e70:	30600001 	addik	r3, r0, 1
90006e74:	b0009001 	imm	-28671
90006e78:	f860506c 	swi	r3, r0, 20588
90006e7c:	b810ffc8 	brid	-56		// 90006e44
90006e80:	e9e10000 	lwi	r15, r1, 0

90006e84 <XTmrCtr_GetOptions>:
90006e84:	3021ffe0 	addik	r1, r1, -32
90006e88:	fa61001c 	swi	r19, r1, 28
90006e8c:	f9e10000 	swi	r15, r1, 0
90006e90:	12650000 	addk	r19, r5, r0
90006e94:	be0500f0 	beqid	r5, 240		// 90006f84
90006e98:	a4c600ff 	andi	r6, r6, 255
90006e9c:	b0009001 	imm	-28671
90006ea0:	f800506c 	swi	r0, r0, 20588
90006ea4:	22400001 	addi	r18, r0, 1
90006ea8:	16469003 	cmpu	r18, r6, r18
90006eac:	bcb20038 	bgei	r18, 56		// 90006ee4
90006eb0:	b0009001 	imm	-28671
90006eb4:	30a03194 	addik	r5, r0, 12692
90006eb8:	b9f40260 	brlid	r15, 608	// 90007118 <Xil_Assert>
90006ebc:	30c000c7 	addik	r6, r0, 199
90006ec0:	30600001 	addik	r3, r0, 1
90006ec4:	10c00000 	addk	r6, r0, r0
90006ec8:	b0009001 	imm	-28671
90006ecc:	f860506c 	swi	r3, r0, 20588
90006ed0:	10660000 	addk	r3, r6, r0
90006ed4:	e9e10000 	lwi	r15, r1, 0
90006ed8:	ea61001c 	lwi	r19, r1, 28
90006edc:	b60f0008 	rtsd	r15, 8
90006ee0:	30210020 	addik	r1, r1, 32
90006ee4:	e8650008 	lwi	r3, r5, 8
90006ee8:	b0009001 	imm	-28671
90006eec:	f800506c 	swi	r0, r0, 20588
90006ef0:	b0001111 	imm	4369
90006ef4:	aa431111 	xori	r18, r3, 4369
90006ef8:	bc120028 	beqi	r18, 40		// 90006f20
90006efc:	b0009001 	imm	-28671
90006f00:	30a03194 	addik	r5, r0, 12692
90006f04:	b9f40214 	brlid	r15, 532	// 90007118 <Xil_Assert>
90006f08:	30c000c8 	addik	r6, r0, 200
90006f0c:	30600001 	addik	r3, r0, 1
90006f10:	b0009001 	imm	-28671
90006f14:	f860506c 	swi	r3, r0, 20588
90006f18:	b810ffb8 	brid	-72		// 90006ed0
90006f1c:	10c00000 	addk	r6, r0, r0
90006f20:	b0009001 	imm	-28671
90006f24:	e0863798 	lbui	r4, r6, 14232
90006f28:	e8650004 	lwi	r3, r5, 4
90006f2c:	10c00000 	addk	r6, r0, r0
90006f30:	10e60000 	addk	r7, r6, r0
90006f34:	c8a32000 	lw	r5, r3, r4
90006f38:	b0009001 	imm	-28671
90006f3c:	f8c0506c 	swi	r6, r0, 20588
90006f40:	b8000020 	bri	32		// 90006f60
90006f44:	b0009001 	imm	-28671
90006f48:	e86731a8 	lwi	r3, r7, 12712
90006f4c:	80c61800 	or	r6, r6, r3
90006f50:	30e70008 	addik	r7, r7, 8
90006f54:	aa470030 	xori	r18, r7, 48
90006f58:	be12ff7c 	beqid	r18, -132		// 90006ed4
90006f5c:	10660000 	addk	r3, r6, r0
90006f60:	b0009001 	imm	-28671
90006f64:	e86731ac 	lwi	r3, r7, 12716
90006f68:	84651800 	and	r3, r5, r3
90006f6c:	bc23ffd8 	bnei	r3, -40		// 90006f44
90006f70:	b0009001 	imm	-28671
90006f74:	e86731a8 	lwi	r3, r7, 12712
90006f78:	a863ffff 	xori	r3, r3, -1
90006f7c:	b810ffd4 	brid	-44		// 90006f50
90006f80:	84c61800 	and	r6, r6, r3
90006f84:	b0009001 	imm	-28671
90006f88:	30a03194 	addik	r5, r0, 12692
90006f8c:	b9f4018c 	brlid	r15, 396	// 90007118 <Xil_Assert>
90006f90:	30c000c6 	addik	r6, r0, 198
90006f94:	30600001 	addik	r3, r0, 1
90006f98:	b0009001 	imm	-28671
90006f9c:	f860506c 	swi	r3, r0, 20588
90006fa0:	b810ff30 	brid	-208		// 90006ed0
90006fa4:	10d30000 	addk	r6, r19, r0

90006fa8 <XTmrCtr_SetOptions>:
90006fa8:	3021ffe4 	addik	r1, r1, -28
90006fac:	f9e10000 	swi	r15, r1, 0
90006fb0:	be0500f8 	beqid	r5, 248		// 900070a8
90006fb4:	a4c600ff 	andi	r6, r6, 255
90006fb8:	b0009001 	imm	-28671
90006fbc:	f800506c 	swi	r0, r0, 20588
90006fc0:	22400001 	addi	r18, r0, 1
90006fc4:	16469003 	cmpu	r18, r6, r18
90006fc8:	bcb2002c 	bgei	r18, 44		// 90006ff4
90006fcc:	b0009001 	imm	-28671
90006fd0:	30a03194 	addik	r5, r0, 12692
90006fd4:	b9f40144 	brlid	r15, 324	// 90007118 <Xil_Assert>
90006fd8:	30c0008c 	addik	r6, r0, 140
90006fdc:	30600001 	addik	r3, r0, 1
90006fe0:	b0009001 	imm	-28671
90006fe4:	f860506c 	swi	r3, r0, 20588
90006fe8:	e9e10000 	lwi	r15, r1, 0
90006fec:	b60f0008 	rtsd	r15, 8
90006ff0:	3021001c 	addik	r1, r1, 28
90006ff4:	e8650008 	lwi	r3, r5, 8
90006ff8:	b0009001 	imm	-28671
90006ffc:	f800506c 	swi	r0, r0, 20588
90007000:	b0001111 	imm	4369
90007004:	aa431111 	xori	r18, r3, 4369
90007008:	be120030 	beqid	r18, 48		// 90007038
9000700c:	11000000 	addk	r8, r0, r0
90007010:	b0009001 	imm	-28671
90007014:	30a03194 	addik	r5, r0, 12692
90007018:	b9f40100 	brlid	r15, 256	// 90007118 <Xil_Assert>
9000701c:	30c0008d 	addik	r6, r0, 141
90007020:	e9e10000 	lwi	r15, r1, 0
90007024:	30600001 	addik	r3, r0, 1
90007028:	b0009001 	imm	-28671
9000702c:	f860506c 	swi	r3, r0, 20588
90007030:	b60f0008 	rtsd	r15, 8
90007034:	3021001c 	addik	r1, r1, 28
90007038:	b0009001 	imm	-28671
9000703c:	f900506c 	swi	r8, r0, 20588
90007040:	b8100020 	brid	32		// 90007060
90007044:	10880000 	addk	r4, r8, r0
90007048:	b0009001 	imm	-28671
9000704c:	e86431ac 	lwi	r3, r4, 12716
90007050:	30840008 	addik	r4, r4, 8
90007054:	aa440030 	xori	r18, r4, 48
90007058:	be120034 	beqid	r18, 52		// 9000708c
9000705c:	81081800 	or	r8, r8, r3
90007060:	b0009001 	imm	-28671
90007064:	e86431a8 	lwi	r3, r4, 12712
90007068:	84671800 	and	r3, r7, r3
9000706c:	bc23ffdc 	bnei	r3, -36		// 90007048
90007070:	b0009001 	imm	-28671
90007074:	e86431ac 	lwi	r3, r4, 12716
90007078:	30840008 	addik	r4, r4, 8
9000707c:	a863ffff 	xori	r3, r3, -1
90007080:	aa440030 	xori	r18, r4, 48
90007084:	be32ffdc 	bneid	r18, -36		// 90007060
90007088:	85081800 	and	r8, r8, r3
9000708c:	b0009001 	imm	-28671
90007090:	e0863798 	lbui	r4, r6, 14232
90007094:	e8650004 	lwi	r3, r5, 4
90007098:	d9032000 	sw	r8, r3, r4
9000709c:	e9e10000 	lwi	r15, r1, 0
900070a0:	b60f0008 	rtsd	r15, 8
900070a4:	3021001c 	addik	r1, r1, 28
900070a8:	b0009001 	imm	-28671
900070ac:	30a03194 	addik	r5, r0, 12692
900070b0:	b9f40068 	brlid	r15, 104	// 90007118 <Xil_Assert>
900070b4:	30c0008b 	addik	r6, r0, 139
900070b8:	30600001 	addik	r3, r0, 1
900070bc:	b0009001 	imm	-28671
900070c0:	f860506c 	swi	r3, r0, 20588
900070c4:	b810ff28 	brid	-216		// 90006fec
900070c8:	e9e10000 	lwi	r15, r1, 0

900070cc <XAssert>:
900070cc:	b0009001 	imm	-28671
900070d0:	e8604fcc 	lwi	r3, r0, 20428
900070d4:	3021ffe4 	addik	r1, r1, -28
900070d8:	be030010 	beqid	r3, 16		// 900070e8
900070dc:	f9e10000 	swi	r15, r1, 0
900070e0:	99fc1800 	brald	r15, r3
900070e4:	80000000 	or	r0, r0, r0
900070e8:	b0009001 	imm	-28671
900070ec:	e860379c 	lwi	r3, r0, 14236
900070f0:	be230000 	bneid	r3, 0		// 900070f0
900070f4:	e9e10000 	lwi	r15, r1, 0
900070f8:	b60f0008 	rtsd	r15, 8
900070fc:	3021001c 	addik	r1, r1, 28

90007100 <XAssertSetCallback>:
90007100:	b0009001 	imm	-28671
90007104:	f8a04fcc 	swi	r5, r0, 20428
90007108:	b60f0008 	rtsd	r15, 8
9000710c:	80000000 	or	r0, r0, r0

90007110 <XNullHandler>:
90007110:	b60f0008 	rtsd	r15, 8
90007114:	80000000 	or	r0, r0, r0

90007118 <Xil_Assert>:
90007118:	b0009001 	imm	-28671
9000711c:	e8604fd0 	lwi	r3, r0, 20432
90007120:	3021ffe4 	addik	r1, r1, -28
90007124:	be030010 	beqid	r3, 16		// 90007134
90007128:	f9e10000 	swi	r15, r1, 0
9000712c:	99fc1800 	brald	r15, r3
90007130:	80000000 	or	r0, r0, r0
90007134:	b0009001 	imm	-28671
90007138:	e86037a0 	lwi	r3, r0, 14240
9000713c:	be230000 	bneid	r3, 0		// 9000713c
90007140:	e9e10000 	lwi	r15, r1, 0
90007144:	b60f0008 	rtsd	r15, 8
90007148:	3021001c 	addik	r1, r1, 28

9000714c <Xil_AssertSetCallback>:
9000714c:	b0009001 	imm	-28671
90007150:	f8a04fd0 	swi	r5, r0, 20432
90007154:	b60f0008 	rtsd	r15, 8
90007158:	80000000 	or	r0, r0, r0

9000715c <exit>:
9000715c:	3021ffe0 	addik	r1, r1, -32
90007160:	10c00000 	addk	r6, r0, r0
90007164:	fa61001c 	swi	r19, r1, 28
90007168:	f9e10000 	swi	r15, r1, 0
9000716c:	b9f437fc 	brlid	r15, 14332	// 9000a968 <__call_exitprocs>
90007170:	12650000 	addk	r19, r5, r0
90007174:	b0009001 	imm	-28671
90007178:	e8a031d8 	lwi	r5, r0, 12760
9000717c:	e8650028 	lwi	r3, r5, 40
90007180:	bc03000c 	beqi	r3, 12		// 9000718c
90007184:	99fc1800 	brald	r15, r3
90007188:	80000000 	or	r0, r0, r0
9000718c:	b9f4969c 	brlid	r15, -26980	// 90000828 <_exit>
90007190:	10b30000 	addk	r5, r19, r0

90007194 <free>:
90007194:	10c50000 	addk	r6, r5, r0
90007198:	b0009001 	imm	-28671
9000719c:	e8a037a4 	lwi	r5, r0, 14244
900071a0:	3021ffe4 	addik	r1, r1, -28
900071a4:	f9e10000 	swi	r15, r1, 0
900071a8:	b9f45b6c 	brlid	r15, 23404	// 9000cd14 <_free_r>
900071ac:	80000000 	or	r0, r0, r0
900071b0:	e9e10000 	lwi	r15, r1, 0
900071b4:	b60f0008 	rtsd	r15, 8
900071b8:	3021001c 	addik	r1, r1, 28

900071bc <malloc>:
900071bc:	10c50000 	addk	r6, r5, r0
900071c0:	b0009001 	imm	-28671
900071c4:	e8a037a4 	lwi	r5, r0, 14244
900071c8:	3021ffe4 	addik	r1, r1, -28
900071cc:	f9e10000 	swi	r15, r1, 0
900071d0:	b9f40014 	brlid	r15, 20	// 900071e4 <_malloc_r>
900071d4:	80000000 	or	r0, r0, r0
900071d8:	e9e10000 	lwi	r15, r1, 0
900071dc:	b60f0008 	rtsd	r15, 8
900071e0:	3021001c 	addik	r1, r1, 28

900071e4 <_malloc_r>:
900071e4:	3021ffc8 	addik	r1, r1, -56
900071e8:	3066000b 	addik	r3, r6, 11
900071ec:	fae10024 	swi	r23, r1, 36
900071f0:	f9e10000 	swi	r15, r1, 0
900071f4:	fa61001c 	swi	r19, r1, 28
900071f8:	fac10020 	swi	r22, r1, 32
900071fc:	fb010028 	swi	r24, r1, 40
90007200:	fb21002c 	swi	r25, r1, 44
90007204:	fb410030 	swi	r26, r1, 48
90007208:	fb610034 	swi	r27, r1, 52
9000720c:	22400016 	addi	r18, r0, 22
90007210:	16439003 	cmpu	r18, r3, r18
90007214:	be520054 	bltid	r18, 84		// 90007268
90007218:	12e50000 	addk	r23, r5, r0
9000721c:	32c00010 	addik	r22, r0, 16	// 10 <_vector_interrupt>
90007220:	10600000 	addk	r3, r0, r0
90007224:	1646b003 	cmpu	r18, r6, r22
90007228:	bc520008 	blti	r18, 8		// 90007230
9000722c:	bc030048 	beqi	r3, 72		// 90007274
90007230:	3060000c 	addik	r3, r0, 12
90007234:	10800000 	addk	r4, r0, r0
90007238:	f877000c 	swi	r3, r23, 12
9000723c:	10640000 	addk	r3, r4, r0
90007240:	e9e10000 	lwi	r15, r1, 0
90007244:	ea61001c 	lwi	r19, r1, 28
90007248:	eac10020 	lwi	r22, r1, 32
9000724c:	eae10024 	lwi	r23, r1, 36
90007250:	eb010028 	lwi	r24, r1, 40
90007254:	eb21002c 	lwi	r25, r1, 44
90007258:	eb410030 	lwi	r26, r1, 48
9000725c:	eb610034 	lwi	r27, r1, 52
90007260:	b60f0008 	rtsd	r15, 8
90007264:	30210038 	addik	r1, r1, 56
90007268:	a6c3fff8 	andi	r22, r3, -8
9000726c:	b810ffb8 	brid	-72		// 90007224
90007270:	6476001f 	bsrli	r3, r22, 31
90007274:	b9f408bc 	brlid	r15, 2236	// 90007b30 <__malloc_lock>
90007278:	10b70000 	addk	r5, r23, r0
9000727c:	224001f7 	addi	r18, r0, 503
90007280:	16569003 	cmpu	r18, r22, r18
90007284:	beb200d0 	bgeid	r18, 208		// 90007354
90007288:	64760009 	bsrli	r3, r22, 9
9000728c:	be23011c 	bneid	r3, 284		// 900073a8
90007290:	64d60003 	bsrli	r6, r22, 3
90007294:	64660403 	bslli	r3, r6, 3
90007298:	b0009001 	imm	-28671
9000729c:	33003898 	addik	r24, r0, 14488
900072a0:	10a3c000 	addk	r5, r3, r24
900072a4:	ea65000c 	lwi	r19, r5, 12
900072a8:	16532800 	rsubk	r18, r19, r5
900072ac:	be320024 	bneid	r18, 36		// 900072d0
900072b0:	31260001 	addik	r9, r6, 1
900072b4:	b800003c 	bri	60		// 900072f0
900072b8:	bea40264 	bgeid	r4, 612		// 9000751c
900072bc:	10f31800 	addk	r7, r19, r3
900072c0:	ea73000c 	lwi	r19, r19, 12
900072c4:	16532800 	rsubk	r18, r19, r5
900072c8:	be120028 	beqid	r18, 40		// 900072f0
900072cc:	31260001 	addik	r9, r6, 1
900072d0:	e8730004 	lwi	r3, r19, 4
900072d4:	a463fffc 	andi	r3, r3, -4
900072d8:	14961800 	rsubk	r4, r22, r3
900072dc:	3240000f 	addik	r18, r0, 15
900072e0:	16449001 	cmp	r18, r4, r18
900072e4:	bcb2ffd4 	bgei	r18, -44		// 900072b8
900072e8:	30c6ffff 	addik	r6, r6, -1
900072ec:	31260001 	addik	r9, r6, 1
900072f0:	b0009001 	imm	-28671
900072f4:	ea6038a8 	lwi	r19, r0, 14504
900072f8:	b0009001 	imm	-28671
900072fc:	314038a0 	addik	r10, r0, 14496
90007300:	b0009001 	imm	-28671
90007304:	aa5338a0 	xori	r18, r19, 14496
90007308:	bc1202dc 	beqi	r18, 732		// 900075e4
9000730c:	e8730004 	lwi	r3, r19, 4
90007310:	a483fffc 	andi	r4, r3, -4
90007314:	14d62000 	rsubk	r6, r22, r4
90007318:	3240000f 	addik	r18, r0, 15
9000731c:	16469001 	cmp	r18, r6, r18
90007320:	be520240 	bltid	r18, 576		// 90007560
90007324:	10b70000 	addk	r5, r23, r0
90007328:	f94a000c 	swi	r10, r10, 12
9000732c:	b0009001 	imm	-28671
90007330:	f94038a8 	swi	r10, r0, 14504
90007334:	bc4600a8 	blti	r6, 168		// 900073dc
90007338:	10932000 	addk	r4, r19, r4
9000733c:	e8640004 	lwi	r3, r4, 4
90007340:	a0630001 	ori	r3, r3, 1
90007344:	b9f407f4 	brlid	r15, 2036	// 90007b38 <__malloc_unlock>
90007348:	f8640004 	swi	r3, r4, 4
9000734c:	b810fef0 	brid	-272		// 9000723c
90007350:	30930008 	addik	r4, r19, 8
90007354:	b0009001 	imm	-28671
90007358:	33003898 	addik	r24, r0, 14488
9000735c:	1076c000 	addk	r3, r22, r24
90007360:	ea63000c 	lwi	r19, r3, 12
90007364:	16531800 	rsubk	r18, r19, r3
90007368:	be1201e0 	beqid	r18, 480		// 90007548
9000736c:	64960003 	bsrli	r4, r22, 3
90007370:	e8930004 	lwi	r4, r19, 4
90007374:	e8f3000c 	lwi	r7, r19, 12
90007378:	e8d30008 	lwi	r6, r19, 8
9000737c:	a484fffc 	andi	r4, r4, -4
90007380:	10932000 	addk	r4, r19, r4
90007384:	e8640004 	lwi	r3, r4, 4
90007388:	10b70000 	addk	r5, r23, r0
9000738c:	f8c70008 	swi	r6, r7, 8
90007390:	a0630001 	ori	r3, r3, 1
90007394:	f8640004 	swi	r3, r4, 4
90007398:	b9f407a0 	brlid	r15, 1952	// 90007b38 <__malloc_unlock>
9000739c:	f8e6000c 	swi	r7, r6, 12
900073a0:	b810fe9c 	brid	-356		// 9000723c
900073a4:	30930008 	addik	r4, r19, 8
900073a8:	22400004 	addi	r18, r0, 4
900073ac:	16439003 	cmpu	r18, r3, r18
900073b0:	bcb2001c 	bgei	r18, 28		// 900073cc
900073b4:	22400014 	addi	r18, r0, 20
900073b8:	16439003 	cmpu	r18, r3, r18
900073bc:	be520240 	bltid	r18, 576		// 900075fc
900073c0:	30c3005b 	addik	r6, r3, 91
900073c4:	b810fed4 	brid	-300		// 90007298
900073c8:	64660403 	bslli	r3, r6, 3
900073cc:	64760006 	bsrli	r3, r22, 6
900073d0:	30c30038 	addik	r6, r3, 56
900073d4:	b810fec4 	brid	-316		// 90007298
900073d8:	64660403 	bslli	r3, r6, 3
900073dc:	224001ff 	addi	r18, r0, 511
900073e0:	16449003 	cmpu	r18, r4, r18
900073e4:	be5202c8 	bltid	r18, 712		// 900076ac
900073e8:	64640009 	bsrli	r3, r4, 9
900073ec:	64840003 	bsrli	r4, r4, 3
900073f0:	b0009001 	imm	-28671
900073f4:	e8e0389c 	lwi	r7, r0, 14492
900073f8:	64a40403 	bslli	r5, r4, 3
900073fc:	64840002 	bsrli	r4, r4, 2
90007400:	10b82800 	addk	r5, r24, r5
90007404:	e8c50008 	lwi	r6, r5, 8
90007408:	30600001 	addik	r3, r0, 1
9000740c:	44632400 	bsll	r3, r3, r4
90007410:	b0009001 	imm	-28671
90007414:	33603898 	addik	r27, r0, 14488
90007418:	80e71800 	or	r7, r7, r3
9000741c:	f8b3000c 	swi	r5, r19, 12
90007420:	f8d30008 	swi	r6, r19, 8
90007424:	fa66000c 	swi	r19, r6, 12
90007428:	fa650008 	swi	r19, r5, 8
9000742c:	b0009001 	imm	-28671
90007430:	f8e0389c 	swi	r7, r0, 14492
90007434:	6469021f 	bsrai	r3, r9, 31
90007438:	30800001 	addik	r4, r0, 1
9000743c:	a4630003 	andi	r3, r3, 3
90007440:	10634800 	addk	r3, r3, r9
90007444:	64630202 	bsrai	r3, r3, 2
90007448:	44a41c00 	bsll	r5, r4, r3
9000744c:	16453803 	cmpu	r18, r5, r7
90007450:	be520144 	bltid	r18, 324		// 90007594
90007454:	84653800 	and	r3, r5, r7
90007458:	be230030 	bneid	r3, 48		// 90007488
9000745c:	64690403 	bslli	r3, r9, 3
90007460:	10a52800 	addk	r5, r5, r5
90007464:	a469fffc 	andi	r3, r9, -4
90007468:	84872800 	and	r4, r7, r5
9000746c:	be240018 	bneid	r4, 24		// 90007484
90007470:	31230004 	addik	r9, r3, 4
90007474:	10a52800 	addk	r5, r5, r5
90007478:	84672800 	and	r3, r7, r5
9000747c:	be03fff8 	beqid	r3, -8		// 90007474
90007480:	31290004 	addik	r9, r9, 4
90007484:	64690403 	bslli	r3, r9, 3
90007488:	11690000 	addk	r11, r9, r0
9000748c:	1183c000 	addk	r12, r3, r24
90007490:	108c0000 	addk	r4, r12, r0
90007494:	ea64000c 	lwi	r19, r4, 12
90007498:	16532000 	rsubk	r18, r19, r4
9000749c:	bc320020 	bnei	r18, 32		// 900074bc
900074a0:	b8100270 	brid	624		// 90007710
900074a4:	316b0001 	addik	r11, r11, 1
900074a8:	bea8027c 	bgeid	r8, 636		// 90007724
900074ac:	10d31800 	addk	r6, r19, r3
900074b0:	ea73000c 	lwi	r19, r19, 12
900074b4:	16532000 	rsubk	r18, r19, r4
900074b8:	bc120254 	beqi	r18, 596		// 9000770c
900074bc:	e8730004 	lwi	r3, r19, 4
900074c0:	a463fffc 	andi	r3, r3, -4
900074c4:	15161800 	rsubk	r8, r22, r3
900074c8:	3240000f 	addik	r18, r0, 15
900074cc:	16489001 	cmp	r18, r8, r18
900074d0:	bcb2ffd8 	bgei	r18, -40		// 900074a8
900074d4:	e8930008 	lwi	r4, r19, 8
900074d8:	e8d3000c 	lwi	r6, r19, 12
900074dc:	1073b000 	addk	r3, r19, r22
900074e0:	a0f60001 	ori	r7, r22, 1
900074e4:	f8860008 	swi	r4, r6, 8
900074e8:	f8c4000c 	swi	r6, r4, 12
900074ec:	10b70000 	addk	r5, r23, r0
900074f0:	a0880001 	ori	r4, r8, 1
900074f4:	f8f30004 	swi	r7, r19, 4
900074f8:	f86a000c 	swi	r3, r10, 12
900074fc:	f86a0008 	swi	r3, r10, 8
90007500:	f8830004 	swi	r4, r3, 4
90007504:	d9081800 	sw	r8, r8, r3
90007508:	f9430008 	swi	r10, r3, 8
9000750c:	b9f4062c 	brlid	r15, 1580	// 90007b38 <__malloc_unlock>
90007510:	f943000c 	swi	r10, r3, 12
90007514:	b810fd28 	brid	-728		// 9000723c
90007518:	30930008 	addik	r4, r19, 8
9000751c:	e8670004 	lwi	r3, r7, 4
90007520:	e8930008 	lwi	r4, r19, 8
90007524:	e8d3000c 	lwi	r6, r19, 12
90007528:	10b70000 	addk	r5, r23, r0
9000752c:	a0630001 	ori	r3, r3, 1
90007530:	f8860008 	swi	r4, r6, 8
90007534:	f8c4000c 	swi	r6, r4, 12
90007538:	b9f40600 	brlid	r15, 1536	// 90007b38 <__malloc_unlock>
9000753c:	f8670004 	swi	r3, r7, 4
90007540:	b810fcfc 	brid	-772		// 9000723c
90007544:	30930008 	addik	r4, r19, 8
90007548:	30630008 	addik	r3, r3, 8
9000754c:	ea63000c 	lwi	r19, r3, 12
90007550:	16531800 	rsubk	r18, r19, r3
90007554:	be32fe1c 	bneid	r18, -484		// 90007370
90007558:	31240002 	addik	r9, r4, 2
9000755c:	b800fd94 	bri	-620		// 900072f0
90007560:	1093b000 	addk	r4, r19, r22
90007564:	a0760001 	ori	r3, r22, 1
90007568:	f8730004 	swi	r3, r19, 4
9000756c:	f88a000c 	swi	r4, r10, 12
90007570:	f88a0008 	swi	r4, r10, 8
90007574:	a0660001 	ori	r3, r6, 1
90007578:	d8c62000 	sw	r6, r6, r4
9000757c:	f9440008 	swi	r10, r4, 8
90007580:	f8640004 	swi	r3, r4, 4
90007584:	b9f405b4 	brlid	r15, 1460	// 90007b38 <__malloc_unlock>
90007588:	f944000c 	swi	r10, r4, 12
9000758c:	b810fcb0 	brid	-848		// 9000723c
90007590:	30930008 	addik	r4, r19, 8
90007594:	b0009001 	imm	-28671
90007598:	eb0038a0 	lwi	r24, r0, 14496
9000759c:	e8780004 	lwi	r3, r24, 4
900075a0:	a743fffc 	andi	r26, r3, -4
900075a4:	1656d003 	cmpu	r18, r22, r26
900075a8:	be520070 	bltid	r18, 112		// 90007618
900075ac:	14d6d000 	rsubk	r6, r22, r26
900075b0:	3240000f 	addik	r18, r0, 15
900075b4:	16469001 	cmp	r18, r6, r18
900075b8:	bcb20060 	bgei	r18, 96		// 90007618
900075bc:	a0760001 	ori	r3, r22, 1
900075c0:	10b70000 	addk	r5, r23, r0
900075c4:	1098b000 	addk	r4, r24, r22
900075c8:	f8780004 	swi	r3, r24, 4
900075cc:	a0660001 	ori	r3, r6, 1
900075d0:	f8640004 	swi	r3, r4, 4
900075d4:	b9f40564 	brlid	r15, 1380	// 90007b38 <__malloc_unlock>
900075d8:	f89b0008 	swi	r4, r27, 8
900075dc:	b810fc60 	brid	-928		// 9000723c
900075e0:	30980008 	addik	r4, r24, 8
900075e4:	b0009001 	imm	-28671
900075e8:	33603898 	addik	r27, r0, 14488
900075ec:	b0009001 	imm	-28671
900075f0:	e8e0389c 	lwi	r7, r0, 14492
900075f4:	b810fe44 	brid	-444		// 90007438
900075f8:	6469021f 	bsrai	r3, r9, 31
900075fc:	22400054 	addi	r18, r0, 84
90007600:	16439003 	cmpu	r18, r3, r18
90007604:	bc52014c 	blti	r18, 332		// 90007750
90007608:	6476000c 	bsrli	r3, r22, 12
9000760c:	30c3006e 	addik	r6, r3, 110
90007610:	b810fc88 	brid	-888		// 90007298
90007614:	64660403 	bslli	r3, r6, 3
90007618:	b0009001 	imm	-28671
9000761c:	e8604fd4 	lwi	r3, r0, 20436
90007620:	b0009001 	imm	-28671
90007624:	e8803ca4 	lwi	r4, r0, 15524
90007628:	30630010 	addik	r3, r3, 16
9000762c:	aa44ffff 	xori	r18, r4, -1
90007630:	be120010 	beqid	r18, 16		// 90007640
90007634:	12761800 	addk	r19, r22, r3
90007638:	3073007f 	addik	r3, r19, 127
9000763c:	a663ff80 	andi	r19, r3, -128
90007640:	10b70000 	addk	r5, r23, r0
90007644:	b9f405f4 	brlid	r15, 1524	// 90007c38 <_sbrk_r>
90007648:	10d30000 	addk	r6, r19, r0
9000764c:	aa43ffff 	xori	r18, r3, -1
90007650:	be120024 	beqid	r18, 36		// 90007674
90007654:	10830000 	addk	r4, r3, r0
90007658:	10b8d000 	addk	r5, r24, r26
9000765c:	16451803 	cmpu	r18, r5, r3
90007660:	beb2010c 	bgeid	r18, 268		// 9000776c
90007664:	13230000 	addk	r25, r3, r0
90007668:	b0009001 	imm	-28671
9000766c:	aa583898 	xori	r18, r24, 14488
90007670:	bc120360 	beqi	r18, 864		// 900079d0
90007674:	b0009001 	imm	-28671
90007678:	eb0038a0 	lwi	r24, r0, 14496
9000767c:	e8780004 	lwi	r3, r24, 4
90007680:	a463fffc 	andi	r3, r3, -4
90007684:	16561803 	cmpu	r18, r22, r3
90007688:	be520014 	bltid	r18, 20		// 9000769c
9000768c:	14d61800 	rsubk	r6, r22, r3
90007690:	3240000f 	addik	r18, r0, 15
90007694:	16469001 	cmp	r18, r6, r18
90007698:	bc52ff24 	blti	r18, -220		// 900075bc
9000769c:	b9f4049c 	brlid	r15, 1180	// 90007b38 <__malloc_unlock>
900076a0:	10b70000 	addk	r5, r23, r0
900076a4:	b810fb98 	brid	-1128		// 9000723c
900076a8:	10800000 	addk	r4, r0, r0
900076ac:	bc23018c 	bnei	r3, 396		// 90007838
900076b0:	64640003 	bsrli	r3, r4, 3
900076b4:	64a30403 	bslli	r5, r3, 3
900076b8:	10d82800 	addk	r6, r24, r5
900076bc:	e8a60008 	lwi	r5, r6, 8
900076c0:	16453000 	rsubk	r18, r5, r6
900076c4:	bc120264 	beqi	r18, 612		// 90007928
900076c8:	e8650004 	lwi	r3, r5, 4
900076cc:	a463fffc 	andi	r3, r3, -4
900076d0:	16432003 	cmpu	r18, r3, r4
900076d4:	bcb20010 	bgei	r18, 16		// 900076e4
900076d8:	e8a50008 	lwi	r5, r5, 8
900076dc:	16453000 	rsubk	r18, r5, r6
900076e0:	bc32ffe8 	bnei	r18, -24		// 900076c8
900076e4:	e8c5000c 	lwi	r6, r5, 12
900076e8:	b0009001 	imm	-28671
900076ec:	e8e0389c 	lwi	r7, r0, 14492
900076f0:	b0009001 	imm	-28671
900076f4:	33603898 	addik	r27, r0, 14488
900076f8:	f8d3000c 	swi	r6, r19, 12
900076fc:	f8b30008 	swi	r5, r19, 8
90007700:	fa65000c 	swi	r19, r5, 12
90007704:	b810fd30 	brid	-720		// 90007434
90007708:	fa660008 	swi	r19, r6, 8
9000770c:	316b0001 	addik	r11, r11, 1
90007710:	a46b0003 	andi	r3, r11, 3
90007714:	be030274 	beqid	r3, 628		// 90007988
90007718:	30840008 	addik	r4, r4, 8
9000771c:	b810fd7c 	brid	-644		// 90007498
90007720:	ea64000c 	lwi	r19, r4, 12
90007724:	e8660004 	lwi	r3, r6, 4
90007728:	e8930008 	lwi	r4, r19, 8
9000772c:	e8f3000c 	lwi	r7, r19, 12
90007730:	10b70000 	addk	r5, r23, r0
90007734:	a0630001 	ori	r3, r3, 1
90007738:	f8870008 	swi	r4, r7, 8
9000773c:	f8e4000c 	swi	r7, r4, 12
90007740:	b9f403f8 	brlid	r15, 1016	// 90007b38 <__malloc_unlock>
90007744:	f8660004 	swi	r3, r6, 4
90007748:	b810faf4 	brid	-1292		// 9000723c
9000774c:	30930008 	addik	r4, r19, 8
90007750:	22400154 	addi	r18, r0, 340
90007754:	16439003 	cmpu	r18, r3, r18
90007758:	bc5200fc 	blti	r18, 252		// 90007854
9000775c:	6476000f 	bsrli	r3, r22, 15
90007760:	30c30077 	addik	r6, r3, 119
90007764:	b810fb34 	brid	-1228		// 90007298
90007768:	64660403 	bslli	r3, r6, 3
9000776c:	b0009001 	imm	-28671
90007770:	e8e04fe0 	lwi	r7, r0, 20448
90007774:	10d33800 	addk	r6, r19, r7
90007778:	b0009001 	imm	-28671
9000777c:	f8c04fe0 	swi	r6, r0, 20448
90007780:	16432800 	rsubk	r18, r3, r5
90007784:	be120264 	beqid	r18, 612		// 900079e8
90007788:	10e60000 	addk	r7, r6, r0
9000778c:	b0009001 	imm	-28671
90007790:	e8603ca4 	lwi	r3, r0, 15524
90007794:	aa43ffff 	xori	r18, r3, -1
90007798:	bc1201e0 	beqi	r18, 480		// 90007978
9000779c:	14652000 	rsubk	r3, r5, r4
900077a0:	10e61800 	addk	r7, r6, r3
900077a4:	b0009001 	imm	-28671
900077a8:	f8e04fe0 	swi	r7, r0, 20448
900077ac:	a4640007 	andi	r3, r4, 7
900077b0:	be030010 	beqid	r3, 16		// 900077c0
900077b4:	10c30000 	addk	r6, r3, r0
900077b8:	34c30008 	rsubik	r6, r3, 8
900077bc:	13243000 	addk	r25, r4, r6
900077c0:	10799800 	addk	r3, r25, r19
900077c4:	a463007f 	andi	r3, r3, 127
900077c8:	34630080 	rsubik	r3, r3, 128
900077cc:	12661800 	addk	r19, r6, r3
900077d0:	10b70000 	addk	r5, r23, r0
900077d4:	b9f40464 	brlid	r15, 1124	// 90007c38 <_sbrk_r>
900077d8:	10d30000 	addk	r6, r19, r0
900077dc:	aa43ffff 	xori	r18, r3, -1
900077e0:	bc12018c 	beqi	r18, 396		// 9000796c
900077e4:	14791800 	rsubk	r3, r25, r3
900077e8:	10639800 	addk	r3, r3, r19
900077ec:	a0630001 	ori	r3, r3, 1
900077f0:	b0009001 	imm	-28671
900077f4:	e8e04fe0 	lwi	r7, r0, 20448
900077f8:	f8790004 	swi	r3, r25, 4
900077fc:	fb3b0008 	swi	r25, r27, 8
90007800:	10f33800 	addk	r7, r19, r7
90007804:	b0009001 	imm	-28671
90007808:	f8e04fe0 	swi	r7, r0, 20448
9000780c:	b0009001 	imm	-28671
90007810:	aa583898 	xori	r18, r24, 14488
90007814:	bc120058 	beqi	r18, 88		// 9000786c
90007818:	2240000f 	addi	r18, r0, 15
9000781c:	165a9003 	cmpu	r18, r26, r18
90007820:	be5200a4 	bltid	r18, 164		// 900078c4
90007824:	30600001 	addik	r3, r0, 1
90007828:	b0009001 	imm	-28671
9000782c:	eb0038a0 	lwi	r24, r0, 14496
90007830:	b810fe4c 	brid	-436		// 9000767c
90007834:	f8790004 	swi	r3, r25, 4
90007838:	22400004 	addi	r18, r0, 4
9000783c:	16439003 	cmpu	r18, r3, r18
90007840:	bc52006c 	blti	r18, 108		// 900078ac
90007844:	64640006 	bsrli	r3, r4, 6
90007848:	30630038 	addik	r3, r3, 56
9000784c:	b810fe6c 	brid	-404		// 900076b8
90007850:	64a30403 	bslli	r5, r3, 3
90007854:	22400554 	addi	r18, r0, 1364
90007858:	16439003 	cmpu	r18, r3, r18
9000785c:	bcb200bc 	bgei	r18, 188		// 90007918
90007860:	30c0007e 	addik	r6, r0, 126
90007864:	b810fa34 	brid	-1484		// 90007298
90007868:	306003f0 	addik	r3, r0, 1008
9000786c:	b0009001 	imm	-28671
90007870:	eb0038a0 	lwi	r24, r0, 14496
90007874:	b0009001 	imm	-28671
90007878:	e8604fd8 	lwi	r3, r0, 20440
9000787c:	16471803 	cmpu	r18, r7, r3
90007880:	bcb2000c 	bgei	r18, 12		// 9000788c
90007884:	b0009001 	imm	-28671
90007888:	f8e04fd8 	swi	r7, r0, 20440
9000788c:	b0009001 	imm	-28671
90007890:	e8604fdc 	lwi	r3, r0, 20444
90007894:	16471803 	cmpu	r18, r7, r3
90007898:	bcb2fde4 	bgei	r18, -540		// 9000767c
9000789c:	b0009001 	imm	-28671
900078a0:	f8e04fdc 	swi	r7, r0, 20444
900078a4:	b810fddc 	brid	-548		// 90007680
900078a8:	e8780004 	lwi	r3, r24, 4
900078ac:	22400014 	addi	r18, r0, 20
900078b0:	16439003 	cmpu	r18, r3, r18
900078b4:	bc52009c 	blti	r18, 156		// 90007950
900078b8:	3063005b 	addik	r3, r3, 91
900078bc:	b810fdfc 	brid	-516		// 900076b8
900078c0:	64a30403 	bslli	r5, r3, 3
900078c4:	e8780004 	lwi	r3, r24, 4
900078c8:	309afff4 	addik	r4, r26, -12
900078cc:	a484fff8 	andi	r4, r4, -8
900078d0:	a4630001 	andi	r3, r3, 1
900078d4:	80641800 	or	r3, r4, r3
900078d8:	f8780004 	swi	r3, r24, 4
900078dc:	10b82000 	addk	r5, r24, r4
900078e0:	30600005 	addik	r3, r0, 5
900078e4:	f8650008 	swi	r3, r5, 8
900078e8:	2240000f 	addi	r18, r0, 15
900078ec:	16449003 	cmpu	r18, r4, r18
900078f0:	beb2ff7c 	bgeid	r18, -132		// 9000786c
900078f4:	f8650004 	swi	r3, r5, 4
900078f8:	10b70000 	addk	r5, r23, r0
900078fc:	b9f45418 	brlid	r15, 21528	// 9000cd14 <_free_r>
90007900:	30d80008 	addik	r6, r24, 8
90007904:	b0009001 	imm	-28671
90007908:	eb0038a0 	lwi	r24, r0, 14496
9000790c:	b0009001 	imm	-28671
90007910:	e8e04fe0 	lwi	r7, r0, 20448
90007914:	b800ff60 	bri	-160		// 90007874
90007918:	64760012 	bsrli	r3, r22, 18
9000791c:	30c3007c 	addik	r6, r3, 124
90007920:	b810f978 	brid	-1672		// 90007298
90007924:	64660403 	bslli	r3, r6, 3
90007928:	64830002 	bsrli	r4, r3, 2
9000792c:	b0009001 	imm	-28671
90007930:	e8e0389c 	lwi	r7, r0, 14492
90007934:	30600001 	addik	r3, r0, 1
90007938:	44632400 	bsll	r3, r3, r4
9000793c:	80e71800 	or	r7, r7, r3
90007940:	b0009001 	imm	-28671
90007944:	f8e0389c 	swi	r7, r0, 14492
90007948:	b810fda8 	brid	-600		// 900076f0
9000794c:	10a60000 	addk	r5, r6, r0
90007950:	22400054 	addi	r18, r0, 84
90007954:	16439003 	cmpu	r18, r3, r18
90007958:	bc5200b0 	blti	r18, 176		// 90007a08
9000795c:	6464000c 	bsrli	r3, r4, 12
90007960:	3063006e 	addik	r3, r3, 110
90007964:	b810fd54 	brid	-684		// 900076b8
90007968:	64a30403 	bslli	r5, r3, 3
9000796c:	12600000 	addk	r19, r0, r0
90007970:	b810fe80 	brid	-384		// 900077f0
90007974:	30600001 	addik	r3, r0, 1
90007978:	b0009001 	imm	-28671
9000797c:	f8803ca4 	swi	r4, r0, 15524
90007980:	b810fe30 	brid	-464		// 900077b0
90007984:	a4640007 	andi	r3, r4, 7
90007988:	10c90000 	addk	r6, r9, r0
9000798c:	108c0000 	addk	r4, r12, r0
90007990:	a4660003 	andi	r3, r6, 3
90007994:	3084fff8 	addik	r4, r4, -8
90007998:	be03008c 	beqid	r3, 140		// 90007a24
9000799c:	30c6ffff 	addik	r6, r6, -1
900079a0:	e8640008 	lwi	r3, r4, 8
900079a4:	16441800 	rsubk	r18, r4, r3
900079a8:	be12ffec 	beqid	r18, -20		// 90007994
900079ac:	a4660003 	andi	r3, r6, 3
900079b0:	10a52800 	addk	r5, r5, r5
900079b4:	16453803 	cmpu	r18, r5, r7
900079b8:	bc52fbdc 	blti	r18, -1060		// 90007594
900079bc:	be05fbd8 	beqid	r5, -1064		// 90007594
900079c0:	84653800 	and	r3, r5, r7
900079c4:	bc030094 	beqi	r3, 148		// 90007a58
900079c8:	b810fabc 	brid	-1348		// 90007484
900079cc:	112b0000 	addk	r9, r11, r0
900079d0:	b0009001 	imm	-28671
900079d4:	e8604fe0 	lwi	r3, r0, 20448
900079d8:	10d31800 	addk	r6, r19, r3
900079dc:	b0009001 	imm	-28671
900079e0:	f8c04fe0 	swi	r6, r0, 20448
900079e4:	b800fda8 	bri	-600		// 9000778c
900079e8:	a465007f 	andi	r3, r5, 127
900079ec:	be23fda0 	bneid	r3, -608		// 9000778c
900079f0:	1073d000 	addk	r3, r19, r26
900079f4:	b0009001 	imm	-28671
900079f8:	eb0038a0 	lwi	r24, r0, 14496
900079fc:	a0630001 	ori	r3, r3, 1
90007a00:	b810fe74 	brid	-396		// 90007874
90007a04:	f8780004 	swi	r3, r24, 4
90007a08:	22400154 	addi	r18, r0, 340
90007a0c:	16439003 	cmpu	r18, r3, r18
90007a10:	bc520030 	blti	r18, 48		// 90007a40
90007a14:	6464000f 	bsrli	r3, r4, 15
90007a18:	30630077 	addik	r3, r3, 119
90007a1c:	b810fc9c 	brid	-868		// 900076b8
90007a20:	64a30403 	bslli	r5, r3, 3
90007a24:	a865ffff 	xori	r3, r5, -1
90007a28:	84671800 	and	r3, r7, r3
90007a2c:	f87b0004 	swi	r3, r27, 4
90007a30:	b0009001 	imm	-28671
90007a34:	e8e0389c 	lwi	r7, r0, 14492
90007a38:	b810ff7c 	brid	-132		// 900079b4
90007a3c:	10a52800 	addk	r5, r5, r5
90007a40:	22400554 	addi	r18, r0, 1364
90007a44:	16439003 	cmpu	r18, r3, r18
90007a48:	bcb20028 	bgei	r18, 40		// 90007a70
90007a4c:	3060007e 	addik	r3, r0, 126
90007a50:	b810fc68 	brid	-920		// 900076b8
90007a54:	30a003f0 	addik	r5, r0, 1008
90007a58:	10a52800 	addk	r5, r5, r5
90007a5c:	84672800 	and	r3, r7, r5
90007a60:	be23ff68 	bneid	r3, -152		// 900079c8
90007a64:	316b0004 	addik	r11, r11, 4
90007a68:	b810fff4 	brid	-12		// 90007a5c
90007a6c:	10a52800 	addk	r5, r5, r5
90007a70:	64640012 	bsrli	r3, r4, 18
90007a74:	3063007c 	addik	r3, r3, 124
90007a78:	b810fc40 	brid	-960		// 900076b8
90007a7c:	64a30403 	bslli	r5, r3, 3

90007a80 <memset>:
90007a80:	a4c600ff 	andi	r6, r6, 255
90007a84:	22400003 	addi	r18, r0, 3
90007a88:	16479003 	cmpu	r18, r7, r18
90007a8c:	beb20014 	bgeid	r18, 20		// 90007aa0
90007a90:	10850000 	addk	r4, r5, r0
90007a94:	a4650003 	andi	r3, r5, 3
90007a98:	be03002c 	beqid	r3, 44		// 90007ac4
90007a9c:	64660408 	bslli	r3, r6, 8
90007aa0:	bc07001c 	beqi	r7, 28		// 90007abc
90007aa4:	90660060 	sext8	r3, r6
90007aa8:	10e72000 	addk	r7, r7, r4
90007aac:	f0640000 	sbi	r3, r4, 0
90007ab0:	30840001 	addik	r4, r4, 1
90007ab4:	16472000 	rsubk	r18, r7, r4
90007ab8:	bc32fff4 	bnei	r18, -12		// 90007aac
90007abc:	b60f0008 	rtsd	r15, 8
90007ac0:	10650000 	addk	r3, r5, r0
90007ac4:	11050000 	addk	r8, r5, r0
90007ac8:	80661800 	or	r3, r6, r3
90007acc:	64830410 	bslli	r4, r3, 16
90007ad0:	2240000f 	addi	r18, r0, 15
90007ad4:	16479003 	cmpu	r18, r7, r18
90007ad8:	beb20038 	bgeid	r18, 56		// 90007b10
90007adc:	80632000 	or	r3, r3, r4
90007ae0:	30e7fff0 	addik	r7, r7, -16
90007ae4:	f8680000 	swi	r3, r8, 0
90007ae8:	f8680004 	swi	r3, r8, 4
90007aec:	f8680008 	swi	r3, r8, 8
90007af0:	f868000c 	swi	r3, r8, 12
90007af4:	2240000f 	addi	r18, r0, 15
90007af8:	16479003 	cmpu	r18, r7, r18
90007afc:	be52ffe4 	bltid	r18, -28		// 90007ae0
90007b00:	31080010 	addik	r8, r8, 16
90007b04:	22400003 	addi	r18, r0, 3
90007b08:	16479003 	cmpu	r18, r7, r18
90007b0c:	bcb2001c 	bgei	r18, 28		// 90007b28
90007b10:	30e7fffc 	addik	r7, r7, -4
90007b14:	f8680000 	swi	r3, r8, 0
90007b18:	22400003 	addi	r18, r0, 3
90007b1c:	16479003 	cmpu	r18, r7, r18
90007b20:	be52fff0 	bltid	r18, -16		// 90007b10
90007b24:	31080004 	addik	r8, r8, 4
90007b28:	b810ff78 	brid	-136		// 90007aa0
90007b2c:	10880000 	addk	r4, r8, r0

90007b30 <__malloc_lock>:
90007b30:	b60f0008 	rtsd	r15, 8
90007b34:	80000000 	or	r0, r0, r0

90007b38 <__malloc_unlock>:
90007b38:	b60f0008 	rtsd	r15, 8
90007b3c:	80000000 	or	r0, r0, r0

90007b40 <printf>:
90007b40:	b0009001 	imm	-28671
90007b44:	e88037a4 	lwi	r4, r0, 14244
90007b48:	f8a10004 	swi	r5, r1, 4
90007b4c:	f8c10008 	swi	r6, r1, 8
90007b50:	f8e1000c 	swi	r7, r1, 12
90007b54:	f9010010 	swi	r8, r1, 16
90007b58:	f9210014 	swi	r9, r1, 20
90007b5c:	f9410018 	swi	r10, r1, 24
90007b60:	3021ffdc 	addik	r1, r1, -36
90007b64:	fa610020 	swi	r19, r1, 32
90007b68:	f9e10000 	swi	r15, r1, 0
90007b6c:	be040014 	beqid	r4, 20		// 90007b80
90007b70:	12650000 	addk	r19, r5, r0
90007b74:	e8640018 	lwi	r3, r4, 24
90007b78:	be030030 	beqid	r3, 48		// 90007ba8
90007b7c:	10a40000 	addk	r5, r4, r0
90007b80:	3061002c 	addik	r3, r1, 44
90007b84:	10d30000 	addk	r6, r19, r0
90007b88:	e8a40004 	lwi	r5, r4, 4
90007b8c:	10e30000 	addk	r7, r3, r0
90007b90:	b9f42400 	brlid	r15, 9216	// 90009f90 <vfprintf>
90007b94:	f861001c 	swi	r3, r1, 28
90007b98:	e9e10000 	lwi	r15, r1, 0
90007b9c:	ea610020 	lwi	r19, r1, 32
90007ba0:	b60f0008 	rtsd	r15, 8
90007ba4:	30210024 	addik	r1, r1, 36
90007ba8:	b9f44ae4 	brlid	r15, 19172	// 9000c68c <__sinit>
90007bac:	80000000 	or	r0, r0, r0
90007bb0:	b0009001 	imm	-28671
90007bb4:	e88037a4 	lwi	r4, r0, 14244
90007bb8:	b810ffcc 	brid	-52		// 90007b84
90007bbc:	3061002c 	addik	r3, r1, 44

90007bc0 <_printf_r>:
90007bc0:	f8c10008 	swi	r6, r1, 8
90007bc4:	f8e1000c 	swi	r7, r1, 12
90007bc8:	f9010010 	swi	r8, r1, 16
90007bcc:	f9210014 	swi	r9, r1, 20
90007bd0:	f9410018 	swi	r10, r1, 24
90007bd4:	3021ffd8 	addik	r1, r1, -40
90007bd8:	fa610020 	swi	r19, r1, 32
90007bdc:	fac10024 	swi	r22, r1, 36
90007be0:	f9e10000 	swi	r15, r1, 0
90007be4:	12650000 	addk	r19, r5, r0
90007be8:	be050010 	beqid	r5, 16		// 90007bf8
90007bec:	12c60000 	addk	r22, r6, r0
90007bf0:	e8650018 	lwi	r3, r5, 24
90007bf4:	bc030034 	beqi	r3, 52		// 90007c28
90007bf8:	30610034 	addik	r3, r1, 52
90007bfc:	10b30000 	addk	r5, r19, r0
90007c00:	10f60000 	addk	r7, r22, r0
90007c04:	e8d30004 	lwi	r6, r19, 4
90007c08:	11030000 	addk	r8, r3, r0
90007c0c:	b9f40174 	brlid	r15, 372	// 90007d80 <_vfprintf_r>
90007c10:	f861001c 	swi	r3, r1, 28
90007c14:	e9e10000 	lwi	r15, r1, 0
90007c18:	ea610020 	lwi	r19, r1, 32
90007c1c:	eac10024 	lwi	r22, r1, 36
90007c20:	b60f0008 	rtsd	r15, 8
90007c24:	30210028 	addik	r1, r1, 40
90007c28:	b9f44a64 	brlid	r15, 19044	// 9000c68c <__sinit>
90007c2c:	80000000 	or	r0, r0, r0
90007c30:	b810ffcc 	brid	-52		// 90007bfc
90007c34:	30610034 	addik	r3, r1, 52

90007c38 <_sbrk_r>:
90007c38:	3021ffe0 	addik	r1, r1, -32
90007c3c:	fa61001c 	swi	r19, r1, 28
90007c40:	12650000 	addk	r19, r5, r0
90007c44:	f9e10000 	swi	r15, r1, 0
90007c48:	b0009001 	imm	-28671
90007c4c:	f8005070 	swi	r0, r0, 20592
90007c50:	b0000000 	imm	0
90007c54:	b9f48b94 	brlid	r15, -29804	// 900107e8 <sbrk>
90007c58:	10a60000 	addk	r5, r6, r0
90007c5c:	aa43ffff 	xori	r18, r3, -1
90007c60:	be120014 	beqid	r18, 20		// 90007c74
90007c64:	e9e10000 	lwi	r15, r1, 0
90007c68:	ea61001c 	lwi	r19, r1, 28
90007c6c:	b60f0008 	rtsd	r15, 8
90007c70:	30210020 	addik	r1, r1, 32
90007c74:	b0009001 	imm	-28671
90007c78:	e8805070 	lwi	r4, r0, 20592
90007c7c:	bc04ffec 	beqi	r4, -20		// 90007c68
90007c80:	f893000c 	swi	r4, r19, 12
90007c84:	e9e10000 	lwi	r15, r1, 0
90007c88:	ea61001c 	lwi	r19, r1, 28
90007c8c:	b60f0008 	rtsd	r15, 8
90007c90:	30210020 	addik	r1, r1, 32

90007c94 <strncpy>:
90007c94:	80662800 	or	r3, r6, r5
90007c98:	a4630003 	andi	r3, r3, 3
90007c9c:	be23001c 	bneid	r3, 28		// 90007cb8
90007ca0:	11450000 	addk	r10, r5, r0
90007ca4:	22400003 	addi	r18, r0, 3
90007ca8:	16479003 	cmpu	r18, r7, r18
90007cac:	be520070 	bltid	r18, 112		// 90007d1c
90007cb0:	11050000 	addk	r8, r5, r0
90007cb4:	11450000 	addk	r10, r5, r0
90007cb8:	be07005c 	beqid	r7, 92		// 90007d14
90007cbc:	310a0001 	addik	r8, r10, 1
90007cc0:	e0660000 	lbui	r3, r6, 0
90007cc4:	30e7ffff 	addik	r7, r7, -1
90007cc8:	90630060 	sext8	r3, r3
90007ccc:	f06a0000 	sbi	r3, r10, 0
90007cd0:	be030028 	beqid	r3, 40		// 90007cf8
90007cd4:	30860001 	addik	r4, r6, 1
90007cd8:	bc07003c 	beqi	r7, 60		// 90007d14
90007cdc:	e0640000 	lbui	r3, r4, 0
90007ce0:	30e7ffff 	addik	r7, r7, -1
90007ce4:	30840001 	addik	r4, r4, 1
90007ce8:	90630060 	sext8	r3, r3
90007cec:	f0680000 	sbi	r3, r8, 0
90007cf0:	be23ffe8 	bneid	r3, -24		// 90007cd8
90007cf4:	31080001 	addik	r8, r8, 1
90007cf8:	bc07001c 	beqi	r7, 28		// 90007d14
90007cfc:	10680000 	addk	r3, r8, r0
90007d00:	10e83800 	addk	r7, r8, r7
90007d04:	f0030000 	sbi	r0, r3, 0
90007d08:	30630001 	addik	r3, r3, 1
90007d0c:	16471800 	rsubk	r18, r7, r3
90007d10:	bc32fff4 	bnei	r18, -12		// 90007d04
90007d14:	b60f0008 	rtsd	r15, 8
90007d18:	10650000 	addk	r3, r5, r0
90007d1c:	22400003 	addi	r18, r0, 3
90007d20:	16479003 	cmpu	r18, r7, r18
90007d24:	beb20050 	bgeid	r18, 80		// 90007d74
90007d28:	11260000 	addk	r9, r6, r0
90007d2c:	b8100024 	brid	36		// 90007d50
90007d30:	e8c60000 	lwi	r6, r6, 0
90007d34:	f8c80000 	swi	r6, r8, 0
90007d38:	31290004 	addik	r9, r9, 4
90007d3c:	22400003 	addi	r18, r0, 3
90007d40:	16479003 	cmpu	r18, r7, r18
90007d44:	beb20030 	bgeid	r18, 48		// 90007d74
90007d48:	31080004 	addik	r8, r8, 4
90007d4c:	e8c90000 	lwi	r6, r9, 0
90007d50:	b000fefe 	imm	-258
90007d54:	3066feff 	addik	r3, r6, -257
90007d58:	a886ffff 	xori	r4, r6, -1
90007d5c:	84632000 	and	r3, r3, r4
90007d60:	b0008080 	imm	-32640
90007d64:	a4638080 	andi	r3, r3, -32640
90007d68:	be03ffcc 	beqid	r3, -52		// 90007d34
90007d6c:	30e7fffc 	addik	r7, r7, -4
90007d70:	30e70004 	addik	r7, r7, 4
90007d74:	11480000 	addk	r10, r8, r0
90007d78:	b810ff40 	brid	-192		// 90007cb8
90007d7c:	10c90000 	addk	r6, r9, r0

90007d80 <_vfprintf_r>:
90007d80:	3021f914 	addik	r1, r1, -1772
90007d84:	fac106c4 	swi	r22, r1, 1732
90007d88:	fb4106d4 	swi	r26, r1, 1748
90007d8c:	fbc106e4 	swi	r30, r1, 1764
90007d90:	f9e10000 	swi	r15, r1, 0
90007d94:	fa6106c0 	swi	r19, r1, 1728
90007d98:	fae106c8 	swi	r23, r1, 1736
90007d9c:	fb0106cc 	swi	r24, r1, 1740
90007da0:	fb2106d0 	swi	r25, r1, 1744
90007da4:	fb6106d8 	swi	r27, r1, 1752
90007da8:	fb8106dc 	swi	r28, r1, 1756
90007dac:	fba106e0 	swi	r29, r1, 1760
90007db0:	fbe106e8 	swi	r31, r1, 1768
90007db4:	f8a106f0 	swi	r5, r1, 1776
90007db8:	13c60000 	addk	r30, r6, r0
90007dbc:	12c70000 	addk	r22, r7, r0
90007dc0:	b9f45880 	brlid	r15, 22656	// 9000d640 <localeconv>
90007dc4:	13480000 	addk	r26, r8, r0
90007dc8:	e8630000 	lwi	r3, r3, 0
90007dcc:	f86106a4 	swi	r3, r1, 1700
90007dd0:	e86106f0 	lwi	r3, r1, 1776
90007dd4:	bc03000c 	beqi	r3, 12		// 90007de0
90007dd8:	e8630018 	lwi	r3, r3, 24
90007ddc:	bc030a50 	beqi	r3, 2640		// 9000882c
90007de0:	b0009001 	imm	-28671
90007de4:	aa5e3414 	xori	r18, r30, 13332
90007de8:	bc120a58 	beqi	r18, 2648		// 90008840
90007dec:	b0009001 	imm	-28671
90007df0:	aa5e3434 	xori	r18, r30, 13364
90007df4:	bc120e10 	beqi	r18, 3600		// 90008c04
90007df8:	b0009001 	imm	-28671
90007dfc:	aa5e3454 	xori	r18, r30, 13396
90007e00:	bc120e14 	beqi	r18, 3604		// 90008c14
90007e04:	e47e000c 	lhui	r3, r30, 12
90007e08:	a4630008 	andi	r3, r3, 8
90007e0c:	bc030a44 	beqi	r3, 2628		// 90008850
90007e10:	e87e0010 	lwi	r3, r30, 16
90007e14:	bc030a3c 	beqi	r3, 2620		// 90008850
90007e18:	e47e000c 	lhui	r3, r30, 12
90007e1c:	91230061 	sext16	r9, r3
90007e20:	a489001a 	andi	r4, r9, 26
90007e24:	aa44000a 	xori	r18, r4, 10
90007e28:	be3200d4 	bneid	r18, 212		// 90007efc
90007e2c:	33a10088 	addik	r29, r1, 136
90007e30:	e59e000e 	lhui	r12, r30, 14
90007e34:	906c0061 	sext16	r3, r12
90007e38:	be4300c4 	bltid	r3, 196		// 90007efc
90007e3c:	326100c8 	addik	r19, r1, 200
90007e40:	e95e0020 	lwi	r10, r30, 32
90007e44:	e97e0028 	lwi	r11, r30, 40
90007e48:	e8a106f0 	lwi	r5, r1, 1776
90007e4c:	10f60000 	addk	r7, r22, r0
90007e50:	111a0000 	addk	r8, r26, r0
90007e54:	10d30000 	addk	r6, r19, r0
90007e58:	a469fffd 	andi	r3, r9, -3
90007e5c:	30810280 	addik	r4, r1, 640
90007e60:	31200400 	addik	r9, r0, 1024
90007e64:	f46100d4 	shi	r3, r1, 212
90007e68:	f58100d6 	shi	r12, r1, 214
90007e6c:	f94100e8 	swi	r10, r1, 232
90007e70:	f96100f0 	swi	r11, r1, 240
90007e74:	f88100d8 	swi	r4, r1, 216
90007e78:	f92100dc 	swi	r9, r1, 220
90007e7c:	f88100c8 	swi	r4, r1, 200
90007e80:	f92100d0 	swi	r9, r1, 208
90007e84:	b9f4fefc 	brlid	r15, -260	// 90007d80 <_vfprintf_r>
90007e88:	f80100e0 	swi	r0, r1, 224
90007e8c:	be430018 	bltid	r3, 24		// 90007ea4
90007e90:	f86106b0 	swi	r3, r1, 1712
90007e94:	b9f4456c 	brlid	r15, 17772	// 9000c400 <fflush>
90007e98:	10b30000 	addk	r5, r19, r0
90007e9c:	be230b68 	bneid	r3, 2920		// 90008a04
90007ea0:	e46100d4 	lhui	r3, r1, 212
90007ea4:	e46100d4 	lhui	r3, r1, 212
90007ea8:	a4630040 	andi	r3, r3, 64
90007eac:	be030018 	beqid	r3, 24		// 90007ec4
90007eb0:	e86106b0 	lwi	r3, r1, 1712
90007eb4:	e47e000c 	lhui	r3, r30, 12
90007eb8:	a0630040 	ori	r3, r3, 64
90007ebc:	f47e000c 	shi	r3, r30, 12
90007ec0:	e86106b0 	lwi	r3, r1, 1712
90007ec4:	e9e10000 	lwi	r15, r1, 0
90007ec8:	ea6106c0 	lwi	r19, r1, 1728
90007ecc:	eac106c4 	lwi	r22, r1, 1732
90007ed0:	eae106c8 	lwi	r23, r1, 1736
90007ed4:	eb0106cc 	lwi	r24, r1, 1740
90007ed8:	eb2106d0 	lwi	r25, r1, 1744
90007edc:	eb4106d4 	lwi	r26, r1, 1748
90007ee0:	eb6106d8 	lwi	r27, r1, 1752
90007ee4:	eb8106dc 	lwi	r28, r1, 1756
90007ee8:	eba106e0 	lwi	r29, r1, 1760
90007eec:	ebc106e4 	lwi	r30, r1, 1764
90007ef0:	ebe106e8 	lwi	r31, r1, 1768
90007ef4:	b60f0008 	rtsd	r15, 8
90007ef8:	302106ec 	addik	r1, r1, 1772
90007efc:	13f60000 	addk	r31, r22, r0
90007f00:	131d0000 	addk	r24, r29, r0
90007f04:	12e00000 	addk	r23, r0, r0
90007f08:	10800000 	addk	r4, r0, r0
90007f0c:	10a00000 	addk	r5, r0, r0
90007f10:	fae106a0 	swi	r23, r1, 1696
90007f14:	fba10054 	swi	r29, r1, 84
90007f18:	fae106b0 	swi	r23, r1, 1712
90007f1c:	fae10694 	swi	r23, r1, 1684
90007f20:	fae1005c 	swi	r23, r1, 92
90007f24:	fae10690 	swi	r23, r1, 1680
90007f28:	fae10058 	swi	r23, r1, 88
90007f2c:	f8810688 	swi	r4, r1, 1672
90007f30:	f8a1068c 	swi	r5, r1, 1676
90007f34:	e07f0000 	lbui	r3, r31, 0
90007f38:	90830060 	sext8	r4, r3
90007f3c:	be040070 	beqid	r4, 112		// 90007fac
90007f40:	12df0000 	addk	r22, r31, r0
90007f44:	aa440025 	xori	r18, r4, 37
90007f48:	bc120064 	beqi	r18, 100		// 90007fac
90007f4c:	32d60001 	addik	r22, r22, 1
90007f50:	e0760000 	lbui	r3, r22, 0
90007f54:	90830060 	sext8	r4, r3
90007f58:	be040010 	beqid	r4, 16		// 90007f68
90007f5c:	173fb000 	rsubk	r25, r31, r22
90007f60:	aa440025 	xori	r18, r4, 37
90007f64:	bc32ffe8 	bnei	r18, -24		// 90007f4c
90007f68:	be190044 	beqid	r25, 68		// 90007fac
90007f6c:	ea610058 	lwi	r19, r1, 88
90007f70:	eae1005c 	lwi	r23, r1, 92
90007f74:	fbf80000 	swi	r31, r24, 0
90007f78:	12f7c800 	addk	r23, r23, r25
90007f7c:	32730001 	addik	r19, r19, 1
90007f80:	fb380004 	swi	r25, r24, 4
90007f84:	fae1005c 	swi	r23, r1, 92
90007f88:	fa610058 	swi	r19, r1, 88
90007f8c:	32400007 	addik	r18, r0, 7
90007f90:	16539001 	cmp	r18, r19, r18
90007f94:	be5209b8 	bltid	r18, 2488		// 9000894c
90007f98:	33180008 	addik	r24, r24, 8
90007f9c:	e8a106b0 	lwi	r5, r1, 1712
90007fa0:	e0760000 	lbui	r3, r22, 0
90007fa4:	10a5c800 	addk	r5, r5, r25
90007fa8:	f8a106b0 	swi	r5, r1, 1712
90007fac:	90630060 	sext8	r3, r3
90007fb0:	be031c00 	beqid	r3, 7168		// 90009bb0
90007fb4:	10c00000 	addk	r6, r0, r0
90007fb8:	f0010024 	sbi	r0, r1, 36
90007fbc:	f8c106ac 	swi	r6, r1, 1708
90007fc0:	3080ffff 	addik	r4, r0, -1
90007fc4:	e0760001 	lbui	r3, r22, 1
90007fc8:	33f60001 	addik	r31, r22, 1
90007fcc:	f8c106b4 	swi	r6, r1, 1716
90007fd0:	f88106a8 	swi	r4, r1, 1704
90007fd4:	93630060 	sext8	r27, r3
90007fd8:	33ff0001 	addik	r31, r31, 1
90007fdc:	307bffe0 	addik	r3, r27, -32
90007fe0:	22400058 	addi	r18, r0, 88
90007fe4:	16439003 	cmpu	r18, r3, r18
90007fe8:	be520014 	bltid	r18, 20		// 90007ffc
90007fec:	64630402 	bslli	r3, r3, 2
90007ff0:	b0009001 	imm	-28671
90007ff4:	e8833244 	lwi	r4, r3, 12868
90007ff8:	98082000 	bra	r4
90007ffc:	be1b1bb4 	beqid	r27, 7092		// 90009bb0
90008000:	33800001 	addik	r28, r0, 1
90008004:	133c0000 	addk	r25, r28, r0
90008008:	30c10124 	addik	r6, r1, 292
9000800c:	fb410680 	swi	r26, r1, 1664
90008010:	f8c106b8 	swi	r6, r1, 1720
90008014:	f3610124 	sbi	r27, r1, 292
90008018:	f0010024 	sbi	r0, r1, 36
9000801c:	10a00000 	addk	r5, r0, r0
90008020:	f8a10698 	swi	r5, r1, 1688
90008024:	e8a106b4 	lwi	r5, r1, 1716
90008028:	a4650002 	andi	r3, r5, 2
9000802c:	be030010 	beqid	r3, 16		// 9000803c
90008030:	e8c106b4 	lwi	r6, r1, 1716
90008034:	339c0002 	addik	r28, r28, 2
90008038:	e8c106b4 	lwi	r6, r1, 1716
9000803c:	a4c60084 	andi	r6, r6, 132
90008040:	be260128 	bneid	r6, 296		// 90008168
90008044:	f8c106bc 	swi	r6, r1, 1724
90008048:	e86106ac 	lwi	r3, r1, 1708
9000804c:	16dc1800 	rsubk	r22, r28, r3
90008050:	be76011c 	bleid	r22, 284		// 9000816c
90008054:	eae1005c 	lwi	r23, r1, 92
90008058:	32400010 	addik	r18, r0, 16	// 10 <_vector_interrupt>
9000805c:	16569001 	cmp	r18, r22, r18
90008060:	bcb215e8 	bgei	r18, 5608		// 90009648
90008064:	b0009001 	imm	-28671
90008068:	334033b8 	addik	r26, r0, 13240
9000806c:	b8100020 	brid	32		// 9000808c
90008070:	ea610058 	lwi	r19, r1, 88
90008074:	131d0000 	addk	r24, r29, r0
90008078:	fae10058 	swi	r23, r1, 88
9000807c:	32d6fff0 	addik	r22, r22, -16
90008080:	32400010 	addik	r18, r0, 16	// 10 <_vector_interrupt>
90008084:	16569001 	cmp	r18, r22, r18
90008088:	bcb2006c 	bgei	r18, 108		// 900080f4
9000808c:	32f70010 	addik	r23, r23, 16
90008090:	32730001 	addik	r19, r19, 1
90008094:	30600010 	addik	r3, r0, 16	// 10 <_vector_interrupt>
90008098:	f8780004 	swi	r3, r24, 4
9000809c:	fb580000 	swi	r26, r24, 0
900080a0:	fae1005c 	swi	r23, r1, 92
900080a4:	fa610058 	swi	r19, r1, 88
900080a8:	32400007 	addik	r18, r0, 7
900080ac:	16539001 	cmp	r18, r19, r18
900080b0:	beb2ffcc 	bgeid	r18, -52		// 9000807c
900080b4:	33180008 	addik	r24, r24, 8
900080b8:	be17ffbc 	beqid	r23, -68		// 90008074
900080bc:	12770000 	addk	r19, r23, r0
900080c0:	10be0000 	addk	r5, r30, r0
900080c4:	30c10054 	addik	r6, r1, 84
900080c8:	b9f44f24 	brlid	r15, 20260	// 9000cfec <__sfvwrite>
900080cc:	12e00000 	addk	r23, r0, r0
900080d0:	12770000 	addk	r19, r23, r0
900080d4:	fae1005c 	swi	r23, r1, 92
900080d8:	be2305c8 	bneid	r3, 1480		// 900086a0
900080dc:	fae10058 	swi	r23, r1, 88
900080e0:	32d6fff0 	addik	r22, r22, -16
900080e4:	32400010 	addik	r18, r0, 16	// 10 <_vector_interrupt>
900080e8:	16569001 	cmp	r18, r22, r18
900080ec:	be52ffa0 	bltid	r18, -96		// 9000808c
900080f0:	131d0000 	addk	r24, r29, r0
900080f4:	12f7b000 	addk	r23, r23, r22
900080f8:	32730001 	addik	r19, r19, 1
900080fc:	fb580000 	swi	r26, r24, 0
90008100:	fad80004 	swi	r22, r24, 4
90008104:	fae1005c 	swi	r23, r1, 92
90008108:	fa610058 	swi	r19, r1, 88
9000810c:	32400007 	addik	r18, r0, 7
90008110:	16539001 	cmp	r18, r19, r18
90008114:	beb2005c 	bgeid	r18, 92		// 90008170
90008118:	33180008 	addik	r24, r24, 8
9000811c:	be370b3c 	bneid	r23, 2876		// 90008c58
90008120:	e0610024 	lbui	r3, r1, 36
90008124:	12770000 	addk	r19, r23, r0
90008128:	131d0000 	addk	r24, r29, r0
9000812c:	be230050 	bneid	r3, 80		// 9000817c
90008130:	fae10058 	swi	r23, r1, 88
90008134:	e88106b4 	lwi	r4, r1, 1716
90008138:	a4640002 	andi	r3, r4, 2
9000813c:	be030084 	beqid	r3, 132		// 900081c0
90008140:	e8c106bc 	lwi	r6, r1, 1724
90008144:	30a00030 	addik	r5, r0, 48
90008148:	f0a10028 	sbi	r5, r1, 40
9000814c:	f3610029 	sbi	r27, r1, 41
90008150:	30610028 	addik	r3, r1, 40
90008154:	32f70002 	addik	r23, r23, 2
90008158:	32730001 	addik	r19, r19, 1
9000815c:	30800002 	addik	r4, r0, 2
90008160:	b8100030 	brid	48		// 90008190
90008164:	f8780000 	swi	r3, r24, 0
90008168:	eae1005c 	lwi	r23, r1, 92
9000816c:	ea610058 	lwi	r19, r1, 88
90008170:	e0610024 	lbui	r3, r1, 36
90008174:	be03ffc4 	beqid	r3, -60		// 90008138
90008178:	e88106b4 	lwi	r4, r1, 1716
9000817c:	30610024 	addik	r3, r1, 36
90008180:	32f70001 	addik	r23, r23, 1
90008184:	32730001 	addik	r19, r19, 1
90008188:	f8780000 	swi	r3, r24, 0
9000818c:	30800001 	addik	r4, r0, 1
90008190:	f8980004 	swi	r4, r24, 4
90008194:	fae1005c 	swi	r23, r1, 92
90008198:	fa610058 	swi	r19, r1, 88
9000819c:	32400007 	addik	r18, r0, 7
900081a0:	16539001 	cmp	r18, r19, r18
900081a4:	beb20018 	bgeid	r18, 24		// 900081bc
900081a8:	33180008 	addik	r24, r24, 8
900081ac:	be370a08 	bneid	r23, 2568		// 90008bb4
900081b0:	12770000 	addk	r19, r23, r0
900081b4:	131d0000 	addk	r24, r29, r0
900081b8:	fae10058 	swi	r23, r1, 88
900081bc:	e8c106bc 	lwi	r6, r1, 1724
900081c0:	aa460080 	xori	r18, r6, 128
900081c4:	be1203dc 	beqid	r18, 988		// 900085a0
900081c8:	e86106ac 	lwi	r3, r1, 1708
900081cc:	e8810698 	lwi	r4, r1, 1688
900081d0:	16d92000 	rsubk	r22, r25, r4
900081d4:	be7600e0 	bleid	r22, 224		// 900082b4
900081d8:	e8a106b4 	lwi	r5, r1, 1716
900081dc:	32400010 	addik	r18, r0, 16	// 10 <_vector_interrupt>
900081e0:	16569001 	cmp	r18, r22, r18
900081e4:	bcb20c04 	bgei	r18, 3076		// 90008de8
900081e8:	b0009001 	imm	-28671
900081ec:	334033a8 	addik	r26, r0, 13224
900081f0:	b8100024 	brid	36		// 90008214
900081f4:	32f70010 	addik	r23, r23, 16
900081f8:	131d0000 	addk	r24, r29, r0
900081fc:	fae10058 	swi	r23, r1, 88
90008200:	32d6fff0 	addik	r22, r22, -16
90008204:	32400010 	addik	r18, r0, 16	// 10 <_vector_interrupt>
90008208:	16569001 	cmp	r18, r22, r18
9000820c:	bcb2006c 	bgei	r18, 108		// 90008278
90008210:	32f70010 	addik	r23, r23, 16
90008214:	32730001 	addik	r19, r19, 1
90008218:	30600010 	addik	r3, r0, 16	// 10 <_vector_interrupt>
9000821c:	f8780004 	swi	r3, r24, 4
90008220:	fb580000 	swi	r26, r24, 0
90008224:	fae1005c 	swi	r23, r1, 92
90008228:	fa610058 	swi	r19, r1, 88
9000822c:	32400007 	addik	r18, r0, 7
90008230:	16539001 	cmp	r18, r19, r18
90008234:	beb2ffcc 	bgeid	r18, -52		// 90008200
90008238:	33180008 	addik	r24, r24, 8
9000823c:	be17ffbc 	beqid	r23, -68		// 900081f8
90008240:	12770000 	addk	r19, r23, r0
90008244:	10be0000 	addk	r5, r30, r0
90008248:	30c10054 	addik	r6, r1, 84
9000824c:	b9f44da0 	brlid	r15, 19872	// 9000cfec <__sfvwrite>
90008250:	12e00000 	addk	r23, r0, r0
90008254:	12770000 	addk	r19, r23, r0
90008258:	fae1005c 	swi	r23, r1, 92
9000825c:	be230444 	bneid	r3, 1092		// 900086a0
90008260:	fae10058 	swi	r23, r1, 88
90008264:	32d6fff0 	addik	r22, r22, -16
90008268:	32400010 	addik	r18, r0, 16	// 10 <_vector_interrupt>
9000826c:	16569001 	cmp	r18, r22, r18
90008270:	be52ffa0 	bltid	r18, -96		// 90008210
90008274:	131d0000 	addk	r24, r29, r0
90008278:	12f7b000 	addk	r23, r23, r22
9000827c:	32730001 	addik	r19, r19, 1
90008280:	fb580000 	swi	r26, r24, 0
90008284:	fad80004 	swi	r22, r24, 4
90008288:	fae1005c 	swi	r23, r1, 92
9000828c:	fa610058 	swi	r19, r1, 88
90008290:	32400007 	addik	r18, r0, 7
90008294:	16539001 	cmp	r18, r19, r18
90008298:	beb20018 	bgeid	r18, 24		// 900082b0
9000829c:	33180008 	addik	r24, r24, 8
900082a0:	be37093c 	bneid	r23, 2364		// 90008bdc
900082a4:	12770000 	addk	r19, r23, r0
900082a8:	131d0000 	addk	r24, r29, r0
900082ac:	fae10058 	swi	r23, r1, 88
900082b0:	e8a106b4 	lwi	r5, r1, 1716
900082b4:	a4650100 	andi	r3, r5, 256
900082b8:	be230170 	bneid	r3, 368		// 90008428
900082bc:	e8c106b8 	lwi	r6, r1, 1720
900082c0:	12f7c800 	addk	r23, r23, r25
900082c4:	32730001 	addik	r19, r19, 1
900082c8:	f8d80000 	swi	r6, r24, 0
900082cc:	fb380004 	swi	r25, r24, 4
900082d0:	fae1005c 	swi	r23, r1, 92
900082d4:	fa610058 	swi	r19, r1, 88
900082d8:	32400007 	addik	r18, r0, 7
900082dc:	16539001 	cmp	r18, r19, r18
900082e0:	beb20018 	bgeid	r18, 24		// 900082f8
900082e4:	30b80008 	addik	r5, r24, 8
900082e8:	be3706fc 	bneid	r23, 1788		// 900089e4
900082ec:	10be0000 	addk	r5, r30, r0
900082f0:	10bd0000 	addk	r5, r29, r0
900082f4:	fae10058 	swi	r23, r1, 88
900082f8:	e8c106b4 	lwi	r6, r1, 1716
900082fc:	a4660004 	andi	r3, r6, 4
90008300:	be0300e0 	beqid	r3, 224		// 900083e0
90008304:	e86106ac 	lwi	r3, r1, 1708
90008308:	16dc1800 	rsubk	r22, r28, r3
9000830c:	bc7600d4 	blei	r22, 212		// 900083e0
90008310:	32400010 	addik	r18, r0, 16	// 10 <_vector_interrupt>
90008314:	16569001 	cmp	r18, r22, r18
90008318:	bcb213a8 	bgei	r18, 5032		// 900096c0
9000831c:	b0009001 	imm	-28671
90008320:	334033b8 	addik	r26, r0, 13240
90008324:	b8100020 	brid	32		// 90008344
90008328:	ea610058 	lwi	r19, r1, 88
9000832c:	10bd0000 	addk	r5, r29, r0
90008330:	fae10058 	swi	r23, r1, 88
90008334:	32d6fff0 	addik	r22, r22, -16
90008338:	32400010 	addik	r18, r0, 16	// 10 <_vector_interrupt>
9000833c:	16569001 	cmp	r18, r22, r18
90008340:	bcb2006c 	bgei	r18, 108		// 900083ac
90008344:	32f70010 	addik	r23, r23, 16
90008348:	32730001 	addik	r19, r19, 1
9000834c:	30600010 	addik	r3, r0, 16	// 10 <_vector_interrupt>
90008350:	f8650004 	swi	r3, r5, 4
90008354:	fb450000 	swi	r26, r5, 0
90008358:	fae1005c 	swi	r23, r1, 92
9000835c:	fa610058 	swi	r19, r1, 88
90008360:	32400007 	addik	r18, r0, 7
90008364:	16539001 	cmp	r18, r19, r18
90008368:	beb2ffcc 	bgeid	r18, -52		// 90008334
9000836c:	30a50008 	addik	r5, r5, 8
90008370:	be17ffbc 	beqid	r23, -68		// 9000832c
90008374:	12770000 	addk	r19, r23, r0
90008378:	10be0000 	addk	r5, r30, r0
9000837c:	30c10054 	addik	r6, r1, 84
90008380:	b9f44c6c 	brlid	r15, 19564	// 9000cfec <__sfvwrite>
90008384:	12e00000 	addk	r23, r0, r0
90008388:	12770000 	addk	r19, r23, r0
9000838c:	fae1005c 	swi	r23, r1, 92
90008390:	be230310 	bneid	r3, 784		// 900086a0
90008394:	fae10058 	swi	r23, r1, 88
90008398:	32d6fff0 	addik	r22, r22, -16
9000839c:	32400010 	addik	r18, r0, 16	// 10 <_vector_interrupt>
900083a0:	16569001 	cmp	r18, r22, r18
900083a4:	be52ffa0 	bltid	r18, -96		// 90008344
900083a8:	10bd0000 	addk	r5, r29, r0
900083ac:	12f7b000 	addk	r23, r23, r22
900083b0:	32730001 	addik	r19, r19, 1
900083b4:	fb450000 	swi	r26, r5, 0
900083b8:	fac50004 	swi	r22, r5, 4
900083bc:	fae1005c 	swi	r23, r1, 92
900083c0:	32400007 	addik	r18, r0, 7
900083c4:	16539001 	cmp	r18, r19, r18
900083c8:	beb20014 	bgeid	r18, 20		// 900083dc
900083cc:	fa610058 	swi	r19, r1, 88
900083d0:	be37064c 	bneid	r23, 1612		// 90008a1c
900083d4:	10be0000 	addk	r5, r30, r0
900083d8:	fae10058 	swi	r23, r1, 88
900083dc:	e86106ac 	lwi	r3, r1, 1708
900083e0:	165c1801 	cmp	r18, r28, r3
900083e4:	beb2000c 	bgeid	r18, 12		// 900083f0
900083e8:	e88106b0 	lwi	r4, r1, 1712
900083ec:	107c0000 	addk	r3, r28, r0
900083f0:	10841800 	addk	r4, r4, r3
900083f4:	be370290 	bneid	r23, 656		// 90008684
900083f8:	f88106b0 	swi	r4, r1, 1712
900083fc:	e8a10690 	lwi	r5, r1, 1680
90008400:	12600000 	addk	r19, r0, r0
90008404:	fa610058 	swi	r19, r1, 88
90008408:	be050018 	beqid	r5, 24		// 90008420
9000840c:	131d0000 	addk	r24, r29, r0
90008410:	10c50000 	addk	r6, r5, r0
90008414:	e8a106f0 	lwi	r5, r1, 1776
90008418:	b9f448fc 	brlid	r15, 18684	// 9000cd14 <_free_r>
9000841c:	fa610690 	swi	r19, r1, 1680
90008420:	b810fb14 	brid	-1260		// 90007f34
90008424:	eb410680 	lwi	r26, r1, 1664
90008428:	32400065 	addik	r18, r0, 101
9000842c:	165b9001 	cmp	r18, r27, r18
90008430:	beb2029c 	bgeid	r18, 668		// 900086cc
90008434:	e8c1069c 	lwi	r6, r1, 1692
90008438:	e8a10688 	lwi	r5, r1, 1672
9000843c:	e8c1068c 	lwi	r6, r1, 1676
90008440:	10e00000 	addk	r7, r0, r0
90008444:	11000000 	addk	r8, r0, r0
90008448:	b0000000 	imm	0
9000844c:	b9f49d20 	brlid	r15, -25312	// 9001216c <__eqdf2>
90008450:	80000000 	or	r0, r0, r0
90008454:	be230414 	bneid	r3, 1044		// 90008868
90008458:	e921002c 	lwi	r9, r1, 44
9000845c:	b0009001 	imm	-28671
90008460:	30603234 	addik	r3, r0, 12852
90008464:	32f70001 	addik	r23, r23, 1
90008468:	32730001 	addik	r19, r19, 1
9000846c:	30800001 	addik	r4, r0, 1
90008470:	f8780000 	swi	r3, r24, 0
90008474:	f8980004 	swi	r4, r24, 4
90008478:	fae1005c 	swi	r23, r1, 92
9000847c:	fa610058 	swi	r19, r1, 88
90008480:	32400007 	addik	r18, r0, 7
90008484:	16539001 	cmp	r18, r19, r18
90008488:	beb20014 	bgeid	r18, 20		// 9000849c
9000848c:	30b80008 	addik	r5, r24, 8
90008490:	be37120c 	bneid	r23, 4620		// 9000969c
90008494:	10bd0000 	addk	r5, r29, r0
90008498:	fae10058 	swi	r23, r1, 88
9000849c:	e861002c 	lwi	r3, r1, 44
900084a0:	e881069c 	lwi	r4, r1, 1692
900084a4:	16441801 	cmp	r18, r4, r3
900084a8:	be52001c 	bltid	r18, 28		// 900084c4
900084ac:	ea610058 	lwi	r19, r1, 88
900084b0:	e8c106b4 	lwi	r6, r1, 1716
900084b4:	a4660001 	andi	r3, r6, 1
900084b8:	be03fe48 	beqid	r3, -440		// 90008300
900084bc:	a4660004 	andi	r3, r6, 4
900084c0:	ea610058 	lwi	r19, r1, 88
900084c4:	30600001 	addik	r3, r0, 1
900084c8:	f8650004 	swi	r3, r5, 4
900084cc:	e86106a4 	lwi	r3, r1, 1700
900084d0:	32f70001 	addik	r23, r23, 1
900084d4:	32730001 	addik	r19, r19, 1
900084d8:	f8650000 	swi	r3, r5, 0
900084dc:	fae1005c 	swi	r23, r1, 92
900084e0:	fa610058 	swi	r19, r1, 88
900084e4:	32400007 	addik	r18, r0, 7
900084e8:	16539001 	cmp	r18, r19, r18
900084ec:	beb20014 	bgeid	r18, 20		// 90008500
900084f0:	30a50008 	addik	r5, r5, 8
900084f4:	be370e0c 	bneid	r23, 3596		// 90009300
900084f8:	10bd0000 	addk	r5, r29, r0
900084fc:	fae10058 	swi	r23, r1, 88
90008500:	e881069c 	lwi	r4, r1, 1692
90008504:	32c4ffff 	addik	r22, r4, -1
90008508:	bc76fdf0 	blei	r22, -528		// 900082f8
9000850c:	32400010 	addik	r18, r0, 16	// 10 <_vector_interrupt>
90008510:	16569001 	cmp	r18, r22, r18
90008514:	beb20710 	bgeid	r18, 1808		// 90008c24
90008518:	ea610058 	lwi	r19, r1, 88
9000851c:	b0009001 	imm	-28671
90008520:	334033a8 	addik	r26, r0, 13224
90008524:	b8100024 	brid	36		// 90008548
90008528:	32f70010 	addik	r23, r23, 16
9000852c:	10bd0000 	addk	r5, r29, r0
90008530:	fae10058 	swi	r23, r1, 88
90008534:	32d6fff0 	addik	r22, r22, -16
90008538:	32400010 	addik	r18, r0, 16	// 10 <_vector_interrupt>
9000853c:	16569001 	cmp	r18, r22, r18
90008540:	bcb206ec 	bgei	r18, 1772		// 90008c2c
90008544:	32f70010 	addik	r23, r23, 16
90008548:	32730001 	addik	r19, r19, 1
9000854c:	30600010 	addik	r3, r0, 16	// 10 <_vector_interrupt>
90008550:	f8650004 	swi	r3, r5, 4
90008554:	fb450000 	swi	r26, r5, 0
90008558:	fae1005c 	swi	r23, r1, 92
9000855c:	fa610058 	swi	r19, r1, 88
90008560:	32400007 	addik	r18, r0, 7
90008564:	16539001 	cmp	r18, r19, r18
90008568:	beb2ffcc 	bgeid	r18, -52		// 90008534
9000856c:	30a50008 	addik	r5, r5, 8
90008570:	be17ffbc 	beqid	r23, -68		// 9000852c
90008574:	12770000 	addk	r19, r23, r0
90008578:	10be0000 	addk	r5, r30, r0
9000857c:	30c10054 	addik	r6, r1, 84
90008580:	b9f44a6c 	brlid	r15, 19052	// 9000cfec <__sfvwrite>
90008584:	12e00000 	addk	r23, r0, r0
90008588:	12770000 	addk	r19, r23, r0
9000858c:	fae1005c 	swi	r23, r1, 92
90008590:	be230110 	bneid	r3, 272		// 900086a0
90008594:	fae10058 	swi	r23, r1, 88
90008598:	b810ff9c 	brid	-100		// 90008534
9000859c:	10bd0000 	addk	r5, r29, r0
900085a0:	16dc1800 	rsubk	r22, r28, r3
900085a4:	be76fc2c 	bleid	r22, -980		// 900081d0
900085a8:	e8810698 	lwi	r4, r1, 1688
900085ac:	32400010 	addik	r18, r0, 16	// 10 <_vector_interrupt>
900085b0:	16569001 	cmp	r18, r22, r18
900085b4:	bcb21290 	bgei	r18, 4752		// 90009844
900085b8:	b0009001 	imm	-28671
900085bc:	334033a8 	addik	r26, r0, 13224
900085c0:	b8100024 	brid	36		// 900085e4
900085c4:	32f70010 	addik	r23, r23, 16
900085c8:	131d0000 	addk	r24, r29, r0
900085cc:	fae10058 	swi	r23, r1, 88
900085d0:	32d6fff0 	addik	r22, r22, -16
900085d4:	32400010 	addik	r18, r0, 16	// 10 <_vector_interrupt>
900085d8:	16569001 	cmp	r18, r22, r18
900085dc:	bcb2006c 	bgei	r18, 108		// 90008648
900085e0:	32f70010 	addik	r23, r23, 16
900085e4:	32730001 	addik	r19, r19, 1
900085e8:	30600010 	addik	r3, r0, 16	// 10 <_vector_interrupt>
900085ec:	f8780004 	swi	r3, r24, 4
900085f0:	fb580000 	swi	r26, r24, 0
900085f4:	fae1005c 	swi	r23, r1, 92
900085f8:	fa610058 	swi	r19, r1, 88
900085fc:	32400007 	addik	r18, r0, 7
90008600:	16539001 	cmp	r18, r19, r18
90008604:	beb2ffcc 	bgeid	r18, -52		// 900085d0
90008608:	33180008 	addik	r24, r24, 8
9000860c:	be17ffbc 	beqid	r23, -68		// 900085c8
90008610:	12770000 	addk	r19, r23, r0
90008614:	10be0000 	addk	r5, r30, r0
90008618:	30c10054 	addik	r6, r1, 84
9000861c:	b9f449d0 	brlid	r15, 18896	// 9000cfec <__sfvwrite>
90008620:	12e00000 	addk	r23, r0, r0
90008624:	12770000 	addk	r19, r23, r0
90008628:	fae1005c 	swi	r23, r1, 92
9000862c:	be230074 	bneid	r3, 116		// 900086a0
90008630:	fae10058 	swi	r23, r1, 88
90008634:	32d6fff0 	addik	r22, r22, -16
90008638:	32400010 	addik	r18, r0, 16	// 10 <_vector_interrupt>
9000863c:	16569001 	cmp	r18, r22, r18
90008640:	be52ffa0 	bltid	r18, -96		// 900085e0
90008644:	131d0000 	addk	r24, r29, r0
90008648:	12f7b000 	addk	r23, r23, r22
9000864c:	32730001 	addik	r19, r19, 1
90008650:	fb580000 	swi	r26, r24, 0
90008654:	fad80004 	swi	r22, r24, 4
90008658:	fae1005c 	swi	r23, r1, 92
9000865c:	fa610058 	swi	r19, r1, 88
90008660:	32400007 	addik	r18, r0, 7
90008664:	16539001 	cmp	r18, r19, r18
90008668:	beb2fb64 	bgeid	r18, -1180		// 900081cc
9000866c:	33180008 	addik	r24, r24, 8
90008670:	be3707ac 	bneid	r23, 1964		// 90008e1c
90008674:	12770000 	addk	r19, r23, r0
90008678:	131d0000 	addk	r24, r29, r0
9000867c:	b810fb50 	brid	-1200		// 900081cc
90008680:	fae10058 	swi	r23, r1, 88
90008684:	10be0000 	addk	r5, r30, r0
90008688:	30c10054 	addik	r6, r1, 84
9000868c:	b9f44960 	brlid	r15, 18784	// 9000cfec <__sfvwrite>
90008690:	12e00000 	addk	r23, r0, r0
90008694:	fae1005c 	swi	r23, r1, 92
90008698:	be03fd64 	beqid	r3, -668		// 900083fc
9000869c:	fae10058 	swi	r23, r1, 88
900086a0:	e8c10690 	lwi	r6, r1, 1680
900086a4:	bc06000c 	beqi	r6, 12		// 900086b0
900086a8:	b9f4466c 	brlid	r15, 18028	// 9000cd14 <_free_r>
900086ac:	e8a106f0 	lwi	r5, r1, 1776
900086b0:	e47e000c 	lhui	r3, r30, 12
900086b4:	a4630040 	andi	r3, r3, 64
900086b8:	be03f80c 	beqid	r3, -2036		// 90007ec4
900086bc:	e86106b0 	lwi	r3, r1, 1712
900086c0:	3060ffff 	addik	r3, r0, -1
900086c4:	b810f7fc 	brid	-2052		// 90007ec0
900086c8:	f86106b0 	swi	r3, r1, 1712
900086cc:	32400001 	addik	r18, r0, 1
900086d0:	16469001 	cmp	r18, r6, r18
900086d4:	beb205ac 	bgeid	r18, 1452		// 90008c80
900086d8:	e88106b4 	lwi	r4, r1, 1716
900086dc:	e8a106b8 	lwi	r5, r1, 1720
900086e0:	30c0002e 	addik	r6, r0, 46
900086e4:	32f70002 	addik	r23, r23, 2
900086e8:	e0a50000 	lbui	r5, r5, 0
900086ec:	32730001 	addik	r19, r19, 1
900086f0:	f0c10029 	sbi	r6, r1, 41
900086f4:	f0a10028 	sbi	r5, r1, 40
900086f8:	30610028 	addik	r3, r1, 40
900086fc:	30800002 	addik	r4, r0, 2
90008700:	f8780000 	swi	r3, r24, 0
90008704:	f8980004 	swi	r4, r24, 4
90008708:	fae1005c 	swi	r23, r1, 92
9000870c:	fa610058 	swi	r19, r1, 88
90008710:	32400007 	addik	r18, r0, 7
90008714:	16539001 	cmp	r18, r19, r18
90008718:	beb20018 	bgeid	r18, 24		// 90008730
9000871c:	32d80008 	addik	r22, r24, 8
90008720:	be370724 	bneid	r23, 1828		// 90008e44
90008724:	12770000 	addk	r19, r23, r0
90008728:	12dd0000 	addk	r22, r29, r0
9000872c:	fae10058 	swi	r23, r1, 88
90008730:	e8a10688 	lwi	r5, r1, 1672
90008734:	e8c1068c 	lwi	r6, r1, 1676
90008738:	10e00000 	addk	r7, r0, r0
9000873c:	11000000 	addk	r8, r0, r0
90008740:	b0000000 	imm	0
90008744:	b9f49adc 	brlid	r15, -25892	// 90012220 <__nedf2>
90008748:	80000000 	or	r0, r0, r0
9000874c:	be230210 	bneid	r3, 528		// 9000895c
90008750:	e881069c 	lwi	r4, r1, 1692
90008754:	e861069c 	lwi	r3, r1, 1692
90008758:	3303ffff 	addik	r24, r3, -1
9000875c:	be780250 	bleid	r24, 592		// 900089ac
90008760:	e8a106a0 	lwi	r5, r1, 1696
90008764:	32400010 	addik	r18, r0, 16	// 10 <_vector_interrupt>
90008768:	16589001 	cmp	r18, r24, r18
9000876c:	bcb2142c 	bgei	r18, 5164		// 90009b98
90008770:	b0009001 	imm	-28671
90008774:	334033a8 	addik	r26, r0, 13224
90008778:	b8100024 	brid	36		// 9000879c
9000877c:	32f70010 	addik	r23, r23, 16
90008780:	12dd0000 	addk	r22, r29, r0
90008784:	fae10058 	swi	r23, r1, 88
90008788:	3318fff0 	addik	r24, r24, -16
9000878c:	32400010 	addik	r18, r0, 16	// 10 <_vector_interrupt>
90008790:	16589001 	cmp	r18, r24, r18
90008794:	bcb2006c 	bgei	r18, 108		// 90008800
90008798:	32f70010 	addik	r23, r23, 16
9000879c:	32730001 	addik	r19, r19, 1
900087a0:	30600010 	addik	r3, r0, 16	// 10 <_vector_interrupt>
900087a4:	f8760004 	swi	r3, r22, 4
900087a8:	fb560000 	swi	r26, r22, 0
900087ac:	fae1005c 	swi	r23, r1, 92
900087b0:	fa610058 	swi	r19, r1, 88
900087b4:	32400007 	addik	r18, r0, 7
900087b8:	16539001 	cmp	r18, r19, r18
900087bc:	beb2ffcc 	bgeid	r18, -52		// 90008788
900087c0:	32d60008 	addik	r22, r22, 8
900087c4:	be17ffbc 	beqid	r23, -68		// 90008780
900087c8:	12770000 	addk	r19, r23, r0
900087cc:	10be0000 	addk	r5, r30, r0
900087d0:	30c10054 	addik	r6, r1, 84
900087d4:	b9f44818 	brlid	r15, 18456	// 9000cfec <__sfvwrite>
900087d8:	12e00000 	addk	r23, r0, r0
900087dc:	12770000 	addk	r19, r23, r0
900087e0:	fae1005c 	swi	r23, r1, 92
900087e4:	be23febc 	bneid	r3, -324		// 900086a0
900087e8:	fae10058 	swi	r23, r1, 88
900087ec:	3318fff0 	addik	r24, r24, -16
900087f0:	32400010 	addik	r18, r0, 16	// 10 <_vector_interrupt>
900087f4:	16589001 	cmp	r18, r24, r18
900087f8:	be52ffa0 	bltid	r18, -96		// 90008798
900087fc:	12dd0000 	addk	r22, r29, r0
90008800:	12f7c000 	addk	r23, r23, r24
90008804:	32730001 	addik	r19, r19, 1
90008808:	fb560000 	swi	r26, r22, 0
9000880c:	fb160004 	swi	r24, r22, 4
90008810:	fae1005c 	swi	r23, r1, 92
90008814:	fa610058 	swi	r19, r1, 88
90008818:	32400007 	addik	r18, r0, 7
9000881c:	16539001 	cmp	r18, r19, r18
90008820:	beb20188 	bgeid	r18, 392		// 900089a8
90008824:	32d60008 	addik	r22, r22, 8
90008828:	b8000170 	bri	368		// 90008998
9000882c:	b9f43e60 	brlid	r15, 15968	// 9000c68c <__sinit>
90008830:	e8a106f0 	lwi	r5, r1, 1776
90008834:	b0009001 	imm	-28671
90008838:	aa5e3414 	xori	r18, r30, 13332
9000883c:	bc32f5b0 	bnei	r18, -2640		// 90007dec
90008840:	b0009001 	imm	-28671
90008844:	e86037a4 	lwi	r3, r0, 14244
90008848:	b810f5bc 	brid	-2628		// 90007e04
9000884c:	ebc30000 	lwi	r30, r3, 0
90008850:	b9f41fb4 	brlid	r15, 8116	// 9000a804 <__swsetup>
90008854:	10be0000 	addk	r5, r30, r0
90008858:	be03f5c0 	beqid	r3, -2624		// 90007e18
9000885c:	3060ffff 	addik	r3, r0, -1
90008860:	b810f660 	brid	-2464		// 90007ec0
90008864:	f86106b0 	swi	r3, r1, 1712
90008868:	be690c44 	bleid	r9, 3140		// 900094ac
9000886c:	e861069c 	lwi	r3, r1, 1692
90008870:	16434801 	cmp	r18, r3, r9
90008874:	be52044c 	bltid	r18, 1100		// 90008cc0
90008878:	e8a106b8 	lwi	r5, r1, 1720
9000887c:	e88106b8 	lwi	r4, r1, 1720
90008880:	12f71800 	addk	r23, r23, r3
90008884:	32730001 	addik	r19, r19, 1
90008888:	f8980000 	swi	r4, r24, 0
9000888c:	f8780004 	swi	r3, r24, 4
90008890:	fae1005c 	swi	r23, r1, 92
90008894:	fa610058 	swi	r19, r1, 88
90008898:	32400007 	addik	r18, r0, 7
9000889c:	16539001 	cmp	r18, r19, r18
900088a0:	be520a50 	bltid	r18, 2640		// 900092f0
900088a4:	30b80008 	addik	r5, r24, 8
900088a8:	e8c1069c 	lwi	r6, r1, 1692
900088ac:	16c64800 	rsubk	r22, r6, r9
900088b0:	be7604f0 	bleid	r22, 1264		// 90008da0
900088b4:	e88106b4 	lwi	r4, r1, 1716
900088b8:	32400010 	addik	r18, r0, 16	// 10 <_vector_interrupt>
900088bc:	16569001 	cmp	r18, r22, r18
900088c0:	beb205ac 	bgeid	r18, 1452		// 90008e6c
900088c4:	ea610058 	lwi	r19, r1, 88
900088c8:	b0009001 	imm	-28671
900088cc:	334033a8 	addik	r26, r0, 13224
900088d0:	b8100024 	brid	36		// 900088f4
900088d4:	32f70010 	addik	r23, r23, 16
900088d8:	10bd0000 	addk	r5, r29, r0
900088dc:	fae10058 	swi	r23, r1, 88
900088e0:	32d6fff0 	addik	r22, r22, -16
900088e4:	32400010 	addik	r18, r0, 16	// 10 <_vector_interrupt>
900088e8:	16569001 	cmp	r18, r22, r18
900088ec:	bcb20588 	bgei	r18, 1416		// 90008e74
900088f0:	32f70010 	addik	r23, r23, 16
900088f4:	32730001 	addik	r19, r19, 1
900088f8:	30600010 	addik	r3, r0, 16	// 10 <_vector_interrupt>
900088fc:	f8650004 	swi	r3, r5, 4
90008900:	fb450000 	swi	r26, r5, 0
90008904:	fae1005c 	swi	r23, r1, 92
90008908:	fa610058 	swi	r19, r1, 88
9000890c:	32400007 	addik	r18, r0, 7
90008910:	16539001 	cmp	r18, r19, r18
90008914:	beb2ffcc 	bgeid	r18, -52		// 900088e0
90008918:	30a50008 	addik	r5, r5, 8
9000891c:	be17ffbc 	beqid	r23, -68		// 900088d8
90008920:	12770000 	addk	r19, r23, r0
90008924:	10be0000 	addk	r5, r30, r0
90008928:	30c10054 	addik	r6, r1, 84
9000892c:	b9f446c0 	brlid	r15, 18112	// 9000cfec <__sfvwrite>
90008930:	12e00000 	addk	r23, r0, r0
90008934:	12770000 	addk	r19, r23, r0
90008938:	fae1005c 	swi	r23, r1, 92
9000893c:	be23fd64 	bneid	r3, -668		// 900086a0
90008940:	fae10058 	swi	r23, r1, 88
90008944:	b810ff9c 	brid	-100		// 900088e0
90008948:	10bd0000 	addk	r5, r29, r0
9000894c:	be3704ac 	bneid	r23, 1196		// 90008df8
90008950:	131d0000 	addk	r24, r29, r0
90008954:	b810f648 	brid	-2488		// 90007f9c
90008958:	fae10058 	swi	r23, r1, 88
9000895c:	e8a106b8 	lwi	r5, r1, 1720
90008960:	e8c1069c 	lwi	r6, r1, 1692
90008964:	1064b800 	addk	r3, r4, r23
90008968:	32e3ffff 	addik	r23, r3, -1
9000896c:	30850001 	addik	r4, r5, 1
90008970:	32730001 	addik	r19, r19, 1
90008974:	3066ffff 	addik	r3, r6, -1
90008978:	f8960000 	swi	r4, r22, 0
9000897c:	f8760004 	swi	r3, r22, 4
90008980:	fae1005c 	swi	r23, r1, 92
90008984:	fa610058 	swi	r19, r1, 88
90008988:	32400007 	addik	r18, r0, 7
9000898c:	16539001 	cmp	r18, r19, r18
90008990:	beb20018 	bgeid	r18, 24		// 900089a8
90008994:	32d60008 	addik	r22, r22, 8
90008998:	be370514 	bneid	r23, 1300		// 90008eac
9000899c:	12770000 	addk	r19, r23, r0
900089a0:	12dd0000 	addk	r22, r29, r0
900089a4:	fae10058 	swi	r23, r1, 88
900089a8:	e8a106a0 	lwi	r5, r1, 1696
900089ac:	32730001 	addik	r19, r19, 1
900089b0:	3061003c 	addik	r3, r1, 60
900089b4:	12f72800 	addk	r23, r23, r5
900089b8:	f8b60004 	swi	r5, r22, 4
900089bc:	f8760000 	swi	r3, r22, 0
900089c0:	fae1005c 	swi	r23, r1, 92
900089c4:	fa610058 	swi	r19, r1, 88
900089c8:	32400007 	addik	r18, r0, 7
900089cc:	16539001 	cmp	r18, r19, r18
900089d0:	beb2f928 	bgeid	r18, -1752		// 900082f8
900089d4:	30b60008 	addik	r5, r22, 8
900089d8:	be17f91c 	beqid	r23, -1764		// 900082f4
900089dc:	10bd0000 	addk	r5, r29, r0
900089e0:	10be0000 	addk	r5, r30, r0
900089e4:	30c10054 	addik	r6, r1, 84
900089e8:	b9f44604 	brlid	r15, 17924	// 9000cfec <__sfvwrite>
900089ec:	12e00000 	addk	r23, r0, r0
900089f0:	fae1005c 	swi	r23, r1, 92
900089f4:	be23fcac 	bneid	r3, -852		// 900086a0
900089f8:	fae10058 	swi	r23, r1, 88
900089fc:	b810f8fc 	brid	-1796		// 900082f8
90008a00:	10bd0000 	addk	r5, r29, r0
90008a04:	3080ffff 	addik	r4, r0, -1
90008a08:	a4630040 	andi	r3, r3, 64
90008a0c:	be23f4a8 	bneid	r3, -2904		// 90007eb4
90008a10:	f88106b0 	swi	r4, r1, 1712
90008a14:	b810f4b0 	brid	-2896		// 90007ec4
90008a18:	e86106b0 	lwi	r3, r1, 1712
90008a1c:	30c10054 	addik	r6, r1, 84
90008a20:	b9f445cc 	brlid	r15, 17868	// 9000cfec <__sfvwrite>
90008a24:	12e00000 	addk	r23, r0, r0
90008a28:	fae1005c 	swi	r23, r1, 92
90008a2c:	be03f9b0 	beqid	r3, -1616		// 900083dc
90008a30:	fae10058 	swi	r23, r1, 88
90008a34:	b810fc70 	brid	-912		// 900086a4
90008a38:	e8c10690 	lwi	r6, r1, 1680
90008a3c:	e8c106b4 	lwi	r6, r1, 1716
90008a40:	a0c60010 	ori	r6, r6, 16
90008a44:	f8c106b4 	swi	r6, r1, 1716
90008a48:	e88106b4 	lwi	r4, r1, 1716
90008a4c:	a4640020 	andi	r3, r4, 32
90008a50:	be2304bc 	bneid	r3, 1212		// 90008f0c
90008a54:	30a00001 	addik	r5, r0, 1
90008a58:	a4640010 	andi	r3, r4, 16
90008a5c:	be230bcc 	bneid	r3, 3020		// 90009628
90008a60:	30da0004 	addik	r6, r26, 4
90008a64:	a4640040 	andi	r3, r4, 64
90008a68:	bc030bc0 	beqi	r3, 3008		// 90009628
90008a6c:	30ba0004 	addik	r5, r26, 4
90008a70:	f8a10680 	swi	r5, r1, 1664
90008a74:	e6fa0002 	lhui	r23, r26, 2
90008a78:	92f70061 	sext16	r23, r23
90008a7c:	02d7b800 	add	r22, r23, r23
90008a80:	0ac00000 	addc	r22, r0, r0
90008a84:	bc160008 	beqi	r22, 8		// 90008a8c
90008a88:	22c0ffff 	addi	r22, r0, -1
90008a8c:	b8100490 	brid	1168		// 90008f1c
90008a90:	30a00001 	addik	r5, r0, 1
90008a94:	e86106b4 	lwi	r3, r1, 1716
90008a98:	a0630010 	ori	r3, r3, 16
90008a9c:	f86106b4 	swi	r3, r1, 1716
90008aa0:	e88106b4 	lwi	r4, r1, 1716
90008aa4:	a4640020 	andi	r3, r4, 32
90008aa8:	be230450 	bneid	r3, 1104		// 90008ef8
90008aac:	10a00000 	addk	r5, r0, r0
90008ab0:	10a40000 	addk	r5, r4, r0
90008ab4:	a4840010 	andi	r4, r4, 16
90008ab8:	bc240bb8 	bnei	r4, 3000		// 90009670
90008abc:	a4650040 	andi	r3, r5, 64
90008ac0:	bc030bb0 	beqi	r3, 2992		// 90009670
90008ac4:	e6fa0002 	lhui	r23, r26, 2
90008ac8:	10a40000 	addk	r5, r4, r0
90008acc:	12c40000 	addk	r22, r4, r0
90008ad0:	335a0004 	addik	r26, r26, 4
90008ad4:	b8100038 	brid	56		// 90008b0c
90008ad8:	fb410680 	swi	r26, r1, 1664
90008adc:	e88106b4 	lwi	r4, r1, 1716
90008ae0:	a0840010 	ori	r4, r4, 16
90008ae4:	f88106b4 	swi	r4, r1, 1716
90008ae8:	e8a106b4 	lwi	r5, r1, 1716
90008aec:	a4650020 	andi	r3, r5, 32
90008af0:	be0303e4 	beqid	r3, 996		// 90008ed4
90008af4:	a4850010 	andi	r4, r5, 16
90008af8:	eada0000 	lwi	r22, r26, 0
90008afc:	eafa0004 	lwi	r23, r26, 4
90008b00:	335a0008 	addik	r26, r26, 8
90008b04:	fb410680 	swi	r26, r1, 1664
90008b08:	30a00001 	addik	r5, r0, 1
90008b0c:	f0010024 	sbi	r0, r1, 36
90008b10:	e8c106a8 	lwi	r6, r1, 1704
90008b14:	be460810 	bltid	r6, 2064		// 90009324
90008b18:	e88106b4 	lwi	r4, r1, 1716
90008b1c:	8076b800 	or	r3, r22, r23
90008b20:	a484ff7f 	andi	r4, r4, -129
90008b24:	be230800 	bneid	r3, 2048		// 90009324
90008b28:	f88106b4 	swi	r4, r1, 1716
90008b2c:	be2607f8 	bneid	r6, 2040		// 90009324
90008b30:	30610280 	addik	r3, r1, 640
90008b34:	be250028 	bneid	r5, 40		// 90008b5c
90008b38:	f86106b8 	swi	r3, r1, 1720
90008b3c:	e88106b4 	lwi	r4, r1, 1716
90008b40:	a4640001 	andi	r3, r4, 1
90008b44:	be03001c 	beqid	r3, 28		// 90008b60
90008b48:	e88106b8 	lwi	r4, r1, 1720
90008b4c:	30c00030 	addik	r6, r0, 48
90008b50:	3061027f 	addik	r3, r1, 639
90008b54:	f0c1027f 	sbi	r6, r1, 639
90008b58:	f86106b8 	swi	r3, r1, 1720
90008b5c:	e88106b8 	lwi	r4, r1, 1720
90008b60:	eb8106a8 	lwi	r28, r1, 1704
90008b64:	14640800 	rsubk	r3, r4, r1
90008b68:	33230280 	addik	r25, r3, 640
90008b6c:	1659e001 	cmp	r18, r25, r28
90008b70:	beb2000c 	bgeid	r18, 12		// 90008b7c
90008b74:	e8a106a8 	lwi	r5, r1, 1704
90008b78:	13990000 	addk	r28, r25, r0
90008b7c:	f8a10698 	swi	r5, r1, 1688
90008b80:	e0610024 	lbui	r3, r1, 36
90008b84:	be03f4a4 	beqid	r3, -2908		// 90008028
90008b88:	e8a106b4 	lwi	r5, r1, 1716
90008b8c:	b810f4ac 	brid	-2900		// 90008038
90008b90:	339c0001 	addik	r28, r28, 1
90008b94:	13480000 	addk	r26, r8, r0
90008b98:	14a50000 	rsubk	r5, r5, r0
90008b9c:	f8a106ac 	swi	r5, r1, 1708
90008ba0:	e8c106b4 	lwi	r6, r1, 1716
90008ba4:	e07f0000 	lbui	r3, r31, 0
90008ba8:	a0c60004 	ori	r6, r6, 4
90008bac:	b810f428 	brid	-3032		// 90007fd4
90008bb0:	f8c106b4 	swi	r6, r1, 1716
90008bb4:	10be0000 	addk	r5, r30, r0
90008bb8:	30c10054 	addik	r6, r1, 84
90008bbc:	b9f44430 	brlid	r15, 17456	// 9000cfec <__sfvwrite>
90008bc0:	12e00000 	addk	r23, r0, r0
90008bc4:	12770000 	addk	r19, r23, r0
90008bc8:	fae1005c 	swi	r23, r1, 92
90008bcc:	be23fad4 	bneid	r3, -1324		// 900086a0
90008bd0:	fae10058 	swi	r23, r1, 88
90008bd4:	b810f5e8 	brid	-2584		// 900081bc
90008bd8:	131d0000 	addk	r24, r29, r0
90008bdc:	10be0000 	addk	r5, r30, r0
90008be0:	30c10054 	addik	r6, r1, 84
90008be4:	b9f44408 	brlid	r15, 17416	// 9000cfec <__sfvwrite>
90008be8:	12e00000 	addk	r23, r0, r0
90008bec:	12770000 	addk	r19, r23, r0
90008bf0:	fae1005c 	swi	r23, r1, 92
90008bf4:	be23faac 	bneid	r3, -1364		// 900086a0
90008bf8:	fae10058 	swi	r23, r1, 88
90008bfc:	b810f6b4 	brid	-2380		// 900082b0
90008c00:	131d0000 	addk	r24, r29, r0
90008c04:	b0009001 	imm	-28671
90008c08:	e86037a4 	lwi	r3, r0, 14244
90008c0c:	b810f1f8 	brid	-3592		// 90007e04
90008c10:	ebc30004 	lwi	r30, r3, 4
90008c14:	b0009001 	imm	-28671
90008c18:	e86037a4 	lwi	r3, r0, 14244
90008c1c:	b810f1e8 	brid	-3608		// 90007e04
90008c20:	ebc30008 	lwi	r30, r3, 8
90008c24:	b0009001 	imm	-28671
90008c28:	334033a8 	addik	r26, r0, 13224
90008c2c:	12f7b000 	addk	r23, r23, r22
90008c30:	32730001 	addik	r19, r19, 1
90008c34:	fb450000 	swi	r26, r5, 0
90008c38:	fac50004 	swi	r22, r5, 4
90008c3c:	fae1005c 	swi	r23, r1, 92
90008c40:	fa610058 	swi	r19, r1, 88
90008c44:	32400007 	addik	r18, r0, 7
90008c48:	16539001 	cmp	r18, r19, r18
90008c4c:	beb2f6ac 	bgeid	r18, -2388		// 900082f8
90008c50:	30a50008 	addik	r5, r5, 8
90008c54:	b800f694 	bri	-2412		// 900082e8
90008c58:	10be0000 	addk	r5, r30, r0
90008c5c:	30c10054 	addik	r6, r1, 84
90008c60:	b9f4438c 	brlid	r15, 17292	// 9000cfec <__sfvwrite>
90008c64:	12e00000 	addk	r23, r0, r0
90008c68:	12770000 	addk	r19, r23, r0
90008c6c:	fae1005c 	swi	r23, r1, 92
90008c70:	be23fa30 	bneid	r3, -1488		// 900086a0
90008c74:	fae10058 	swi	r23, r1, 88
90008c78:	b810f4f8 	brid	-2824		// 90008170
90008c7c:	131d0000 	addk	r24, r29, r0
90008c80:	a4640001 	andi	r3, r4, 1
90008c84:	be23fa5c 	bneid	r3, -1444		// 900086e0
90008c88:	e8a106b8 	lwi	r5, r1, 1720
90008c8c:	e88106b8 	lwi	r4, r1, 1720
90008c90:	32f70001 	addik	r23, r23, 1
90008c94:	32730001 	addik	r19, r19, 1
90008c98:	30600001 	addik	r3, r0, 1
90008c9c:	f8980000 	swi	r4, r24, 0
90008ca0:	f8780004 	swi	r3, r24, 4
90008ca4:	fae1005c 	swi	r23, r1, 92
90008ca8:	fa610058 	swi	r19, r1, 88
90008cac:	32400007 	addik	r18, r0, 7
90008cb0:	16539001 	cmp	r18, r19, r18
90008cb4:	beb2fcf4 	bgeid	r18, -780		// 900089a8
90008cb8:	32d80008 	addik	r22, r24, 8
90008cbc:	b800fcdc 	bri	-804		// 90008998
90008cc0:	12f74800 	addk	r23, r23, r9
90008cc4:	32730001 	addik	r19, r19, 1
90008cc8:	f8b80000 	swi	r5, r24, 0
90008ccc:	f9380004 	swi	r9, r24, 4
90008cd0:	fae1005c 	swi	r23, r1, 92
90008cd4:	fa610058 	swi	r19, r1, 88
90008cd8:	32400007 	addik	r18, r0, 7
90008cdc:	16539001 	cmp	r18, r19, r18
90008ce0:	beb20018 	bgeid	r18, 24		// 90008cf8
90008ce4:	30b80008 	addik	r5, r24, 8
90008ce8:	be370c48 	bneid	r23, 3144		// 90009930
90008cec:	12770000 	addk	r19, r23, r0
90008cf0:	10bd0000 	addk	r5, r29, r0
90008cf4:	fae10058 	swi	r23, r1, 88
90008cf8:	b0009001 	imm	-28671
90008cfc:	30603238 	addik	r3, r0, 12856
90008d00:	32f70001 	addik	r23, r23, 1
90008d04:	32730001 	addik	r19, r19, 1
90008d08:	30800001 	addik	r4, r0, 1
90008d0c:	f8650000 	swi	r3, r5, 0
90008d10:	f8850004 	swi	r4, r5, 4
90008d14:	fae1005c 	swi	r23, r1, 92
90008d18:	fa610058 	swi	r19, r1, 88
90008d1c:	30e50008 	addik	r7, r5, 8
90008d20:	32400007 	addik	r18, r0, 7
90008d24:	16539001 	cmp	r18, r19, r18
90008d28:	beb20018 	bgeid	r18, 24		// 90008d40
90008d2c:	12c90000 	addk	r22, r9, r0
90008d30:	be370bd4 	bneid	r23, 3028		// 90009904
90008d34:	12770000 	addk	r19, r23, r0
90008d38:	10fd0000 	addk	r7, r29, r0
90008d3c:	fae10058 	swi	r23, r1, 88
90008d40:	e8c1069c 	lwi	r6, r1, 1692
90008d44:	e8a106b8 	lwi	r5, r1, 1720
90008d48:	32730001 	addik	r19, r19, 1
90008d4c:	14893000 	rsubk	r4, r9, r6
90008d50:	10762800 	addk	r3, r22, r5
90008d54:	12f72000 	addk	r23, r23, r4
90008d58:	f8670000 	swi	r3, r7, 0
90008d5c:	f8870004 	swi	r4, r7, 4
90008d60:	fae1005c 	swi	r23, r1, 92
90008d64:	fa610058 	swi	r19, r1, 88
90008d68:	32400007 	addik	r18, r0, 7
90008d6c:	16539001 	cmp	r18, r19, r18
90008d70:	beb2f588 	bgeid	r18, -2680		// 900082f8
90008d74:	30a70008 	addik	r5, r7, 8
90008d78:	b800f570 	bri	-2704		// 900082e8
90008d7c:	10be0000 	addk	r5, r30, r0
90008d80:	30c10054 	addik	r6, r1, 84
90008d84:	b9f44268 	brlid	r15, 17000	// 9000cfec <__sfvwrite>
90008d88:	12e00000 	addk	r23, r0, r0
90008d8c:	fae1005c 	swi	r23, r1, 92
90008d90:	be23f910 	bneid	r3, -1776		// 900086a0
90008d94:	fae10058 	swi	r23, r1, 88
90008d98:	10bd0000 	addk	r5, r29, r0
90008d9c:	e88106b4 	lwi	r4, r1, 1716
90008da0:	a4640001 	andi	r3, r4, 1
90008da4:	be03f558 	beqid	r3, -2728		// 900082fc
90008da8:	e8c106b4 	lwi	r6, r1, 1716
90008dac:	ea610058 	lwi	r19, r1, 88
90008db0:	b0009001 	imm	-28671
90008db4:	30603238 	addik	r3, r0, 12856
90008db8:	32f70001 	addik	r23, r23, 1
90008dbc:	32730001 	addik	r19, r19, 1
90008dc0:	30800001 	addik	r4, r0, 1
90008dc4:	f8650000 	swi	r3, r5, 0
90008dc8:	f8850004 	swi	r4, r5, 4
90008dcc:	fae1005c 	swi	r23, r1, 92
90008dd0:	fa610058 	swi	r19, r1, 88
90008dd4:	32400007 	addik	r18, r0, 7
90008dd8:	16539001 	cmp	r18, r19, r18
90008ddc:	beb2f51c 	bgeid	r18, -2788		// 900082f8
90008de0:	30a50008 	addik	r5, r5, 8
90008de4:	b800f504 	bri	-2812		// 900082e8
90008de8:	b0009001 	imm	-28671
90008dec:	334033a8 	addik	r26, r0, 13224
90008df0:	b810f48c 	brid	-2932		// 9000827c
90008df4:	12f7b000 	addk	r23, r23, r22
90008df8:	10be0000 	addk	r5, r30, r0
90008dfc:	30c10054 	addik	r6, r1, 84
90008e00:	b9f441ec 	brlid	r15, 16876	// 9000cfec <__sfvwrite>
90008e04:	12e00000 	addk	r23, r0, r0
90008e08:	fae1005c 	swi	r23, r1, 92
90008e0c:	be23f8a4 	bneid	r3, -1884		// 900086b0
90008e10:	fae10058 	swi	r23, r1, 88
90008e14:	b810f188 	brid	-3704		// 90007f9c
90008e18:	131d0000 	addk	r24, r29, r0
90008e1c:	10be0000 	addk	r5, r30, r0
90008e20:	30c10054 	addik	r6, r1, 84
90008e24:	b9f441c8 	brlid	r15, 16840	// 9000cfec <__sfvwrite>
90008e28:	12e00000 	addk	r23, r0, r0
90008e2c:	12770000 	addk	r19, r23, r0
90008e30:	fae1005c 	swi	r23, r1, 92
90008e34:	be23f86c 	bneid	r3, -1940		// 900086a0
90008e38:	fae10058 	swi	r23, r1, 88
90008e3c:	b810f390 	brid	-3184		// 900081cc
90008e40:	131d0000 	addk	r24, r29, r0
90008e44:	10be0000 	addk	r5, r30, r0
90008e48:	30c10054 	addik	r6, r1, 84
90008e4c:	b9f441a0 	brlid	r15, 16800	// 9000cfec <__sfvwrite>
90008e50:	12e00000 	addk	r23, r0, r0
90008e54:	12770000 	addk	r19, r23, r0
90008e58:	fae1005c 	swi	r23, r1, 92
90008e5c:	be23f844 	bneid	r3, -1980		// 900086a0
90008e60:	fae10058 	swi	r23, r1, 88
90008e64:	b810f8cc 	brid	-1844		// 90008730
90008e68:	12dd0000 	addk	r22, r29, r0
90008e6c:	b0009001 	imm	-28671
90008e70:	334033a8 	addik	r26, r0, 13224
90008e74:	12f7b000 	addk	r23, r23, r22
90008e78:	32730001 	addik	r19, r19, 1
90008e7c:	fb450000 	swi	r26, r5, 0
90008e80:	fac50004 	swi	r22, r5, 4
90008e84:	fae1005c 	swi	r23, r1, 92
90008e88:	fa610058 	swi	r19, r1, 88
90008e8c:	32400007 	addik	r18, r0, 7
90008e90:	16539001 	cmp	r18, r19, r18
90008e94:	beb2ff08 	bgeid	r18, -248		// 90008d9c
90008e98:	30a50008 	addik	r5, r5, 8
90008e9c:	be37fee0 	bneid	r23, -288		// 90008d7c
90008ea0:	10bd0000 	addk	r5, r29, r0
90008ea4:	b810fef8 	brid	-264		// 90008d9c
90008ea8:	fae10058 	swi	r23, r1, 88
90008eac:	10be0000 	addk	r5, r30, r0
90008eb0:	30c10054 	addik	r6, r1, 84
90008eb4:	b9f44138 	brlid	r15, 16696	// 9000cfec <__sfvwrite>
90008eb8:	12e00000 	addk	r23, r0, r0
90008ebc:	12770000 	addk	r19, r23, r0
90008ec0:	fae1005c 	swi	r23, r1, 92
90008ec4:	be23f7dc 	bneid	r3, -2084		// 900086a0
90008ec8:	fae10058 	swi	r23, r1, 88
90008ecc:	b810fadc 	brid	-1316		// 900089a8
90008ed0:	12dd0000 	addk	r22, r29, r0
90008ed4:	bc240784 	bnei	r4, 1924		// 90009658
90008ed8:	a4650040 	andi	r3, r5, 64
90008edc:	bc03077c 	beqi	r3, 1916		// 90009658
90008ee0:	e6fa0002 	lhui	r23, r26, 2
90008ee4:	12c40000 	addk	r22, r4, r0
90008ee8:	335a0004 	addik	r26, r26, 4
90008eec:	30a00001 	addik	r5, r0, 1
90008ef0:	b810fc1c 	brid	-996		// 90008b0c
90008ef4:	fb410680 	swi	r26, r1, 1664
90008ef8:	eada0000 	lwi	r22, r26, 0
90008efc:	eafa0004 	lwi	r23, r26, 4
90008f00:	335a0008 	addik	r26, r26, 8
90008f04:	b810fc08 	brid	-1016		// 90008b0c
90008f08:	fb410680 	swi	r26, r1, 1664
90008f0c:	eada0000 	lwi	r22, r26, 0
90008f10:	eafa0004 	lwi	r23, r26, 4
90008f14:	335a0008 	addik	r26, r26, 8
90008f18:	fb410680 	swi	r26, r1, 1664
90008f1c:	beb6fbf8 	bgeid	r22, -1032		// 90008b14
90008f20:	e8c106a8 	lwi	r6, r1, 1704
90008f24:	06f70000 	rsub	r23, r23, r0
90008f28:	0ed60000 	rsubc	r22, r22, r0
90008f2c:	3060002d 	addik	r3, r0, 45
90008f30:	b810fbe0 	brid	-1056		// 90008b10
90008f34:	f0610024 	sbi	r3, r1, 36
90008f38:	e8c106b4 	lwi	r6, r1, 1716
90008f3c:	e07f0000 	lbui	r3, r31, 0
90008f40:	a0c60040 	ori	r6, r6, 64
90008f44:	b810f090 	brid	-3952		// 90007fd4
90008f48:	f8c106b4 	swi	r6, r1, 1716
90008f4c:	e8a106b4 	lwi	r5, r1, 1716
90008f50:	e07f0000 	lbui	r3, r31, 0
90008f54:	a0a50008 	ori	r5, r5, 8
90008f58:	b810f07c 	brid	-3972		// 90007fd4
90008f5c:	f8a106b4 	swi	r5, r1, 1716
90008f60:	e88106b4 	lwi	r4, r1, 1716
90008f64:	a4640020 	andi	r3, r4, 32
90008f68:	be030820 	beqid	r3, 2080		// 90009788
90008f6c:	a4640010 	andi	r3, r4, 16
90008f70:	e87a0000 	lwi	r3, r26, 0
90008f74:	335a0004 	addik	r26, r26, 4
90008f78:	e8a106b0 	lwi	r5, r1, 1712
90008f7c:	00852800 	add	r4, r5, r5
90008f80:	08800000 	addc	r4, r0, r0
90008f84:	bc040008 	beqi	r4, 8		// 90008f8c
90008f88:	2080ffff 	addi	r4, r0, -1
90008f8c:	fb410680 	swi	r26, r1, 1664
90008f90:	f8830000 	swi	r4, r3, 0
90008f94:	f8a30004 	swi	r5, r3, 4
90008f98:	b810ef9c 	brid	-4196		// 90007f34
90008f9c:	eb410680 	lwi	r26, r1, 1664
90008fa0:	e07f0000 	lbui	r3, r31, 0
90008fa4:	aa43006c 	xori	r18, r3, 108
90008fa8:	be1208f0 	beqid	r18, 2288		// 90009898
90008fac:	e8a106b4 	lwi	r5, r1, 1716
90008fb0:	a0a50010 	ori	r5, r5, 16
90008fb4:	b810f020 	brid	-4064		// 90007fd4
90008fb8:	f8a106b4 	swi	r5, r1, 1716
90008fbc:	e8ba0000 	lwi	r5, r26, 0
90008fc0:	311a0004 	addik	r8, r26, 4
90008fc4:	be45fbd0 	bltid	r5, -1072		// 90008b94
90008fc8:	f8a106ac 	swi	r5, r1, 1708
90008fcc:	13480000 	addk	r26, r8, r0
90008fd0:	b810f004 	brid	-4092		// 90007fd4
90008fd4:	e07f0000 	lbui	r3, r31, 0
90008fd8:	3060002b 	addik	r3, r0, 43
90008fdc:	f0610024 	sbi	r3, r1, 36
90008fe0:	b810eff4 	brid	-4108		// 90007fd4
90008fe4:	e07f0000 	lbui	r3, r31, 0
90008fe8:	e88106b4 	lwi	r4, r1, 1716
90008fec:	e07f0000 	lbui	r3, r31, 0
90008ff0:	a0840001 	ori	r4, r4, 1
90008ff4:	b810efe0 	brid	-4128		// 90007fd4
90008ff8:	f88106b4 	swi	r4, r1, 1716
90008ffc:	e0610024 	lbui	r3, r1, 36
90009000:	bc2307b0 	bnei	r3, 1968		// 900097b0
90009004:	30600020 	addik	r3, r0, 32	// 20 <_vector_hw_exception>
90009008:	f0610024 	sbi	r3, r1, 36
9000900c:	b810efc8 	brid	-4152		// 90007fd4
90009010:	e07f0000 	lbui	r3, r31, 0
90009014:	10c00000 	addk	r6, r0, r0
90009018:	64660402 	bslli	r3, r6, 2
9000901c:	e0bf0000 	lbui	r5, r31, 0
90009020:	10633000 	addk	r3, r3, r6
90009024:	10631800 	addk	r3, r3, r3
90009028:	107b1800 	addk	r3, r27, r3
9000902c:	93650060 	sext8	r27, r5
90009030:	309bffd0 	addik	r4, r27, -48
90009034:	30c3ffd0 	addik	r6, r3, -48
90009038:	22400009 	addi	r18, r0, 9
9000903c:	16449003 	cmpu	r18, r4, r18
90009040:	beb2ffd8 	bgeid	r18, -40		// 90009018
90009044:	33ff0001 	addik	r31, r31, 1
90009048:	b810ef94 	brid	-4204		// 90007fdc
9000904c:	f8c106ac 	swi	r6, r1, 1708
90009050:	e88106a8 	lwi	r4, r1, 1704
90009054:	aa44ffff 	xori	r18, r4, -1
90009058:	be120858 	beqid	r18, 2136		// 900098b0
9000905c:	fb610684 	swi	r27, r1, 1668
90009060:	aa5b0067 	xori	r18, r27, 103
90009064:	be120824 	beqid	r18, 2084		// 90009888
90009068:	e8c106a8 	lwi	r6, r1, 1704
9000906c:	aa5b0047 	xori	r18, r27, 71
90009070:	bc120818 	beqi	r18, 2072		// 90009888
90009074:	e89a0000 	lwi	r4, r26, 0
90009078:	e8ba0004 	lwi	r5, r26, 4
9000907c:	335a0008 	addik	r26, r26, 8
90009080:	fb410680 	swi	r26, r1, 1664
90009084:	f8810688 	swi	r4, r1, 1672
90009088:	f8a1068c 	swi	r5, r1, 1676
9000908c:	10c50000 	addk	r6, r5, r0
90009090:	b9f476b0 	brlid	r15, 30384	// 90010740 <isinf>
90009094:	10a40000 	addk	r5, r4, r0
90009098:	be030824 	beqid	r3, 2084		// 900098bc
9000909c:	12630000 	addk	r19, r3, r0
900090a0:	e8a10688 	lwi	r5, r1, 1672
900090a4:	e8c1068c 	lwi	r6, r1, 1676
900090a8:	10e00000 	addk	r7, r0, r0
900090ac:	11000000 	addk	r8, r0, r0
900090b0:	b0000000 	imm	0
900090b4:	b9f49388 	brlid	r15, -27768	// 9001243c <__ltdf2>
900090b8:	80000000 	or	r0, r0, r0
900090bc:	be430aec 	bltid	r3, 2796		// 90009ba8
900090c0:	30a0002d 	addik	r5, r0, 45
900090c4:	307bffbb 	addik	r3, r27, -69
900090c8:	22400002 	addi	r18, r0, 2
900090cc:	16439003 	cmpu	r18, r3, r18
900090d0:	be52079c 	bltid	r18, 1948		// 9000986c
900090d4:	10800000 	addk	r4, r0, r0
900090d8:	33800003 	addik	r28, r0, 3
900090dc:	b0009001 	imm	-28671
900090e0:	30c031f4 	addik	r6, r0, 12788
900090e4:	133c0000 	addk	r25, r28, r0
900090e8:	10600000 	addk	r3, r0, r0
900090ec:	f8c106b8 	swi	r6, r1, 1720
900090f0:	b810fa90 	brid	-1392		// 90008b80
900090f4:	f8610698 	swi	r3, r1, 1688
900090f8:	aa5b0043 	xori	r18, r27, 67
900090fc:	be120648 	beqid	r18, 1608		// 90009744
90009100:	e88106b4 	lwi	r4, r1, 1716
90009104:	a4640010 	andi	r3, r4, 16
90009108:	be230640 	bneid	r3, 1600		// 90009748
9000910c:	32c10044 	addik	r22, r1, 68
90009110:	e0ba0003 	lbui	r5, r26, 3
90009114:	335a0004 	addik	r26, r26, 4
90009118:	fb410680 	swi	r26, r1, 1664
9000911c:	f0a10124 	sbi	r5, r1, 292
90009120:	33200001 	addik	r25, r0, 1
90009124:	32610124 	addik	r19, r1, 292
90009128:	a879ffff 	xori	r3, r25, -1
9000912c:	6463021f 	bsrai	r3, r3, 31
90009130:	fa6106b8 	swi	r19, r1, 1720
90009134:	87991800 	and	r28, r25, r3
90009138:	b810eee4 	brid	-4380		// 9000801c
9000913c:	f0010024 	sbi	r0, r1, 36
90009140:	b0009001 	imm	-28671
90009144:	30c03200 	addik	r6, r0, 12800
90009148:	f8c10694 	swi	r6, r1, 1684
9000914c:	e88106b4 	lwi	r4, r1, 1716
90009150:	a4640020 	andi	r3, r4, 32
90009154:	be030334 	beqid	r3, 820		// 90009488
90009158:	10a40000 	addk	r5, r4, r0
9000915c:	eada0000 	lwi	r22, r26, 0
90009160:	eafa0004 	lwi	r23, r26, 4
90009164:	335a0008 	addik	r26, r26, 8
90009168:	fb410680 	swi	r26, r1, 1664
9000916c:	e88106b4 	lwi	r4, r1, 1716
90009170:	a4640001 	andi	r3, r4, 1
90009174:	be03f998 	beqid	r3, -1640		// 90008b0c
90009178:	30a00002 	addik	r5, r0, 2
9000917c:	8076b800 	or	r3, r22, r23
90009180:	bc03f98c 	beqi	r3, -1652		// 90008b0c
90009184:	e8a106b4 	lwi	r5, r1, 1716
90009188:	a0a50002 	ori	r5, r5, 2
9000918c:	f8a106b4 	swi	r5, r1, 1716
90009190:	b810f97c 	brid	-1668		// 90008b0c
90009194:	30a00002 	addik	r5, r0, 2
90009198:	f0010024 	sbi	r0, r1, 36
9000919c:	e8ba0000 	lwi	r5, r26, 0
900091a0:	335a0004 	addik	r26, r26, 4
900091a4:	fb410680 	swi	r26, r1, 1664
900091a8:	be0507dc 	beqid	r5, 2012		// 90009984
900091ac:	f8a106b8 	swi	r5, r1, 1720
900091b0:	aa5b0053 	xori	r18, r27, 83
900091b4:	be120604 	beqid	r18, 1540		// 900097b8
900091b8:	e8c106b4 	lwi	r6, r1, 1716
900091bc:	a6660010 	andi	r19, r6, 16
900091c0:	be3305fc 	bneid	r19, 1532		// 900097bc
900091c4:	32c1004c 	addik	r22, r1, 76
900091c8:	e88106a8 	lwi	r4, r1, 1704
900091cc:	be440b50 	bltid	r4, 2896		// 90009d1c
900091d0:	e8a106b8 	lwi	r5, r1, 1720
900091d4:	10d30000 	addk	r6, r19, r0
900091d8:	b9f4465c 	brlid	r15, 18012	// 9000d834 <memchr>
900091dc:	10e40000 	addk	r7, r4, r0
900091e0:	be030bbc 	beqid	r3, 3004		// 90009d9c
900091e4:	e8a106b8 	lwi	r5, r1, 1720
900091e8:	e8c106a8 	lwi	r6, r1, 1704
900091ec:	17251800 	rsubk	r25, r5, r3
900091f0:	16593001 	cmp	r18, r25, r6
900091f4:	be520b0c 	bltid	r18, 2828		// 90009d00
900091f8:	eb8106a8 	lwi	r28, r1, 1704
900091fc:	be590b34 	bltid	r25, 2868		// 90009d30
90009200:	13990000 	addk	r28, r25, r0
90009204:	b810f97c 	brid	-1668		// 90008b80
90009208:	fa610698 	swi	r19, r1, 1688
9000920c:	b0009001 	imm	-28671
90009210:	30c031e0 	addik	r6, r0, 12768
90009214:	b810ff38 	brid	-200		// 9000914c
90009218:	f8c10694 	swi	r6, r1, 1684
9000921c:	e8c106b4 	lwi	r6, r1, 1716
90009220:	e07f0000 	lbui	r3, r31, 0
90009224:	a0c60020 	ori	r6, r6, 32
90009228:	b810edac 	brid	-4692		// 90007fd4
9000922c:	f8c106b4 	swi	r6, r1, 1716
90009230:	e88106b4 	lwi	r4, r1, 1716
90009234:	b0009001 	imm	-28671
90009238:	306031e0 	addik	r3, r0, 12768
9000923c:	eafa0000 	lwi	r23, r26, 0
90009240:	a0840002 	ori	r4, r4, 2
90009244:	335a0004 	addik	r26, r26, 4
90009248:	12c00000 	addk	r22, r0, r0
9000924c:	30a00002 	addik	r5, r0, 2
90009250:	33600078 	addik	r27, r0, 120
90009254:	f8610694 	swi	r3, r1, 1684
90009258:	f88106b4 	swi	r4, r1, 1716
9000925c:	b810f8b0 	brid	-1872		// 90008b0c
90009260:	fb410680 	swi	r26, r1, 1664
90009264:	e88106b4 	lwi	r4, r1, 1716
90009268:	e07f0000 	lbui	r3, r31, 0
9000926c:	a0840080 	ori	r4, r4, 128
90009270:	b810ed64 	brid	-4764		// 90007fd4
90009274:	f88106b4 	swi	r4, r1, 1716
90009278:	e07f0000 	lbui	r3, r31, 0
9000927c:	90630060 	sext8	r3, r3
90009280:	aa43002a 	xori	r18, r3, 42
90009284:	be120cd4 	beqid	r18, 3284		// 90009f58
90009288:	33ff0001 	addik	r31, r31, 1
9000928c:	13630000 	addk	r27, r3, r0
90009290:	10800000 	addk	r4, r0, r0
90009294:	3063ffd0 	addik	r3, r3, -48
90009298:	22400009 	addi	r18, r0, 9
9000929c:	16439003 	cmpu	r18, r3, r18
900092a0:	be52ed3c 	bltid	r18, -4804		// 90007fdc
900092a4:	f88106a8 	swi	r4, r1, 1704
900092a8:	10e00000 	addk	r7, r0, r0
900092ac:	64670402 	bslli	r3, r7, 2
900092b0:	e0bf0000 	lbui	r5, r31, 0
900092b4:	10633800 	addk	r3, r3, r7
900092b8:	10631800 	addk	r3, r3, r3
900092bc:	1063d800 	addk	r3, r3, r27
900092c0:	93650060 	sext8	r27, r5
900092c4:	309bffd0 	addik	r4, r27, -48
900092c8:	30e3ffd0 	addik	r7, r3, -48
900092cc:	22400009 	addi	r18, r0, 9
900092d0:	16449003 	cmpu	r18, r4, r18
900092d4:	beb2ffd8 	bgeid	r18, -40		// 900092ac
900092d8:	33ff0001 	addik	r31, r31, 1
900092dc:	bea7ed00 	bgeid	r7, -4864		// 90007fdc
900092e0:	f8e106a8 	swi	r7, r1, 1704
900092e4:	30c0ffff 	addik	r6, r0, -1
900092e8:	b810ecf4 	brid	-4876		// 90007fdc
900092ec:	f8c106a8 	swi	r6, r1, 1704
900092f0:	be37066c 	bneid	r23, 1644		// 9000995c
900092f4:	10bd0000 	addk	r5, r29, r0
900092f8:	b810f5b0 	brid	-2640		// 900088a8
900092fc:	fae10058 	swi	r23, r1, 88
90009300:	10be0000 	addk	r5, r30, r0
90009304:	30c10054 	addik	r6, r1, 84
90009308:	b9f43ce4 	brlid	r15, 15588	// 9000cfec <__sfvwrite>
9000930c:	12e00000 	addk	r23, r0, r0
90009310:	fae1005c 	swi	r23, r1, 92
90009314:	be23f38c 	bneid	r3, -3188		// 900086a0
90009318:	fae10058 	swi	r23, r1, 88
9000931c:	b810f1e4 	brid	-3612		// 90008500
90009320:	10bd0000 	addk	r5, r29, r0
90009324:	aa450001 	xori	r18, r5, 1
90009328:	be1200c0 	beqid	r18, 192		// 900093e8
9000932c:	30c10280 	addik	r6, r1, 640
90009330:	22400001 	addi	r18, r0, 1
90009334:	16522803 	cmpu	r18, r18, r5
90009338:	be52004c 	bltid	r18, 76		// 90009384
9000933c:	f8c106b8 	swi	r6, r1, 1720
90009340:	aa450002 	xori	r18, r5, 2
90009344:	be120298 	beqid	r18, 664		// 900095dc
90009348:	30a10280 	addik	r5, r1, 640
9000934c:	b0009001 	imm	-28671
90009350:	30a03214 	addik	r5, r0, 12820
90009354:	b9f46f3c 	brlid	r15, 28476	// 90010290 <strlen>
90009358:	eb8106a8 	lwi	r28, r1, 1704
9000935c:	1643e001 	cmp	r18, r3, r28
90009360:	beb2000c 	bgeid	r18, 12		// 9000936c
90009364:	13230000 	addk	r25, r3, r0
90009368:	13830000 	addk	r28, r3, r0
9000936c:	e8a106a8 	lwi	r5, r1, 1704
90009370:	b0009001 	imm	-28671
90009374:	30c03214 	addik	r6, r0, 12820
90009378:	f8a10698 	swi	r5, r1, 1688
9000937c:	b810f804 	brid	-2044		// 90008b80
90009380:	f8c106b8 	swi	r6, r1, 1720
90009384:	6476041d 	bslli	r3, r22, 29
90009388:	64b70003 	bsrli	r5, r23, 3
9000938c:	64960003 	bsrli	r4, r22, 3
90009390:	80a32800 	or	r5, r3, r5
90009394:	e86106b8 	lwi	r3, r1, 1720
90009398:	12c40000 	addk	r22, r4, r0
9000939c:	a4d70007 	andi	r6, r23, 7
900093a0:	3063ffff 	addik	r3, r3, -1
900093a4:	f86106b8 	swi	r3, r1, 1720
900093a8:	80642800 	or	r3, r4, r5
900093ac:	e88106b8 	lwi	r4, r1, 1720
900093b0:	30c60030 	addik	r6, r6, 48
900093b4:	12e50000 	addk	r23, r5, r0
900093b8:	be23ffcc 	bneid	r3, -52		// 90009384
900093bc:	f0c40000 	sbi	r6, r4, 0
900093c0:	e8a106b4 	lwi	r5, r1, 1716
900093c4:	a4650001 	andi	r3, r5, 1
900093c8:	bc03f794 	beqi	r3, -2156		// 90008b5c
900093cc:	aa460030 	xori	r18, r6, 48
900093d0:	be12f78c 	beqid	r18, -2164		// 90008b5c
900093d4:	3084ffff 	addik	r4, r4, -1
900093d8:	f88106b8 	swi	r4, r1, 1720
900093dc:	30c00030 	addik	r6, r0, 48
900093e0:	b810f77c 	brid	-2180		// 90008b5c
900093e4:	f0c40000 	sbi	r6, r4, 0
900093e8:	be360038 	bneid	r22, 56		// 90009420
900093ec:	32610280 	addik	r19, r1, 640
900093f0:	be36001c 	bneid	r22, 28		// 9000940c
900093f4:	3061027f 	addik	r3, r1, 639
900093f8:	22400009 	addi	r18, r0, 9
900093fc:	16579003 	cmpu	r18, r23, r18
90009400:	be520024 	bltid	r18, 36		// 90009424
90009404:	10b60000 	addk	r5, r22, r0
90009408:	3061027f 	addik	r3, r1, 639
9000940c:	10830000 	addk	r4, r3, r0
90009410:	f86106b8 	swi	r3, r1, 1720
90009414:	30770030 	addik	r3, r23, 48
90009418:	b810f744 	brid	-2236		// 90008b5c
9000941c:	f0640000 	sbi	r3, r4, 0
90009420:	10b60000 	addk	r5, r22, r0
90009424:	10d70000 	addk	r6, r23, r0
90009428:	30e00000 	addik	r7, r0, 0
9000942c:	3100000a 	addik	r8, r0, 10
90009430:	b0000000 	imm	0
90009434:	b9f47bf0 	brlid	r15, 31728	// 90011024 <__umoddi3>
90009438:	3273ffff 	addik	r19, r19, -1
9000943c:	10b60000 	addk	r5, r22, r0
90009440:	10d70000 	addk	r6, r23, r0
90009444:	30640030 	addik	r3, r4, 48
90009448:	30e00000 	addik	r7, r0, 0
9000944c:	3100000a 	addik	r8, r0, 10
90009450:	b9f47544 	brlid	r15, 30020	// 90010994 <__udivdi3>
90009454:	f0730000 	sbi	r3, r19, 0
90009458:	12c30000 	addk	r22, r3, r0
9000945c:	be36ffc4 	bneid	r22, -60		// 90009420
90009460:	12e40000 	addk	r23, r4, r0
90009464:	bc360014 	bnei	r22, 20		// 90009478
90009468:	22400009 	addi	r18, r0, 9
9000946c:	16449003 	cmpu	r18, r4, r18
90009470:	be52ffb4 	bltid	r18, -76		// 90009424
90009474:	10b60000 	addk	r5, r22, r0
90009478:	3273ffff 	addik	r19, r19, -1
9000947c:	10930000 	addk	r4, r19, r0
90009480:	b810ff94 	brid	-108		// 90009414
90009484:	fa6106b8 	swi	r19, r1, 1720
90009488:	a4840010 	andi	r4, r4, 16
9000948c:	bc2401fc 	bnei	r4, 508		// 90009688
90009490:	a4650040 	andi	r3, r5, 64
90009494:	bc0301f4 	beqi	r3, 500		// 90009688
90009498:	e6fa0002 	lhui	r23, r26, 2
9000949c:	12c40000 	addk	r22, r4, r0
900094a0:	335a0004 	addik	r26, r26, 4
900094a4:	b810fcc8 	brid	-824		// 9000916c
900094a8:	fb410680 	swi	r26, r1, 1664
900094ac:	b0009001 	imm	-28671
900094b0:	30603234 	addik	r3, r0, 12852
900094b4:	32f70001 	addik	r23, r23, 1
900094b8:	32730001 	addik	r19, r19, 1
900094bc:	30800001 	addik	r4, r0, 1
900094c0:	f8780000 	swi	r3, r24, 0
900094c4:	f8980004 	swi	r4, r24, 4
900094c8:	fae1005c 	swi	r23, r1, 92
900094cc:	fa610058 	swi	r19, r1, 88
900094d0:	32400007 	addik	r18, r0, 7
900094d4:	16539001 	cmp	r18, r19, r18
900094d8:	beb20014 	bgeid	r18, 20		// 900094ec
900094dc:	30b80008 	addik	r5, r24, 8
900094e0:	be370690 	bneid	r23, 1680		// 90009b70
900094e4:	10bd0000 	addk	r5, r29, r0
900094e8:	fae10058 	swi	r23, r1, 88
900094ec:	be290018 	bneid	r9, 24		// 90009504
900094f0:	ea610058 	lwi	r19, r1, 88
900094f4:	e8c1069c 	lwi	r6, r1, 1692
900094f8:	be06ee04 	beqid	r6, -4604		// 900082fc
900094fc:	e8c106b4 	lwi	r6, r1, 1716
90009500:	ea610058 	lwi	r19, r1, 88
90009504:	30600001 	addik	r3, r0, 1
90009508:	f8650004 	swi	r3, r5, 4
9000950c:	e86106a4 	lwi	r3, r1, 1700
90009510:	32f70001 	addik	r23, r23, 1
90009514:	32730001 	addik	r19, r19, 1
90009518:	f8650000 	swi	r3, r5, 0
9000951c:	fae1005c 	swi	r23, r1, 92
90009520:	fa610058 	swi	r19, r1, 88
90009524:	32400007 	addik	r18, r0, 7
90009528:	16539001 	cmp	r18, r19, r18
9000952c:	beb20018 	bgeid	r18, 24		// 90009544
90009530:	30850008 	addik	r4, r5, 8
90009534:	be370788 	bneid	r23, 1928		// 90009cbc
90009538:	12770000 	addk	r19, r23, r0
9000953c:	109d0000 	addk	r4, r29, r0
90009540:	fae10058 	swi	r23, r1, 88
90009544:	16c90000 	rsubk	r22, r9, r0
90009548:	bc7601c8 	blei	r22, 456		// 90009710
9000954c:	32400010 	addik	r18, r0, 16	// 10 <_vector_interrupt>
90009550:	16569001 	cmp	r18, r22, r18
90009554:	bcb2017c 	bgei	r18, 380		// 900096d0
90009558:	b0009001 	imm	-28671
9000955c:	334033a8 	addik	r26, r0, 13224
90009560:	b8100024 	brid	36		// 90009584
90009564:	32f70010 	addik	r23, r23, 16
90009568:	109d0000 	addk	r4, r29, r0
9000956c:	fae10058 	swi	r23, r1, 88
90009570:	32d6fff0 	addik	r22, r22, -16
90009574:	32400010 	addik	r18, r0, 16	// 10 <_vector_interrupt>
90009578:	16569001 	cmp	r18, r22, r18
9000957c:	bcb2015c 	bgei	r18, 348		// 900096d8
90009580:	32f70010 	addik	r23, r23, 16
90009584:	32730001 	addik	r19, r19, 1
90009588:	30600010 	addik	r3, r0, 16	// 10 <_vector_interrupt>
9000958c:	f8640004 	swi	r3, r4, 4
90009590:	fb440000 	swi	r26, r4, 0
90009594:	fae1005c 	swi	r23, r1, 92
90009598:	fa610058 	swi	r19, r1, 88
9000959c:	32400007 	addik	r18, r0, 7
900095a0:	16539001 	cmp	r18, r19, r18
900095a4:	beb2ffcc 	bgeid	r18, -52		// 90009570
900095a8:	30840008 	addik	r4, r4, 8
900095ac:	be17ffbc 	beqid	r23, -68		// 90009568
900095b0:	12770000 	addk	r19, r23, r0
900095b4:	10be0000 	addk	r5, r30, r0
900095b8:	30c10054 	addik	r6, r1, 84
900095bc:	b9f43a30 	brlid	r15, 14896	// 9000cfec <__sfvwrite>
900095c0:	12e00000 	addk	r23, r0, r0
900095c4:	12770000 	addk	r19, r23, r0
900095c8:	fae1005c 	swi	r23, r1, 92
900095cc:	be23f0d4 	bneid	r3, -3884		// 900086a0
900095d0:	fae10058 	swi	r23, r1, 88
900095d4:	b810ff9c 	brid	-100		// 90009570
900095d8:	109d0000 	addk	r4, r29, r0
900095dc:	f8a106b8 	swi	r5, r1, 1720
900095e0:	6476041c 	bslli	r3, r22, 28
900095e4:	64b70004 	bsrli	r5, r23, 4
900095e8:	64960004 	bsrli	r4, r22, 4
900095ec:	80a32800 	or	r5, r3, r5
900095f0:	e86106b8 	lwi	r3, r1, 1720
900095f4:	12c40000 	addk	r22, r4, r0
900095f8:	a4d7000f 	andi	r6, r23, 15
900095fc:	3063ffff 	addik	r3, r3, -1
90009600:	f86106b8 	swi	r3, r1, 1720
90009604:	80642800 	or	r3, r4, r5
90009608:	e8810694 	lwi	r4, r1, 1684
9000960c:	12e50000 	addk	r23, r5, r0
90009610:	c0c62000 	lbu	r6, r6, r4
90009614:	e88106b8 	lwi	r4, r1, 1720
90009618:	be23ffc8 	bneid	r3, -56		// 900095e0
9000961c:	f0c40000 	sbi	r6, r4, 0
90009620:	b810f540 	brid	-2752		// 90008b60
90009624:	e88106b8 	lwi	r4, r1, 1720
90009628:	f8c10680 	swi	r6, r1, 1664
9000962c:	eafa0000 	lwi	r23, r26, 0
90009630:	02d7b800 	add	r22, r23, r23
90009634:	0ac00000 	addc	r22, r0, r0
90009638:	bc160008 	beqi	r22, 8		// 90009640
9000963c:	22c0ffff 	addi	r22, r0, -1
90009640:	b810f8dc 	brid	-1828		// 90008f1c
90009644:	30a00001 	addik	r5, r0, 1
90009648:	b0009001 	imm	-28671
9000964c:	334033b8 	addik	r26, r0, 13240
90009650:	b810eaa4 	brid	-5468		// 900080f4
90009654:	ea610058 	lwi	r19, r1, 88
90009658:	eafa0000 	lwi	r23, r26, 0
9000965c:	12c30000 	addk	r22, r3, r0
90009660:	335a0004 	addik	r26, r26, 4
90009664:	30a00001 	addik	r5, r0, 1
90009668:	b810f4a4 	brid	-2908		// 90008b0c
9000966c:	fb410680 	swi	r26, r1, 1664
90009670:	eafa0000 	lwi	r23, r26, 0
90009674:	10a30000 	addk	r5, r3, r0
90009678:	12c30000 	addk	r22, r3, r0
9000967c:	335a0004 	addik	r26, r26, 4
90009680:	b810f48c 	brid	-2932		// 90008b0c
90009684:	fb410680 	swi	r26, r1, 1664
90009688:	eafa0000 	lwi	r23, r26, 0
9000968c:	12c30000 	addk	r22, r3, r0
90009690:	335a0004 	addik	r26, r26, 4
90009694:	b810fad8 	brid	-1320		// 9000916c
90009698:	fb410680 	swi	r26, r1, 1664
9000969c:	10be0000 	addk	r5, r30, r0
900096a0:	30c10054 	addik	r6, r1, 84
900096a4:	b9f43948 	brlid	r15, 14664	// 9000cfec <__sfvwrite>
900096a8:	12e00000 	addk	r23, r0, r0
900096ac:	fae1005c 	swi	r23, r1, 92
900096b0:	be23eff0 	bneid	r3, -4112		// 900086a0
900096b4:	fae10058 	swi	r23, r1, 88
900096b8:	b810ede4 	brid	-4636		// 9000849c
900096bc:	10bd0000 	addk	r5, r29, r0
900096c0:	b0009001 	imm	-28671
900096c4:	334033b8 	addik	r26, r0, 13240
900096c8:	b810ece4 	brid	-4892		// 900083ac
900096cc:	ea610058 	lwi	r19, r1, 88
900096d0:	b0009001 	imm	-28671
900096d4:	334033a8 	addik	r26, r0, 13224
900096d8:	12f7b000 	addk	r23, r23, r22
900096dc:	32730001 	addik	r19, r19, 1
900096e0:	fb440000 	swi	r26, r4, 0
900096e4:	fac40004 	swi	r22, r4, 4
900096e8:	fae1005c 	swi	r23, r1, 92
900096ec:	fa610058 	swi	r19, r1, 88
900096f0:	32400007 	addik	r18, r0, 7
900096f4:	16539001 	cmp	r18, r19, r18
900096f8:	beb20018 	bgeid	r18, 24		// 90009710
900096fc:	30840008 	addik	r4, r4, 8
90009700:	be3706b8 	bneid	r23, 1720		// 90009db8
90009704:	12770000 	addk	r19, r23, r0
90009708:	109d0000 	addk	r4, r29, r0
9000970c:	fae10058 	swi	r23, r1, 88
90009710:	e8a1069c 	lwi	r5, r1, 1692
90009714:	e8c106b8 	lwi	r6, r1, 1720
90009718:	32730001 	addik	r19, r19, 1
9000971c:	12f72800 	addk	r23, r23, r5
90009720:	f8a40004 	swi	r5, r4, 4
90009724:	f8c40000 	swi	r6, r4, 0
90009728:	fae1005c 	swi	r23, r1, 92
9000972c:	fa610058 	swi	r19, r1, 88
90009730:	32400007 	addik	r18, r0, 7
90009734:	16539001 	cmp	r18, r19, r18
90009738:	beb2ebc0 	bgeid	r18, -5184		// 900082f8
9000973c:	30a40008 	addik	r5, r4, 8
90009740:	b800eba8 	bri	-5208		// 900082e8
90009744:	32c10044 	addik	r22, r1, 68
90009748:	10b60000 	addk	r5, r22, r0
9000974c:	10c00000 	addk	r6, r0, r0
90009750:	b9f4e330 	brlid	r15, -7376	// 90007a80 <memset>
90009754:	30e00008 	addik	r7, r0, 8	// 8 <_vector_sw_exception>
90009758:	32610124 	addik	r19, r1, 292
9000975c:	11160000 	addk	r8, r22, r0
90009760:	e8a106f0 	lwi	r5, r1, 1776
90009764:	10d30000 	addk	r6, r19, r0
90009768:	b9f40858 	brlid	r15, 2136	// 90009fc0 <_wcrtomb_r>
9000976c:	e8fa0000 	lwi	r7, r26, 0
90009770:	aa43ffff 	xori	r18, r3, -1
90009774:	be120680 	beqid	r18, 1664		// 90009df4
90009778:	13230000 	addk	r25, r3, r0
9000977c:	335a0004 	addik	r26, r26, 4
90009780:	b810f9a8 	brid	-1624		// 90009128
90009784:	fb410680 	swi	r26, r1, 1664
90009788:	be2300cc 	bneid	r3, 204		// 90009854
9000978c:	e88106b4 	lwi	r4, r1, 1716
90009790:	a4640040 	andi	r3, r4, 64
90009794:	be0300c0 	beqid	r3, 192		// 90009854
90009798:	e8a106b0 	lwi	r5, r1, 1712
9000979c:	e87a0000 	lwi	r3, r26, 0
900097a0:	335a0004 	addik	r26, r26, 4
900097a4:	fb410680 	swi	r26, r1, 1664
900097a8:	b810ec78 	brid	-5000		// 90008420
900097ac:	f4a30000 	shi	r5, r3, 0
900097b0:	b810e824 	brid	-6108		// 90007fd4
900097b4:	e07f0000 	lbui	r3, r31, 0
900097b8:	32c1004c 	addik	r22, r1, 76
900097bc:	e86106b8 	lwi	r3, r1, 1720
900097c0:	10b60000 	addk	r5, r22, r0
900097c4:	10c00000 	addk	r6, r0, r0
900097c8:	30e00008 	addik	r7, r0, 8	// 8 <_vector_sw_exception>
900097cc:	b9f4e2b4 	brlid	r15, -7500	// 90007a80 <memset>
900097d0:	f8610030 	swi	r3, r1, 48
900097d4:	e88106a8 	lwi	r4, r1, 1704
900097d8:	be440560 	bltid	r4, 1376		// 90009d38
900097dc:	13200000 	addk	r25, r0, r0
900097e0:	12790000 	addk	r19, r25, r0
900097e4:	b810000c 	brid	12		// 900097f0
900097e8:	32e10124 	addik	r23, r1, 292
900097ec:	13230000 	addk	r25, r3, r0
900097f0:	e8610030 	lwi	r3, r1, 48
900097f4:	c8f31800 	lw	r7, r19, r3
900097f8:	be07003c 	beqid	r7, 60		// 90009834
900097fc:	e8a106f0 	lwi	r5, r1, 1776
90009800:	10d70000 	addk	r6, r23, r0
90009804:	b9f407bc 	brlid	r15, 1980	// 90009fc0 <_wcrtomb_r>
90009808:	11160000 	addk	r8, r22, r0
9000980c:	aa43ffff 	xori	r18, r3, -1
90009810:	be1205e4 	beqid	r18, 1508		// 90009df4
90009814:	10791800 	addk	r3, r25, r3
90009818:	e8a106a8 	lwi	r5, r1, 1704
9000981c:	16432801 	cmp	r18, r3, r5
90009820:	bc520014 	blti	r18, 20		// 90009834
90009824:	16432800 	rsubk	r18, r3, r5
90009828:	be32ffc4 	bneid	r18, -60		// 900097ec
9000982c:	32730004 	addik	r19, r19, 4
90009830:	13230000 	addk	r25, r3, r0
90009834:	be390390 	bneid	r25, 912		// 90009bc4
90009838:	13990000 	addk	r28, r25, r0
9000983c:	b810f344 	brid	-3260		// 90008b80
90009840:	fb210698 	swi	r25, r1, 1688
90009844:	b0009001 	imm	-28671
90009848:	334033a8 	addik	r26, r0, 13224
9000984c:	b810ee00 	brid	-4608		// 9000864c
90009850:	12f7b000 	addk	r23, r23, r22
90009854:	e87a0000 	lwi	r3, r26, 0
90009858:	e8c106b0 	lwi	r6, r1, 1712
9000985c:	335a0004 	addik	r26, r26, 4
90009860:	fb410680 	swi	r26, r1, 1664
90009864:	b810ebbc 	brid	-5188		// 90008420
90009868:	f8c30000 	swi	r6, r3, 0
9000986c:	33800003 	addik	r28, r0, 3
90009870:	b0009001 	imm	-28671
90009874:	30603230 	addik	r3, r0, 12848
90009878:	133c0000 	addk	r25, r28, r0
9000987c:	f86106b8 	swi	r3, r1, 1720
90009880:	b810f300 	brid	-3328		// 90008b80
90009884:	f8810698 	swi	r4, r1, 1688
90009888:	be26f7ec 	bneid	r6, -2068		// 90009074
9000988c:	30600001 	addik	r3, r0, 1
90009890:	b810f7e4 	brid	-2076		// 90009074
90009894:	f86106a8 	swi	r3, r1, 1704
90009898:	e88106b4 	lwi	r4, r1, 1716
9000989c:	33ff0001 	addik	r31, r31, 1
900098a0:	e07f0000 	lbui	r3, r31, 0
900098a4:	a0840020 	ori	r4, r4, 32
900098a8:	b810e72c 	brid	-6356		// 90007fd4
900098ac:	f88106b4 	swi	r4, r1, 1716
900098b0:	30a00006 	addik	r5, r0, 6
900098b4:	b810f7c0 	brid	-2112		// 90009074
900098b8:	f8a106a8 	swi	r5, r1, 1704
900098bc:	e8a10688 	lwi	r5, r1, 1672
900098c0:	e8c1068c 	lwi	r6, r1, 1676
900098c4:	b9f46eb4 	brlid	r15, 28340	// 90010778 <isnan>
900098c8:	80000000 	or	r0, r0, r0
900098cc:	be0300d0 	beqid	r3, 208		// 9000999c
900098d0:	e86106b4 	lwi	r3, r1, 1716
900098d4:	307bffbb 	addik	r3, r27, -69
900098d8:	22400002 	addi	r18, r0, 2
900098dc:	16439003 	cmpu	r18, r3, r18
900098e0:	be520364 	bltid	r18, 868		// 90009c44
900098e4:	10c00000 	addk	r6, r0, r0
900098e8:	33800003 	addik	r28, r0, 3
900098ec:	b0009001 	imm	-28671
900098f0:	308031f8 	addik	r4, r0, 12792
900098f4:	133c0000 	addk	r25, r28, r0
900098f8:	fa610698 	swi	r19, r1, 1688
900098fc:	b810f284 	brid	-3452		// 90008b80
90009900:	f88106b8 	swi	r4, r1, 1720
90009904:	10be0000 	addk	r5, r30, r0
90009908:	30c10054 	addik	r6, r1, 84
9000990c:	b9f436e0 	brlid	r15, 14048	// 9000cfec <__sfvwrite>
90009910:	12e00000 	addk	r23, r0, r0
90009914:	12770000 	addk	r19, r23, r0
90009918:	fae1005c 	swi	r23, r1, 92
9000991c:	be23ed84 	bneid	r3, -4732		// 900086a0
90009920:	fae10058 	swi	r23, r1, 88
90009924:	10fd0000 	addk	r7, r29, r0
90009928:	b810f418 	brid	-3048		// 90008d40
9000992c:	e921002c 	lwi	r9, r1, 44
90009930:	10be0000 	addk	r5, r30, r0
90009934:	30c10054 	addik	r6, r1, 84
90009938:	b9f436b4 	brlid	r15, 14004	// 9000cfec <__sfvwrite>
9000993c:	12e00000 	addk	r23, r0, r0
90009940:	12770000 	addk	r19, r23, r0
90009944:	fae1005c 	swi	r23, r1, 92
90009948:	be23ed58 	bneid	r3, -4776		// 900086a0
9000994c:	fae10058 	swi	r23, r1, 88
90009950:	10bd0000 	addk	r5, r29, r0
90009954:	b810f3a4 	brid	-3164		// 90008cf8
90009958:	e921002c 	lwi	r9, r1, 44
9000995c:	10be0000 	addk	r5, r30, r0
90009960:	30c10054 	addik	r6, r1, 84
90009964:	b9f43688 	brlid	r15, 13960	// 9000cfec <__sfvwrite>
90009968:	12e00000 	addk	r23, r0, r0
9000996c:	fae1005c 	swi	r23, r1, 92
90009970:	be23ed30 	bneid	r3, -4816		// 900086a0
90009974:	fae10058 	swi	r23, r1, 88
90009978:	10bd0000 	addk	r5, r29, r0
9000997c:	b810ef2c 	brid	-4308		// 900088a8
90009980:	e921002c 	lwi	r9, r1, 44
90009984:	33800006 	addik	r28, r0, 6
90009988:	b0009001 	imm	-28671
9000998c:	3080323c 	addik	r4, r0, 12860
90009990:	133c0000 	addk	r25, r28, r0
90009994:	b810e688 	brid	-6520		// 9000801c
90009998:	f88106b8 	swi	r4, r1, 1720
9000999c:	a0630100 	ori	r3, r3, 256
900099a0:	aa5b0066 	xori	r18, r27, 102
900099a4:	be12046c 	beqid	r18, 1132		// 90009e10
900099a8:	f86106b4 	swi	r3, r1, 1716
900099ac:	aa5b0065 	xori	r18, r27, 101
900099b0:	be120454 	beqid	r18, 1108		// 90009e04
900099b4:	e88106a8 	lwi	r4, r1, 1704
900099b8:	aa5b0045 	xori	r18, r27, 69
900099bc:	be12044c 	beqid	r18, 1100		// 90009e08
900099c0:	31000002 	addik	r8, r0, 2
900099c4:	eb2106a8 	lwi	r25, r1, 1704
900099c8:	e8810688 	lwi	r4, r1, 1672
900099cc:	e8a1068c 	lwi	r5, r1, 1676
900099d0:	be440494 	bltid	r4, 1172		// 90009e64
900099d4:	e8c1068c 	lwi	r6, r1, 1676
900099d8:	12c40000 	addk	r22, r4, r0
900099dc:	12e50000 	addk	r23, r5, r0
900099e0:	13400000 	addk	r26, r0, r0
900099e4:	e8a106f0 	lwi	r5, r1, 1776
900099e8:	11390000 	addk	r9, r25, r0
900099ec:	10d60000 	addk	r6, r22, r0
900099f0:	10f70000 	addk	r7, r23, r0
900099f4:	30610034 	addik	r3, r1, 52
900099f8:	30810038 	addik	r4, r1, 56
900099fc:	3141002c 	addik	r10, r1, 44
90009a00:	f861001c 	swi	r3, r1, 28
90009a04:	b9f413a0 	brlid	r15, 5024	// 9000ada4 <_dtoa_r>
90009a08:	f8810020 	swi	r4, r1, 32
90009a0c:	aa5b0067 	xori	r18, r27, 103
90009a10:	be12021c 	beqid	r18, 540		// 90009c2c
90009a14:	f86106b8 	swi	r3, r1, 1720
90009a18:	aa5b0047 	xori	r18, r27, 71
90009a1c:	be120214 	beqid	r18, 532		// 90009c30
90009a20:	e88106b4 	lwi	r4, r1, 1716
90009a24:	e8a106b8 	lwi	r5, r1, 1720
90009a28:	aa5b0066 	xori	r18, r27, 102
90009a2c:	be12041c 	beqid	r18, 1052		// 90009e48
90009a30:	1265c800 	addk	r19, r5, r25
90009a34:	10b60000 	addk	r5, r22, r0
90009a38:	10e00000 	addk	r7, r0, r0
90009a3c:	11000000 	addk	r8, r0, r0
90009a40:	b0000000 	imm	0
90009a44:	b9f48728 	brlid	r15, -30936	// 9001216c <__eqdf2>
90009a48:	10d70000 	addk	r6, r23, r0
90009a4c:	be2303d0 	bneid	r3, 976		// 90009e1c
90009a50:	e8610038 	lwi	r3, r1, 56
90009a54:	10730000 	addk	r3, r19, r0
90009a58:	fa610038 	swi	r19, r1, 56
90009a5c:	e8c106b8 	lwi	r6, r1, 1720
90009a60:	30a00067 	addik	r5, r0, 103
90009a64:	889b2c00 	pcmpeq	r4, r27, r5
90009a68:	be2401f8 	bneid	r4, 504		// 90009c60
90009a6c:	16e61800 	rsubk	r23, r6, r3
90009a70:	aa5b0047 	xori	r18, r27, 71
90009a74:	be1201f0 	beqid	r18, 496		// 90009c64
90009a78:	e921002c 	lwi	r9, r1, 44
90009a7c:	32400065 	addik	r18, r0, 101
90009a80:	165b9001 	cmp	r18, r27, r18
90009a84:	be520304 	bltid	r18, 772		// 90009d88
90009a88:	907b0060 	sext8	r3, r27
90009a8c:	fb610684 	swi	r27, r1, 1668
90009a90:	3129ffff 	addik	r9, r9, -1
90009a94:	f061003c 	sbi	r3, r1, 60
90009a98:	f921002c 	swi	r9, r1, 44
90009a9c:	be490470 	bltid	r9, 1136		// 90009f0c
90009aa0:	12690000 	addk	r19, r9, r0
90009aa4:	30a0002b 	addik	r5, r0, 43
90009aa8:	f0a1003d 	sbi	r5, r1, 61
90009aac:	32400009 	addik	r18, r0, 9
90009ab0:	16539001 	cmp	r18, r19, r18
90009ab4:	beb2032c 	bgeid	r18, 812		// 90009de0
90009ab8:	30730030 	addik	r3, r19, 48
90009abc:	12dd0000 	addk	r22, r29, r0
90009ac0:	10b30000 	addk	r5, r19, r0
90009ac4:	30c0000a 	addik	r6, r0, 10
90009ac8:	b9f4c05c 	brlid	r15, -16292	// 90005b24 <__modsi3>
90009acc:	32d6ffff 	addik	r22, r22, -1
90009ad0:	10b30000 	addk	r5, r19, r0
90009ad4:	30630030 	addik	r3, r3, 48
90009ad8:	30c0000a 	addik	r6, r0, 10
90009adc:	b0000000 	imm	0
90009ae0:	b9f48cbc 	brlid	r15, -29508	// 9001279c <__divsi3>
90009ae4:	f0760000 	sbi	r3, r22, 0
90009ae8:	32400009 	addik	r18, r0, 9
90009aec:	16439001 	cmp	r18, r3, r18
90009af0:	be52ffd0 	bltid	r18, -48		// 90009ac0
90009af4:	12630000 	addk	r19, r3, r0
90009af8:	30630030 	addik	r3, r3, 48
90009afc:	3096ffff 	addik	r4, r22, -1
90009b00:	f076ffff 	sbi	r3, r22, -1
90009b04:	165d2003 	cmpu	r18, r29, r4
90009b08:	beb20020 	bgeid	r18, 32		// 90009b28
90009b0c:	30a1003e 	addik	r5, r1, 62
90009b10:	e0c40000 	lbui	r6, r4, 0
90009b14:	30840001 	addik	r4, r4, 1
90009b18:	f0c50000 	sbi	r6, r5, 0
90009b1c:	165d2003 	cmpu	r18, r29, r4
90009b20:	be52fff0 	bltid	r18, -16		// 90009b10
90009b24:	30a50001 	addik	r5, r5, 1
90009b28:	3061003c 	addik	r3, r1, 60
90009b2c:	14a32800 	rsubk	r5, r3, r5
90009b30:	f8a106a0 	swi	r5, r1, 1696
90009b34:	32400001 	addik	r18, r0, 1
90009b38:	16579001 	cmp	r18, r23, r18
90009b3c:	beb20150 	bgeid	r18, 336		// 90009c8c
90009b40:	13372800 	addk	r25, r23, r5
90009b44:	33990001 	addik	r28, r25, 1
90009b48:	be5c036c 	bltid	r28, 876		// 90009eb4
90009b4c:	133c0000 	addk	r25, r28, r0
90009b50:	be3a0198 	bneid	r26, 408		// 90009ce8
90009b54:	eb610684 	lwi	r27, r1, 1668
90009b58:	be590364 	bltid	r25, 868		// 90009ebc
90009b5c:	13990000 	addk	r28, r25, r0
90009b60:	eb610684 	lwi	r27, r1, 1668
90009b64:	fae1069c 	swi	r23, r1, 1692
90009b68:	b810f018 	brid	-4072		// 90008b80
90009b6c:	fb410698 	swi	r26, r1, 1688
90009b70:	10be0000 	addk	r5, r30, r0
90009b74:	30c10054 	addik	r6, r1, 84
90009b78:	b9f43474 	brlid	r15, 13428	// 9000cfec <__sfvwrite>
90009b7c:	12e00000 	addk	r23, r0, r0
90009b80:	fae1005c 	swi	r23, r1, 92
90009b84:	be23eb1c 	bneid	r3, -5348		// 900086a0
90009b88:	fae10058 	swi	r23, r1, 88
90009b8c:	10bd0000 	addk	r5, r29, r0
90009b90:	b810f95c 	brid	-1700		// 900094ec
90009b94:	e921002c 	lwi	r9, r1, 44
90009b98:	b0009001 	imm	-28671
90009b9c:	334033a8 	addik	r26, r0, 13224
90009ba0:	b810ec64 	brid	-5020		// 90008804
90009ba4:	12f7c000 	addk	r23, r23, r24
90009ba8:	b810f51c 	brid	-2788		// 900090c4
90009bac:	f0a10024 	sbi	r5, r1, 36
90009bb0:	e861005c 	lwi	r3, r1, 92
90009bb4:	be2301b4 	bneid	r3, 436		// 90009d68
90009bb8:	30c10054 	addik	r6, r1, 84
90009bbc:	b810eaf4 	brid	-5388		// 900086b0
90009bc0:	f8010058 	swi	r0, r1, 88
90009bc4:	e8a106f0 	lwi	r5, r1, 1776
90009bc8:	b9f4d61c 	brlid	r15, -10724	// 900071e4 <_malloc_r>
90009bcc:	30d90001 	addik	r6, r25, 1
90009bd0:	be030224 	beqid	r3, 548		// 90009df4
90009bd4:	12630000 	addk	r19, r3, r0
90009bd8:	10b60000 	addk	r5, r22, r0
90009bdc:	30e00008 	addik	r7, r0, 8	// 8 <_vector_sw_exception>
90009be0:	10c00000 	addk	r6, r0, r0
90009be4:	b9f4de9c 	brlid	r15, -8548	// 90007a80 <memset>
90009be8:	f8610690 	swi	r3, r1, 1680
90009bec:	11360000 	addk	r9, r22, r0
90009bf0:	e8a106f0 	lwi	r5, r1, 1776
90009bf4:	e8c10690 	lwi	r6, r1, 1680
90009bf8:	11190000 	addk	r8, r25, r0
90009bfc:	b9f404b0 	brlid	r15, 1200	// 9000a0ac <_wcsrtombs_r>
90009c00:	30e10030 	addik	r7, r1, 48
90009c04:	1643c800 	rsubk	r18, r3, r25
90009c08:	be320314 	bneid	r18, 788		// 90009f1c
90009c0c:	10600000 	addk	r3, r0, r0
90009c10:	f8610698 	swi	r3, r1, 1688
90009c14:	a879ffff 	xori	r3, r25, -1
90009c18:	6463021f 	bsrai	r3, r3, 31
90009c1c:	fa6106b8 	swi	r19, r1, 1720
90009c20:	87991800 	and	r28, r25, r3
90009c24:	b810ef5c 	brid	-4260		// 90008b80
90009c28:	d0199800 	sb	r0, r25, r19
90009c2c:	e88106b4 	lwi	r4, r1, 1716
90009c30:	a4640001 	andi	r3, r4, 1
90009c34:	be23fdf4 	bneid	r3, -524		// 90009a28
90009c38:	e8a106b8 	lwi	r5, r1, 1720
90009c3c:	b810fe20 	brid	-480		// 90009a5c
90009c40:	e8610038 	lwi	r3, r1, 56
90009c44:	33800003 	addik	r28, r0, 3
90009c48:	b0009001 	imm	-28671
90009c4c:	30a031fc 	addik	r5, r0, 12796
90009c50:	133c0000 	addk	r25, r28, r0
90009c54:	f8a106b8 	swi	r5, r1, 1720
90009c58:	b810ef28 	brid	-4312		// 90008b80
90009c5c:	f8c10698 	swi	r6, r1, 1688
90009c60:	e921002c 	lwi	r9, r1, 44
90009c64:	3240fffc 	addik	r18, r0, -4
90009c68:	16499001 	cmp	r18, r9, r18
90009c6c:	beb20040 	bgeid	r18, 64		// 90009cac
90009c70:	e86106a8 	lwi	r3, r1, 1704
90009c74:	16491801 	cmp	r18, r9, r3
90009c78:	be520034 	bltid	r18, 52		// 90009cac
90009c7c:	f8a10684 	swi	r5, r1, 1668
90009c80:	16574801 	cmp	r18, r23, r9
90009c84:	be520240 	bltid	r18, 576		// 90009ec4
90009c88:	13290000 	addk	r25, r9, r0
90009c8c:	e88106b4 	lwi	r4, r1, 1716
90009c90:	a4640001 	andi	r3, r4, 1
90009c94:	be23feb4 	bneid	r3, -332		// 90009b48
90009c98:	33990001 	addik	r28, r25, 1
90009c9c:	beb9feb4 	bgeid	r25, -332		// 90009b50
90009ca0:	13990000 	addk	r28, r25, r0
90009ca4:	b810feac 	brid	-340		// 90009b50
90009ca8:	13830000 	addk	r28, r3, r0
90009cac:	bc040100 	beqi	r4, 256		// 90009dac
90009cb0:	30600065 	addik	r3, r0, 101
90009cb4:	b810fddc 	brid	-548		// 90009a90
90009cb8:	f8610684 	swi	r3, r1, 1668
90009cbc:	10be0000 	addk	r5, r30, r0
90009cc0:	30c10054 	addik	r6, r1, 84
90009cc4:	b9f43328 	brlid	r15, 13096	// 9000cfec <__sfvwrite>
90009cc8:	12e00000 	addk	r23, r0, r0
90009ccc:	12770000 	addk	r19, r23, r0
90009cd0:	fae1005c 	swi	r23, r1, 92
90009cd4:	be23e9cc 	bneid	r3, -5684		// 900086a0
90009cd8:	fae10058 	swi	r23, r1, 88
90009cdc:	109d0000 	addk	r4, r29, r0
90009ce0:	b810f864 	brid	-1948		// 90009544
90009ce4:	e921002c 	lwi	r9, r1, 44
90009ce8:	10a00000 	addk	r5, r0, r0
90009cec:	30c0002d 	addik	r6, r0, 45
90009cf0:	fae1069c 	swi	r23, r1, 1692
90009cf4:	f8a10698 	swi	r5, r1, 1688
90009cf8:	b810ee94 	brid	-4460		// 90008b8c
90009cfc:	f0c10024 	sbi	r6, r1, 36
90009d00:	10600000 	addk	r3, r0, r0
90009d04:	f8610698 	swi	r3, r1, 1688
90009d08:	a87cffff 	xori	r3, r28, -1
90009d0c:	133c0000 	addk	r25, r28, r0
90009d10:	6463021f 	bsrai	r3, r3, 31
90009d14:	b810ee6c 	brid	-4500		// 90008b80
90009d18:	879c1800 	and	r28, r28, r3
90009d1c:	b9f46574 	brlid	r15, 25972	// 90010290 <strlen>
90009d20:	e8a106b8 	lwi	r5, r1, 1720
90009d24:	13830000 	addk	r28, r3, r0
90009d28:	bea3f4dc 	bgeid	r3, -2852		// 90009204
90009d2c:	13230000 	addk	r25, r3, r0
90009d30:	b810f4d4 	brid	-2860		// 90009204
90009d34:	13930000 	addk	r28, r19, r0
90009d38:	10c00000 	addk	r6, r0, r0
90009d3c:	e8a106f0 	lwi	r5, r1, 1776
90009d40:	11060000 	addk	r8, r6, r0
90009d44:	11360000 	addk	r9, r22, r0
90009d48:	b9f40364 	brlid	r15, 868	// 9000a0ac <_wcsrtombs_r>
90009d4c:	30e10030 	addik	r7, r1, 48
90009d50:	aa43ffff 	xori	r18, r3, -1
90009d54:	be1200a0 	beqid	r18, 160		// 90009df4
90009d58:	13230000 	addk	r25, r3, r0
90009d5c:	e8c106b8 	lwi	r6, r1, 1720
90009d60:	b810fad4 	brid	-1324		// 90009834
90009d64:	f8c10030 	swi	r6, r1, 48
90009d68:	10be0000 	addk	r5, r30, r0
90009d6c:	b9f43280 	brlid	r15, 12928	// 9000cfec <__sfvwrite>
90009d70:	12e00000 	addk	r23, r0, r0
90009d74:	fae1005c 	swi	r23, r1, 92
90009d78:	be23e938 	bneid	r3, -5832		// 900086b0
90009d7c:	fae10058 	swi	r23, r1, 88
90009d80:	b810e930 	brid	-5840		// 900086b0
90009d84:	f8010058 	swi	r0, r1, 88
90009d88:	aa5b0066 	xori	r18, r27, 102
90009d8c:	be1200f0 	beqid	r18, 240		// 90009e7c
90009d90:	e921002c 	lwi	r9, r1, 44
90009d94:	b810feec 	brid	-276		// 90009c80
90009d98:	fb610684 	swi	r27, r1, 1668
90009d9c:	eb8106a8 	lwi	r28, r1, 1704
90009da0:	f8610698 	swi	r3, r1, 1688
90009da4:	b810eddc 	brid	-4644		// 90008b80
90009da8:	133c0000 	addk	r25, r28, r0
90009dac:	30600045 	addik	r3, r0, 69
90009db0:	b810fce0 	brid	-800		// 90009a90
90009db4:	f8610684 	swi	r3, r1, 1668
90009db8:	10be0000 	addk	r5, r30, r0
90009dbc:	30c10054 	addik	r6, r1, 84
90009dc0:	b9f4322c 	brlid	r15, 12844	// 9000cfec <__sfvwrite>
90009dc4:	12e00000 	addk	r23, r0, r0
90009dc8:	12770000 	addk	r19, r23, r0
90009dcc:	fae1005c 	swi	r23, r1, 92
90009dd0:	be23e8d0 	bneid	r3, -5936		// 900086a0
90009dd4:	fae10058 	swi	r23, r1, 88
90009dd8:	b810f938 	brid	-1736		// 90009710
90009ddc:	109d0000 	addk	r4, r29, r0
90009de0:	f061003f 	sbi	r3, r1, 63
90009de4:	30a10040 	addik	r5, r1, 64
90009de8:	30600030 	addik	r3, r0, 48
90009dec:	b810fd3c 	brid	-708		// 90009b28
90009df0:	f061003e 	sbi	r3, r1, 62
90009df4:	e47e000c 	lhui	r3, r30, 12
90009df8:	a0630040 	ori	r3, r3, 64
90009dfc:	b810e8b4 	brid	-5964		// 900086b0
90009e00:	f47e000c 	shi	r3, r30, 12
90009e04:	31000002 	addik	r8, r0, 2
90009e08:	b810fbc0 	brid	-1088		// 900099c8
90009e0c:	33240001 	addik	r25, r4, 1
90009e10:	eb2106a8 	lwi	r25, r1, 1704
90009e14:	b810fbb4 	brid	-1100		// 900099c8
90009e18:	31000003 	addik	r8, r0, 3
90009e1c:	16531803 	cmpu	r18, r19, r3
90009e20:	beb2fc3c 	bgeid	r18, -964		// 90009a5c
90009e24:	10930000 	addk	r4, r19, r0
90009e28:	30c00030 	addik	r6, r0, 48
90009e2c:	f0c30000 	sbi	r6, r3, 0
90009e30:	30630001 	addik	r3, r3, 1
90009e34:	16441800 	rsubk	r18, r4, r3
90009e38:	be32fff4 	bneid	r18, -12		// 90009e2c
90009e3c:	f8610038 	swi	r3, r1, 56
90009e40:	b810fc20 	brid	-992		// 90009a60
90009e44:	e8c106b8 	lwi	r6, r1, 1720
90009e48:	e0650000 	lbui	r3, r5, 0
90009e4c:	aa430030 	xori	r18, r3, 48
90009e50:	be1200e0 	beqid	r18, 224		// 90009f30
90009e54:	10b60000 	addk	r5, r22, r0
90009e58:	e921002c 	lwi	r9, r1, 44
90009e5c:	b810fbd8 	brid	-1064		// 90009a34
90009e60:	12734800 	addk	r19, r19, r9
90009e64:	e8a10688 	lwi	r5, r1, 1672
90009e68:	3340002d 	addik	r26, r0, 45
90009e6c:	b0008000 	imm	-32768
90009e70:	32c50000 	addik	r22, r5, 0
90009e74:	b810fb70 	brid	-1168		// 900099e4
90009e78:	12e60000 	addk	r23, r6, r0
90009e7c:	eb21002c 	lwi	r25, r1, 44
90009e80:	be790068 	bleid	r25, 104		// 90009ee8
90009e84:	e8a106a8 	lwi	r5, r1, 1704
90009e88:	be25001c 	bneid	r5, 28		// 90009ea4
90009e8c:	e88106a8 	lwi	r4, r1, 1704
90009e90:	e8c106b4 	lwi	r6, r1, 1716
90009e94:	a4660001 	andi	r3, r6, 1
90009e98:	be03fcb8 	beqid	r3, -840		// 90009b50
90009e9c:	13990000 	addk	r28, r25, r0
90009ea0:	e88106a8 	lwi	r4, r1, 1704
90009ea4:	30790001 	addik	r3, r25, 1
90009ea8:	13841800 	addk	r28, r4, r3
90009eac:	bebcfca4 	bgeid	r28, -860		// 90009b50
90009eb0:	133c0000 	addk	r25, r28, r0
90009eb4:	b810fc9c 	brid	-868		// 90009b50
90009eb8:	13800000 	addk	r28, r0, r0
90009ebc:	b810fca4 	brid	-860		// 90009b60
90009ec0:	139a0000 	addk	r28, r26, r0
90009ec4:	be89000c 	bgtid	r9, 12		// 90009ed0
90009ec8:	30600001 	addik	r3, r0, 1
90009ecc:	34690002 	rsubik	r3, r9, 2
90009ed0:	1383b800 	addk	r28, r3, r23
90009ed4:	a87cffff 	xori	r3, r28, -1
90009ed8:	6463021f 	bsrai	r3, r3, 31
90009edc:	133c0000 	addk	r25, r28, r0
90009ee0:	b810fc70 	brid	-912		// 90009b50
90009ee4:	879c1800 	and	r28, r28, r3
90009ee8:	be250094 	bneid	r5, 148		// 90009f7c
90009eec:	e86106a8 	lwi	r3, r1, 1704
90009ef0:	e8c106b4 	lwi	r6, r1, 1716
90009ef4:	a4660001 	andi	r3, r6, 1
90009ef8:	be230084 	bneid	r3, 132		// 90009f7c
90009efc:	e86106a8 	lwi	r3, r1, 1704
90009f00:	33800001 	addik	r28, r0, 1
90009f04:	b810fc4c 	brid	-948		// 90009b50
90009f08:	133c0000 	addk	r25, r28, r0
90009f0c:	3080002d 	addik	r4, r0, 45
90009f10:	16690000 	rsubk	r19, r9, r0
90009f14:	b810fb98 	brid	-1128		// 90009aac
90009f18:	f081003d 	sbi	r4, r1, 61
90009f1c:	e47e000c 	lhui	r3, r30, 12
90009f20:	e8c10690 	lwi	r6, r1, 1680
90009f24:	a0630040 	ori	r3, r3, 64
90009f28:	b810e780 	brid	-6272		// 900086a8
90009f2c:	f47e000c 	shi	r3, r30, 12
90009f30:	10e00000 	addk	r7, r0, r0
90009f34:	11000000 	addk	r8, r0, r0
90009f38:	b0000000 	imm	0
90009f3c:	b9f482e4 	brlid	r15, -32028	// 90012220 <__nedf2>
90009f40:	10d70000 	addk	r6, r23, r0
90009f44:	be03ff18 	beqid	r3, -232		// 90009e5c
90009f48:	e921002c 	lwi	r9, r1, 44
90009f4c:	35390001 	rsubik	r9, r25, 1
90009f50:	b810ff08 	brid	-248		// 90009e58
90009f54:	f921002c 	swi	r9, r1, 44
90009f58:	e8ba0000 	lwi	r5, r26, 0
90009f5c:	311a0004 	addik	r8, r26, 4
90009f60:	bea5f06c 	bgeid	r5, -3988		// 90008fcc
90009f64:	f8a106a8 	swi	r5, r1, 1704
90009f68:	e07f0000 	lbui	r3, r31, 0
90009f6c:	13480000 	addk	r26, r8, r0
90009f70:	30a0ffff 	addik	r5, r0, -1
90009f74:	b810e060 	brid	-8096		// 90007fd4
90009f78:	f8a106a8 	swi	r5, r1, 1704
90009f7c:	33830002 	addik	r28, r3, 2
90009f80:	bebcfbd0 	bgeid	r28, -1072		// 90009b50
90009f84:	133c0000 	addk	r25, r28, r0
90009f88:	b810fbc8 	brid	-1080		// 90009b50
90009f8c:	13800000 	addk	r28, r0, r0

90009f90 <vfprintf>:
90009f90:	10660000 	addk	r3, r6, r0
90009f94:	11070000 	addk	r8, r7, r0
90009f98:	10c50000 	addk	r6, r5, r0
90009f9c:	b0009001 	imm	-28671
90009fa0:	e8a037a4 	lwi	r5, r0, 14244
90009fa4:	3021ffe4 	addik	r1, r1, -28
90009fa8:	f9e10000 	swi	r15, r1, 0
90009fac:	b9f4ddd4 	brlid	r15, -8748	// 90007d80 <_vfprintf_r>
90009fb0:	10e30000 	addk	r7, r3, r0
90009fb4:	e9e10000 	lwi	r15, r1, 0
90009fb8:	b60f0008 	rtsd	r15, 8
90009fbc:	3021001c 	addik	r1, r1, 28

90009fc0 <_wcrtomb_r>:
90009fc0:	3021ffd0 	addik	r1, r1, -48
90009fc4:	fa610028 	swi	r19, r1, 40
90009fc8:	fac1002c 	swi	r22, r1, 44
90009fcc:	f9e10000 	swi	r15, r1, 0
90009fd0:	12c50000 	addk	r22, r5, r0
90009fd4:	be060044 	beqid	r6, 68		// 9000a018
90009fd8:	12680000 	addk	r19, r8, r0
90009fdc:	b9f403bc 	brlid	r15, 956	// 9000a398 <_wctomb_r>
90009fe0:	80000000 	or	r0, r0, r0
90009fe4:	aa43ffff 	xori	r18, r3, -1
90009fe8:	be320018 	bneid	r18, 24		// 9000a000
90009fec:	10830000 	addk	r4, r3, r0
90009ff0:	f8130000 	swi	r0, r19, 0
90009ff4:	3060008a 	addik	r3, r0, 138
90009ff8:	3080ffff 	addik	r4, r0, -1
90009ffc:	f876000c 	swi	r3, r22, 12
9000a000:	10640000 	addk	r3, r4, r0
9000a004:	e9e10000 	lwi	r15, r1, 0
9000a008:	ea610028 	lwi	r19, r1, 40
9000a00c:	eac1002c 	lwi	r22, r1, 44
9000a010:	b60f0008 	rtsd	r15, 8
9000a014:	30210030 	addik	r1, r1, 48
9000a018:	10e60000 	addk	r7, r6, r0
9000a01c:	b9f4037c 	brlid	r15, 892	// 9000a398 <_wctomb_r>
9000a020:	30c1001c 	addik	r6, r1, 28
9000a024:	b800ffc0 	bri	-64		// 90009fe4

9000a028 <wcrtomb>:
9000a028:	3021ffd0 	addik	r1, r1, -48
9000a02c:	fac1002c 	swi	r22, r1, 44
9000a030:	12c70000 	addk	r22, r7, r0
9000a034:	fa610028 	swi	r19, r1, 40
9000a038:	10660000 	addk	r3, r6, r0
9000a03c:	f9e10000 	swi	r15, r1, 0
9000a040:	10e50000 	addk	r7, r5, r0
9000a044:	11160000 	addk	r8, r22, r0
9000a048:	b0009001 	imm	-28671
9000a04c:	ea6037a4 	lwi	r19, r0, 14244
9000a050:	be050050 	beqid	r5, 80		// 9000a0a0
9000a054:	30c1001c 	addik	r6, r1, 28
9000a058:	10c50000 	addk	r6, r5, r0
9000a05c:	10e30000 	addk	r7, r3, r0
9000a060:	10b30000 	addk	r5, r19, r0
9000a064:	b9f40334 	brlid	r15, 820	// 9000a398 <_wctomb_r>
9000a068:	11160000 	addk	r8, r22, r0
9000a06c:	aa43ffff 	xori	r18, r3, -1
9000a070:	be320018 	bneid	r18, 24		// 9000a088
9000a074:	10830000 	addk	r4, r3, r0
9000a078:	f8160000 	swi	r0, r22, 0
9000a07c:	3060008a 	addik	r3, r0, 138
9000a080:	3080ffff 	addik	r4, r0, -1
9000a084:	f873000c 	swi	r3, r19, 12
9000a088:	10640000 	addk	r3, r4, r0
9000a08c:	e9e10000 	lwi	r15, r1, 0
9000a090:	ea610028 	lwi	r19, r1, 40
9000a094:	eac1002c 	lwi	r22, r1, 44
9000a098:	b60f0008 	rtsd	r15, 8
9000a09c:	30210030 	addik	r1, r1, 48
9000a0a0:	b9f402f8 	brlid	r15, 760	// 9000a398 <_wctomb_r>
9000a0a4:	10b30000 	addk	r5, r19, r0
9000a0a8:	b800ffc4 	bri	-60		// 9000a06c

9000a0ac <_wcsrtombs_r>:
9000a0ac:	3021ffac 	addik	r1, r1, -84
9000a0b0:	fb210038 	swi	r25, r1, 56
9000a0b4:	fb41003c 	swi	r26, r1, 60
9000a0b8:	fb810044 	swi	r28, r1, 68
9000a0bc:	fba10048 	swi	r29, r1, 72
9000a0c0:	fbe10050 	swi	r31, r1, 80
9000a0c4:	f9e10000 	swi	r15, r1, 0
9000a0c8:	fa610028 	swi	r19, r1, 40
9000a0cc:	fac1002c 	swi	r22, r1, 44
9000a0d0:	fae10030 	swi	r23, r1, 48
9000a0d4:	fb010034 	swi	r24, r1, 52
9000a0d8:	fb610040 	swi	r27, r1, 64
9000a0dc:	fbc1004c 	swi	r30, r1, 76
9000a0e0:	13860000 	addk	r28, r6, r0
9000a0e4:	13e50000 	addk	r31, r5, r0
9000a0e8:	13a70000 	addk	r29, r7, r0
9000a0ec:	13280000 	addk	r25, r8, r0
9000a0f0:	be0600f4 	beqid	r6, 244		// 9000a1e4
9000a0f4:	13490000 	addk	r26, r9, r0
9000a0f8:	be08010c 	beqid	r8, 268		// 9000a204
9000a0fc:	eb670000 	lwi	r27, r7, 0
9000a100:	131c0000 	addk	r24, r28, r0
9000a104:	12600000 	addk	r19, r0, r0
9000a108:	33c1001c 	addik	r30, r1, 28
9000a10c:	10bf0000 	addk	r5, r31, r0
9000a110:	10de0000 	addk	r6, r30, r0
9000a114:	e8fb0000 	lwi	r7, r27, 0
9000a118:	111a0000 	addk	r8, r26, r0
9000a11c:	eafa0000 	lwi	r23, r26, 0
9000a120:	b9f4fea0 	brlid	r15, -352	// 90009fc0 <_wcrtomb_r>
9000a124:	eada0004 	lwi	r22, r26, 4
9000a128:	aa43ffff 	xori	r18, r3, -1
9000a12c:	be1200c4 	beqid	r18, 196		// 9000a1f0
9000a130:	10a30000 	addk	r5, r3, r0
9000a134:	1463c800 	rsubk	r3, r3, r25
9000a138:	16531803 	cmpu	r18, r19, r3
9000a13c:	bc520064 	blti	r18, 100		// 9000a1a0
9000a140:	16592803 	cmpu	r18, r25, r5
9000a144:	bcb2005c 	bgei	r18, 92		// 9000a1a0
9000a148:	be1c003c 	beqid	r28, 60		// 9000a184
9000a14c:	12732800 	addk	r19, r19, r5
9000a150:	bc650028 	blei	r5, 40		// 9000a178
9000a154:	10800000 	addk	r4, r0, r0
9000a158:	10640800 	addk	r3, r4, r1
9000a15c:	e063001c 	lbui	r3, r3, 28
9000a160:	d0782000 	sb	r3, r24, r4
9000a164:	30840001 	addik	r4, r4, 1
9000a168:	16442800 	rsubk	r18, r4, r5
9000a16c:	be32fff0 	bneid	r18, -16		// 9000a15c
9000a170:	10640800 	addk	r3, r4, r1
9000a174:	13182800 	addk	r24, r24, r5
9000a178:	e87d0000 	lwi	r3, r29, 0
9000a17c:	30630004 	addik	r3, r3, 4
9000a180:	f87d0000 	swi	r3, r29, 0
9000a184:	e87b0000 	lwi	r3, r27, 0
9000a188:	bc030084 	beqi	r3, 132		// 9000a20c
9000a18c:	16599803 	cmpu	r18, r25, r19
9000a190:	beb20018 	bgeid	r18, 24		// 9000a1a8
9000a194:	337b0004 	addik	r27, r27, 4
9000a198:	b810ff78 	brid	-136		// 9000a110
9000a19c:	10bf0000 	addk	r5, r31, r0
9000a1a0:	fada0004 	swi	r22, r26, 4
9000a1a4:	fafa0000 	swi	r23, r26, 0
9000a1a8:	10730000 	addk	r3, r19, r0
9000a1ac:	e9e10000 	lwi	r15, r1, 0
9000a1b0:	ea610028 	lwi	r19, r1, 40
9000a1b4:	eac1002c 	lwi	r22, r1, 44
9000a1b8:	eae10030 	lwi	r23, r1, 48
9000a1bc:	eb010034 	lwi	r24, r1, 52
9000a1c0:	eb210038 	lwi	r25, r1, 56
9000a1c4:	eb41003c 	lwi	r26, r1, 60
9000a1c8:	eb610040 	lwi	r27, r1, 64
9000a1cc:	eb810044 	lwi	r28, r1, 68
9000a1d0:	eba10048 	lwi	r29, r1, 72
9000a1d4:	ebc1004c 	lwi	r30, r1, 76
9000a1d8:	ebe10050 	lwi	r31, r1, 80
9000a1dc:	b60f0008 	rtsd	r15, 8
9000a1e0:	30210054 	addik	r1, r1, 84
9000a1e4:	eb670000 	lwi	r27, r7, 0
9000a1e8:	b810ff18 	brid	-232		// 9000a100
9000a1ec:	3320ffff 	addik	r25, r0, -1
9000a1f0:	3060008a 	addik	r3, r0, 138
9000a1f4:	f87f000c 	swi	r3, r31, 12
9000a1f8:	3260ffff 	addik	r19, r0, -1
9000a1fc:	b810ffac 	brid	-84		// 9000a1a8
9000a200:	f81a0000 	swi	r0, r26, 0
9000a204:	b810ffa4 	brid	-92		// 9000a1a8
9000a208:	12600000 	addk	r19, r0, r0
9000a20c:	bc1c0008 	beqi	r28, 8		// 9000a214
9000a210:	f87d0000 	swi	r3, r29, 0
9000a214:	3273ffff 	addik	r19, r19, -1
9000a218:	b810ff90 	brid	-112		// 9000a1a8
9000a21c:	f87a0000 	swi	r3, r26, 0

9000a220 <wcsrtombs>:
9000a220:	3021ffac 	addik	r1, r1, -84
9000a224:	fb210038 	swi	r25, r1, 56
9000a228:	fb41003c 	swi	r26, r1, 60
9000a22c:	fb810044 	swi	r28, r1, 68
9000a230:	fba10048 	swi	r29, r1, 72
9000a234:	fbc1004c 	swi	r30, r1, 76
9000a238:	f9e10000 	swi	r15, r1, 0
9000a23c:	fa610028 	swi	r19, r1, 40
9000a240:	fac1002c 	swi	r22, r1, 44
9000a244:	fae10030 	swi	r23, r1, 48
9000a248:	fb010034 	swi	r24, r1, 52
9000a24c:	fb610040 	swi	r27, r1, 64
9000a250:	fbe10050 	swi	r31, r1, 80
9000a254:	13850000 	addk	r28, r5, r0
9000a258:	13a60000 	addk	r29, r6, r0
9000a25c:	13270000 	addk	r25, r7, r0
9000a260:	b0009001 	imm	-28671
9000a264:	ebc037a4 	lwi	r30, r0, 14244
9000a268:	be0500f4 	beqid	r5, 244		// 9000a35c
9000a26c:	13480000 	addk	r26, r8, r0
9000a270:	be07010c 	beqid	r7, 268		// 9000a37c
9000a274:	eb660000 	lwi	r27, r6, 0
9000a278:	131c0000 	addk	r24, r28, r0
9000a27c:	12600000 	addk	r19, r0, r0
9000a280:	33e1001c 	addik	r31, r1, 28
9000a284:	10be0000 	addk	r5, r30, r0
9000a288:	10df0000 	addk	r6, r31, r0
9000a28c:	e8fb0000 	lwi	r7, r27, 0
9000a290:	111a0000 	addk	r8, r26, r0
9000a294:	eafa0000 	lwi	r23, r26, 0
9000a298:	b9f4fd28 	brlid	r15, -728	// 90009fc0 <_wcrtomb_r>
9000a29c:	eada0004 	lwi	r22, r26, 4
9000a2a0:	aa43ffff 	xori	r18, r3, -1
9000a2a4:	be1200c4 	beqid	r18, 196		// 9000a368
9000a2a8:	10a30000 	addk	r5, r3, r0
9000a2ac:	1463c800 	rsubk	r3, r3, r25
9000a2b0:	16531803 	cmpu	r18, r19, r3
9000a2b4:	bc520064 	blti	r18, 100		// 9000a318
9000a2b8:	16592803 	cmpu	r18, r25, r5
9000a2bc:	bcb2005c 	bgei	r18, 92		// 9000a318
9000a2c0:	be1c003c 	beqid	r28, 60		// 9000a2fc
9000a2c4:	12732800 	addk	r19, r19, r5
9000a2c8:	bc650028 	blei	r5, 40		// 9000a2f0
9000a2cc:	10800000 	addk	r4, r0, r0
9000a2d0:	10640800 	addk	r3, r4, r1
9000a2d4:	e063001c 	lbui	r3, r3, 28
9000a2d8:	d0782000 	sb	r3, r24, r4
9000a2dc:	30840001 	addik	r4, r4, 1
9000a2e0:	16442800 	rsubk	r18, r4, r5
9000a2e4:	be32fff0 	bneid	r18, -16		// 9000a2d4
9000a2e8:	10640800 	addk	r3, r4, r1
9000a2ec:	13182800 	addk	r24, r24, r5
9000a2f0:	e87d0000 	lwi	r3, r29, 0
9000a2f4:	30630004 	addik	r3, r3, 4
9000a2f8:	f87d0000 	swi	r3, r29, 0
9000a2fc:	e87b0000 	lwi	r3, r27, 0
9000a300:	bc030084 	beqi	r3, 132		// 9000a384
9000a304:	16599803 	cmpu	r18, r25, r19
9000a308:	beb20018 	bgeid	r18, 24		// 9000a320
9000a30c:	337b0004 	addik	r27, r27, 4
9000a310:	b810ff78 	brid	-136		// 9000a288
9000a314:	10be0000 	addk	r5, r30, r0
9000a318:	fada0004 	swi	r22, r26, 4
9000a31c:	fafa0000 	swi	r23, r26, 0
9000a320:	10730000 	addk	r3, r19, r0
9000a324:	e9e10000 	lwi	r15, r1, 0
9000a328:	ea610028 	lwi	r19, r1, 40
9000a32c:	eac1002c 	lwi	r22, r1, 44
9000a330:	eae10030 	lwi	r23, r1, 48
9000a334:	eb010034 	lwi	r24, r1, 52
9000a338:	eb210038 	lwi	r25, r1, 56
9000a33c:	eb41003c 	lwi	r26, r1, 60
9000a340:	eb610040 	lwi	r27, r1, 64
9000a344:	eb810044 	lwi	r28, r1, 68
9000a348:	eba10048 	lwi	r29, r1, 72
9000a34c:	ebc1004c 	lwi	r30, r1, 76
9000a350:	ebe10050 	lwi	r31, r1, 80
9000a354:	b60f0008 	rtsd	r15, 8
9000a358:	30210054 	addik	r1, r1, 84
9000a35c:	eb660000 	lwi	r27, r6, 0
9000a360:	b810ff18 	brid	-232		// 9000a278
9000a364:	3320ffff 	addik	r25, r0, -1
9000a368:	3060008a 	addik	r3, r0, 138
9000a36c:	f87e000c 	swi	r3, r30, 12
9000a370:	3260ffff 	addik	r19, r0, -1
9000a374:	b810ffac 	brid	-84		// 9000a320
9000a378:	f81a0000 	swi	r0, r26, 0
9000a37c:	b810ffa4 	brid	-92		// 9000a320
9000a380:	12600000 	addk	r19, r0, r0
9000a384:	bc1c0008 	beqi	r28, 8		// 9000a38c
9000a388:	f87d0000 	swi	r3, r29, 0
9000a38c:	3273ffff 	addik	r19, r19, -1
9000a390:	b810ff90 	brid	-112		// 9000a320
9000a394:	f87a0000 	swi	r3, r26, 0

9000a398 <_wctomb_r>:
9000a398:	b0009001 	imm	-28671
9000a39c:	30a03cac 	addik	r5, r0, 15532
9000a3a0:	3021ffd8 	addik	r1, r1, -40
9000a3a4:	fa61001c 	swi	r19, r1, 28
9000a3a8:	fac10020 	swi	r22, r1, 32
9000a3ac:	fae10024 	swi	r23, r1, 36
9000a3b0:	f9e10000 	swi	r15, r1, 0
9000a3b4:	12660000 	addk	r19, r6, r0
9000a3b8:	12c70000 	addk	r22, r7, r0
9000a3bc:	b9f45ed4 	brlid	r15, 24276	// 90010290 <strlen>
9000a3c0:	12e80000 	addk	r23, r8, r0
9000a3c4:	22400001 	addi	r18, r0, 1
9000a3c8:	16439003 	cmpu	r18, r3, r18
9000a3cc:	bcb200c0 	bgei	r18, 192		// 9000a48c
9000a3d0:	b0009001 	imm	-28671
9000a3d4:	30a03cac 	addik	r5, r0, 15532
9000a3d8:	b0009001 	imm	-28671
9000a3dc:	30c033c8 	addik	r6, r0, 13256
9000a3e0:	b9f45e00 	brlid	r15, 24064	// 900101e0 <strcmp>
9000a3e4:	80000000 	or	r0, r0, r0
9000a3e8:	bc230050 	bnei	r3, 80		// 9000a438
9000a3ec:	be130084 	beqid	r19, 132		// 9000a470
9000a3f0:	11200000 	addk	r9, r0, r0
9000a3f4:	3240007f 	addik	r18, r0, 127
9000a3f8:	16569001 	cmp	r18, r22, r18
9000a3fc:	beb20070 	bgeid	r18, 112		// 9000a46c
9000a400:	31200001 	addik	r9, r0, 1
9000a404:	3076ff80 	addik	r3, r22, -128
9000a408:	2240077f 	addi	r18, r0, 1919
9000a40c:	16439003 	cmpu	r18, r3, r18
9000a410:	be5201a8 	bltid	r18, 424		// 9000a5b8
9000a414:	a49607c0 	andi	r4, r22, 1984
9000a418:	64840206 	bsrai	r4, r4, 6
9000a41c:	a476003f 	andi	r3, r22, 63
9000a420:	a084ffc0 	ori	r4, r4, -64
9000a424:	a063ff80 	ori	r3, r3, -128
9000a428:	31200002 	addik	r9, r0, 2
9000a42c:	f0730001 	sbi	r3, r19, 1
9000a430:	b8100040 	brid	64		// 9000a470
9000a434:	f0930000 	sbi	r4, r19, 0
9000a438:	b0009001 	imm	-28671
9000a43c:	30a03cac 	addik	r5, r0, 15532
9000a440:	b0009001 	imm	-28671
9000a444:	30c033d0 	addik	r6, r0, 13264
9000a448:	b9f45d98 	brlid	r15, 23960	// 900101e0 <strcmp>
9000a44c:	80000000 	or	r0, r0, r0
9000a450:	bc230048 	bnei	r3, 72		// 9000a498
9000a454:	be13003c 	beqid	r19, 60		// 9000a490
9000a458:	64760208 	bsrai	r3, r22, 8
9000a45c:	a54300ff 	andi	r10, r3, 255
9000a460:	be2a00f0 	bneid	r10, 240		// 9000a550
9000a464:	306a007f 	addik	r3, r10, 127
9000a468:	31200001 	addik	r9, r0, 1
9000a46c:	f2d30000 	sbi	r22, r19, 0
9000a470:	10690000 	addk	r3, r9, r0
9000a474:	e9e10000 	lwi	r15, r1, 0
9000a478:	ea61001c 	lwi	r19, r1, 28
9000a47c:	eac10020 	lwi	r22, r1, 32
9000a480:	eae10024 	lwi	r23, r1, 36
9000a484:	b60f0008 	rtsd	r15, 8
9000a488:	30210028 	addik	r1, r1, 40
9000a48c:	bc33ffdc 	bnei	r19, -36		// 9000a468
9000a490:	b810ffe0 	brid	-32		// 9000a470
9000a494:	11200000 	addk	r9, r0, r0
9000a498:	b0009001 	imm	-28671
9000a49c:	30a03cac 	addik	r5, r0, 15532
9000a4a0:	b0009001 	imm	-28671
9000a4a4:	30c033d8 	addik	r6, r0, 13272
9000a4a8:	b9f45d38 	brlid	r15, 23864	// 900101e0 <strcmp>
9000a4ac:	80000000 	or	r0, r0, r0
9000a4b0:	bc230038 	bnei	r3, 56		// 9000a4e8
9000a4b4:	be13ffdc 	beqid	r19, -36		// 9000a490
9000a4b8:	64760208 	bsrai	r3, r22, 8
9000a4bc:	a54300ff 	andi	r10, r3, 255
9000a4c0:	be0affac 	beqid	r10, -84		// 9000a46c
9000a4c4:	31200001 	addik	r9, r0, 1
9000a4c8:	306a005f 	addik	r3, r10, 95
9000a4cc:	a46300ff 	andi	r3, r3, 255
9000a4d0:	2240005d 	addi	r18, r0, 93
9000a4d4:	16439003 	cmpu	r18, r3, r18
9000a4d8:	beb2028c 	bgeid	r18, 652		// 9000a764
9000a4dc:	a49600ff 	andi	r4, r22, 255
9000a4e0:	b810ff90 	brid	-112		// 9000a470
9000a4e4:	3120ffff 	addik	r9, r0, -1
9000a4e8:	b0009001 	imm	-28671
9000a4ec:	30a03cac 	addik	r5, r0, 15532
9000a4f0:	b0009001 	imm	-28671
9000a4f4:	30c033e0 	addik	r6, r0, 13280
9000a4f8:	b9f45ce8 	brlid	r15, 23784	// 900101e0 <strcmp>
9000a4fc:	80000000 	or	r0, r0, r0
9000a500:	bc23ff8c 	bnei	r3, -116		// 9000a48c
9000a504:	be13ff6c 	beqid	r19, -148		// 9000a470
9000a508:	31200001 	addik	r9, r0, 1
9000a50c:	64760208 	bsrai	r3, r22, 8
9000a510:	a54300ff 	andi	r10, r3, 255
9000a514:	be2a011c 	bneid	r10, 284		// 9000a630
9000a518:	a49600ff 	andi	r4, r22, 255
9000a51c:	e8770000 	lwi	r3, r23, 0
9000a520:	be030028 	beqid	r3, 40		// 9000a548
9000a524:	3060001b 	addik	r3, r0, 27
9000a528:	f9570000 	swi	r10, r23, 0
9000a52c:	f0730000 	sbi	r3, r19, 0
9000a530:	30600028 	addik	r3, r0, 40
9000a534:	f0730001 	sbi	r3, r19, 1
9000a538:	30600042 	addik	r3, r0, 66
9000a53c:	f0730002 	sbi	r3, r19, 2
9000a540:	31200004 	addik	r9, r0, 4
9000a544:	32730003 	addik	r19, r19, 3
9000a548:	b810ff28 	brid	-216		// 9000a470
9000a54c:	f0930000 	sbi	r4, r19, 0
9000a550:	a46300ff 	andi	r3, r3, 255
9000a554:	2240001e 	addi	r18, r0, 30
9000a558:	16439003 	cmpu	r18, r3, r18
9000a55c:	beb20024 	bgeid	r18, 36		// 9000a580
9000a560:	a49600ff 	andi	r4, r22, 255
9000a564:	306a0020 	addik	r3, r10, 32
9000a568:	a46300ff 	andi	r3, r3, 255
9000a56c:	2240000f 	addi	r18, r0, 15
9000a570:	16439003 	cmpu	r18, r3, r18
9000a574:	be52fefc 	bltid	r18, -260		// 9000a470
9000a578:	3120ffff 	addik	r9, r0, -1
9000a57c:	a49600ff 	andi	r4, r22, 255
9000a580:	3064ffc0 	addik	r3, r4, -64
9000a584:	a46300ff 	andi	r3, r3, 255
9000a588:	2240003e 	addi	r18, r0, 62
9000a58c:	16439003 	cmpu	r18, r3, r18
9000a590:	beb2001c 	bgeid	r18, 28		// 9000a5ac
9000a594:	31200002 	addik	r9, r0, 2
9000a598:	a8640080 	xori	r3, r4, 128
9000a59c:	2240007c 	addi	r18, r0, 124
9000a5a0:	16439003 	cmpu	r18, r3, r18
9000a5a4:	bc52ff3c 	blti	r18, -196		// 9000a4e0
9000a5a8:	31200002 	addik	r9, r0, 2
9000a5ac:	f0930001 	sbi	r4, r19, 1
9000a5b0:	b810fec0 	brid	-320		// 9000a470
9000a5b4:	f1530000 	sbi	r10, r19, 0
9000a5b8:	3076f800 	addik	r3, r22, -2048
9000a5bc:	b0000000 	imm	0
9000a5c0:	2240f7ff 	addi	r18, r0, -2049
9000a5c4:	16439003 	cmpu	r18, r3, r18
9000a5c8:	bcb20150 	bgei	r18, 336		// 9000a718
9000a5cc:	b000ffff 	imm	-1
9000a5d0:	30760000 	addik	r3, r22, 0
9000a5d4:	b000001e 	imm	30
9000a5d8:	2240ffff 	addi	r18, r0, -1
9000a5dc:	16439003 	cmpu	r18, r3, r18
9000a5e0:	be5200c0 	bltid	r18, 192		// 9000a6a0
9000a5e4:	a4d60fc0 	andi	r6, r22, 4032
9000a5e8:	b000001c 	imm	28
9000a5ec:	a4960000 	andi	r4, r22, 0
9000a5f0:	b0000003 	imm	3
9000a5f4:	a4b6f000 	andi	r5, r22, -4096
9000a5f8:	64840212 	bsrai	r4, r4, 18
9000a5fc:	64a5020c 	bsrai	r5, r5, 12
9000a600:	64c60206 	bsrai	r6, r6, 6
9000a604:	a476003f 	andi	r3, r22, 63
9000a608:	a084fff0 	ori	r4, r4, -16
9000a60c:	a0a5ff80 	ori	r5, r5, -128
9000a610:	a0c6ff80 	ori	r6, r6, -128
9000a614:	a063ff80 	ori	r3, r3, -128
9000a618:	31200004 	addik	r9, r0, 4
9000a61c:	f0730003 	sbi	r3, r19, 3
9000a620:	f0930000 	sbi	r4, r19, 0
9000a624:	f0b30001 	sbi	r5, r19, 1
9000a628:	b810fe48 	brid	-440		// 9000a470
9000a62c:	f0d30002 	sbi	r6, r19, 2
9000a630:	306affdf 	addik	r3, r10, -33
9000a634:	a46300ff 	andi	r3, r3, 255
9000a638:	2240005d 	addi	r18, r0, 93
9000a63c:	16439003 	cmpu	r18, r3, r18
9000a640:	be52fe30 	bltid	r18, -464		// 9000a470
9000a644:	3120ffff 	addik	r9, r0, -1
9000a648:	3064ffdf 	addik	r3, r4, -33
9000a64c:	a46300ff 	andi	r3, r3, 255
9000a650:	2240005d 	addi	r18, r0, 93
9000a654:	16439003 	cmpu	r18, r3, r18
9000a658:	be52fe1c 	bltid	r18, -484		// 9000a474
9000a65c:	10690000 	addk	r3, r9, r0
9000a660:	e8770000 	lwi	r3, r23, 0
9000a664:	be230030 	bneid	r3, 48		// 9000a694
9000a668:	31200002 	addik	r9, r0, 2
9000a66c:	30600001 	addik	r3, r0, 1
9000a670:	f8770000 	swi	r3, r23, 0
9000a674:	3060001b 	addik	r3, r0, 27
9000a678:	f0730000 	sbi	r3, r19, 0
9000a67c:	30600024 	addik	r3, r0, 36
9000a680:	f0730001 	sbi	r3, r19, 1
9000a684:	30600042 	addik	r3, r0, 66
9000a688:	f0730002 	sbi	r3, r19, 2
9000a68c:	31200005 	addik	r9, r0, 5
9000a690:	32730003 	addik	r19, r19, 3
9000a694:	f0930001 	sbi	r4, r19, 1
9000a698:	b810fdd8 	brid	-552		// 9000a470
9000a69c:	f1530000 	sbi	r10, r19, 0
9000a6a0:	b000ffe0 	imm	-32
9000a6a4:	30760000 	addik	r3, r22, 0
9000a6a8:	b00003df 	imm	991
9000a6ac:	2240ffff 	addi	r18, r0, -1
9000a6b0:	16439003 	cmpu	r18, r3, r18
9000a6b4:	be5200cc 	bltid	r18, 204		// 9000a780
9000a6b8:	a4f60fc0 	andi	r7, r22, 4032
9000a6bc:	b0000300 	imm	768
9000a6c0:	a4960000 	andi	r4, r22, 0
9000a6c4:	b00000fc 	imm	252
9000a6c8:	a4b60000 	andi	r5, r22, 0
9000a6cc:	b0000003 	imm	3
9000a6d0:	a4d6f000 	andi	r6, r22, -4096
9000a6d4:	64840218 	bsrai	r4, r4, 24
9000a6d8:	64a50212 	bsrai	r5, r5, 18
9000a6dc:	64c6020c 	bsrai	r6, r6, 12
9000a6e0:	64e70206 	bsrai	r7, r7, 6
9000a6e4:	a476003f 	andi	r3, r22, 63
9000a6e8:	a084fff8 	ori	r4, r4, -8
9000a6ec:	a0a5ff80 	ori	r5, r5, -128
9000a6f0:	a0c6ff80 	ori	r6, r6, -128
9000a6f4:	a0e7ff80 	ori	r7, r7, -128
9000a6f8:	a063ff80 	ori	r3, r3, -128
9000a6fc:	31200005 	addik	r9, r0, 5
9000a700:	f0730004 	sbi	r3, r19, 4
9000a704:	f0930000 	sbi	r4, r19, 0
9000a708:	f0b30001 	sbi	r5, r19, 1
9000a70c:	f0d30002 	sbi	r6, r19, 2
9000a710:	b810fd60 	brid	-672		// 9000a470
9000a714:	f0f30003 	sbi	r7, r19, 3
9000a718:	b000ffff 	imm	-1
9000a71c:	30762800 	addik	r3, r22, 10240
9000a720:	224007ff 	addi	r18, r0, 2047
9000a724:	16439003 	cmpu	r18, r3, r18
9000a728:	beb2fdb8 	bgeid	r18, -584		// 9000a4e0
9000a72c:	a4b60fc0 	andi	r5, r22, 4032
9000a730:	b0000000 	imm	0
9000a734:	a476f000 	andi	r3, r22, -4096
9000a738:	6463020c 	bsrai	r3, r3, 12
9000a73c:	64a50206 	bsrai	r5, r5, 6
9000a740:	a496003f 	andi	r4, r22, 63
9000a744:	a063ffe0 	ori	r3, r3, -32
9000a748:	a0a5ff80 	ori	r5, r5, -128
9000a74c:	a084ff80 	ori	r4, r4, -128
9000a750:	31200003 	addik	r9, r0, 3
9000a754:	f0930002 	sbi	r4, r19, 2
9000a758:	f0730000 	sbi	r3, r19, 0
9000a75c:	b810fd14 	brid	-748		// 9000a470
9000a760:	f0b30001 	sbi	r5, r19, 1
9000a764:	3064005f 	addik	r3, r4, 95
9000a768:	a46300ff 	andi	r3, r3, 255
9000a76c:	2240005d 	addi	r18, r0, 93
9000a770:	16439003 	cmpu	r18, r3, r18
9000a774:	bcb2fe34 	bgei	r18, -460		// 9000a5a8
9000a778:	b810fcf8 	brid	-776		// 9000a470
9000a77c:	3120ffff 	addik	r9, r0, -1
9000a780:	b00003ff 	imm	1023
9000a784:	3240ffff 	addik	r18, r0, -1
9000a788:	16569001 	cmp	r18, r22, r18
9000a78c:	beb2fd54 	bgeid	r18, -684		// 9000a4e0
9000a790:	a5160fc0 	andi	r8, r22, 4032
9000a794:	b0004000 	imm	16384
9000a798:	a4960000 	andi	r4, r22, 0
9000a79c:	b0003f00 	imm	16128
9000a7a0:	a4b60000 	andi	r5, r22, 0
9000a7a4:	b00000fc 	imm	252
9000a7a8:	a4d60000 	andi	r6, r22, 0
9000a7ac:	b0000003 	imm	3
9000a7b0:	a4f6f000 	andi	r7, r22, -4096
9000a7b4:	6484021e 	bsrai	r4, r4, 30
9000a7b8:	64a50218 	bsrai	r5, r5, 24
9000a7bc:	64c60212 	bsrai	r6, r6, 18
9000a7c0:	64e7020c 	bsrai	r7, r7, 12
9000a7c4:	65080206 	bsrai	r8, r8, 6
9000a7c8:	a476003f 	andi	r3, r22, 63
9000a7cc:	a084fffc 	ori	r4, r4, -4
9000a7d0:	a0a5ff80 	ori	r5, r5, -128
9000a7d4:	a0c6ff80 	ori	r6, r6, -128
9000a7d8:	a0e7ff80 	ori	r7, r7, -128
9000a7dc:	a108ff80 	ori	r8, r8, -128
9000a7e0:	a063ff80 	ori	r3, r3, -128
9000a7e4:	31200006 	addik	r9, r0, 6
9000a7e8:	f0730005 	sbi	r3, r19, 5
9000a7ec:	f0930000 	sbi	r4, r19, 0
9000a7f0:	f0b30001 	sbi	r5, r19, 1
9000a7f4:	f0d30002 	sbi	r6, r19, 2
9000a7f8:	f0f30003 	sbi	r7, r19, 3
9000a7fc:	b810fc74 	brid	-908		// 9000a470
9000a800:	f1130004 	sbi	r8, r19, 4

9000a804 <__swsetup>:
9000a804:	b0009001 	imm	-28671
9000a808:	e88037a4 	lwi	r4, r0, 14244
9000a80c:	3021ffe0 	addik	r1, r1, -32
9000a810:	fa61001c 	swi	r19, r1, 28
9000a814:	f9e10000 	swi	r15, r1, 0
9000a818:	be040010 	beqid	r4, 16		// 9000a828
9000a81c:	12650000 	addk	r19, r5, r0
9000a820:	e8640018 	lwi	r3, r4, 24
9000a824:	bc030088 	beqi	r3, 136		// 9000a8ac
9000a828:	b0009001 	imm	-28671
9000a82c:	aa533414 	xori	r18, r19, 13332
9000a830:	bc120090 	beqi	r18, 144		// 9000a8c0
9000a834:	b0009001 	imm	-28671
9000a838:	aa533434 	xori	r18, r19, 13364
9000a83c:	bc120094 	beqi	r18, 148		// 9000a8d0
9000a840:	b0009001 	imm	-28671
9000a844:	aa533454 	xori	r18, r19, 13396
9000a848:	bc120098 	beqi	r18, 152		// 9000a8e0
9000a84c:	e493000c 	lhui	r4, r19, 12
9000a850:	a4640008 	andi	r3, r4, 8
9000a854:	be0300ac 	beqid	r3, 172		// 9000a900
9000a858:	a4640010 	andi	r3, r4, 16
9000a85c:	e8930010 	lwi	r4, r19, 16
9000a860:	bc040090 	beqi	r4, 144		// 9000a8f0
9000a864:	e473000c 	lhui	r3, r19, 12
9000a868:	a4830001 	andi	r4, r3, 1
9000a86c:	be24001c 	bneid	r4, 28		// 9000a888
9000a870:	10a00000 	addk	r5, r0, r0
9000a874:	a4630002 	andi	r3, r3, 2
9000a878:	bc230008 	bnei	r3, 8		// 9000a880
9000a87c:	e8930014 	lwi	r4, r19, 20
9000a880:	b8100018 	brid	24		// 9000a898
9000a884:	f8930008 	swi	r4, r19, 8
9000a888:	e8730014 	lwi	r3, r19, 20
9000a88c:	f8b30008 	swi	r5, r19, 8
9000a890:	14630000 	rsubk	r3, r3, r0
9000a894:	f8730018 	swi	r3, r19, 24
9000a898:	10650000 	addk	r3, r5, r0
9000a89c:	e9e10000 	lwi	r15, r1, 0
9000a8a0:	ea61001c 	lwi	r19, r1, 28
9000a8a4:	b60f0008 	rtsd	r15, 8
9000a8a8:	30210020 	addik	r1, r1, 32
9000a8ac:	b9f41de0 	brlid	r15, 7648	// 9000c68c <__sinit>
9000a8b0:	10a40000 	addk	r5, r4, r0
9000a8b4:	b0009001 	imm	-28671
9000a8b8:	aa533414 	xori	r18, r19, 13332
9000a8bc:	bc32ff78 	bnei	r18, -136		// 9000a834
9000a8c0:	b0009001 	imm	-28671
9000a8c4:	e86037a4 	lwi	r3, r0, 14244
9000a8c8:	b810ff84 	brid	-124		// 9000a84c
9000a8cc:	ea630000 	lwi	r19, r3, 0
9000a8d0:	b0009001 	imm	-28671
9000a8d4:	e86037a4 	lwi	r3, r0, 14244
9000a8d8:	b810ff74 	brid	-140		// 9000a84c
9000a8dc:	ea630004 	lwi	r19, r3, 4
9000a8e0:	b0009001 	imm	-28671
9000a8e4:	e86037a4 	lwi	r3, r0, 14244
9000a8e8:	b810ff64 	brid	-156		// 9000a84c
9000a8ec:	ea630008 	lwi	r19, r3, 8
9000a8f0:	b9f42df4 	brlid	r15, 11764	// 9000d6e4 <__smakebuf>
9000a8f4:	10b30000 	addk	r5, r19, r0
9000a8f8:	b810ff70 	brid	-144		// 9000a868
9000a8fc:	e473000c 	lhui	r3, r19, 12
9000a900:	be03ff98 	beqid	r3, -104		// 9000a898
9000a904:	30a0ffff 	addik	r5, r0, -1
9000a908:	a4640004 	andi	r3, r4, 4
9000a90c:	bc030054 	beqi	r3, 84		// 9000a960
9000a910:	e8d30034 	lwi	r6, r19, 52
9000a914:	be060024 	beqid	r6, 36		// 9000a938
9000a918:	30730044 	addik	r3, r19, 68
9000a91c:	16433000 	rsubk	r18, r3, r6
9000a920:	bc120014 	beqi	r18, 20		// 9000a934
9000a924:	b0009001 	imm	-28671
9000a928:	e8a037a4 	lwi	r5, r0, 14244
9000a92c:	b9f423e8 	brlid	r15, 9192	// 9000cd14 <_free_r>
9000a930:	80000000 	or	r0, r0, r0
9000a934:	f8130034 	swi	r0, r19, 52
9000a938:	e473000c 	lhui	r3, r19, 12
9000a93c:	e8930010 	lwi	r4, r19, 16
9000a940:	f8130004 	swi	r0, r19, 4
9000a944:	a463ffdb 	andi	r3, r3, -37
9000a948:	f473000c 	shi	r3, r19, 12
9000a94c:	f8930000 	swi	r4, r19, 0
9000a950:	e473000c 	lhui	r3, r19, 12
9000a954:	a0630008 	ori	r3, r3, 8
9000a958:	b810ff08 	brid	-248		// 9000a860
9000a95c:	f473000c 	shi	r3, r19, 12
9000a960:	b810fff0 	brid	-16		// 9000a950
9000a964:	e8930010 	lwi	r4, r19, 16

9000a968 <__call_exitprocs>:
9000a968:	b0009001 	imm	-28671
9000a96c:	e86031d8 	lwi	r3, r0, 12760
9000a970:	3021ffd0 	addik	r1, r1, -48
9000a974:	fb010028 	swi	r24, r1, 40
9000a978:	fb21002c 	swi	r25, r1, 44
9000a97c:	f9e10000 	swi	r15, r1, 0
9000a980:	fa61001c 	swi	r19, r1, 28
9000a984:	fac10020 	swi	r22, r1, 32
9000a988:	fae10024 	swi	r23, r1, 36
9000a98c:	eac30048 	lwi	r22, r3, 72
9000a990:	13250000 	addk	r25, r5, r0
9000a994:	be160044 	beqid	r22, 68		// 9000a9d8
9000a998:	13060000 	addk	r24, r6, r0
9000a99c:	e8760004 	lwi	r3, r22, 4
9000a9a0:	3263ffff 	addik	r19, r3, -1
9000a9a4:	be530034 	bltid	r19, 52		// 9000a9d8
9000a9a8:	eaf60088 	lwi	r23, r22, 136
9000a9ac:	bc060064 	beqi	r6, 100		// 9000aa10
9000a9b0:	bc1700d0 	beqi	r23, 208		// 9000aa80
9000a9b4:	64b30402 	bslli	r5, r19, 2
9000a9b8:	1065b800 	addk	r3, r5, r23
9000a9bc:	e8830080 	lwi	r4, r3, 128
9000a9c0:	1644c000 	rsubk	r18, r4, r24
9000a9c4:	be120104 	beqid	r18, 260		// 9000aac8
9000a9c8:	1065b000 	addk	r3, r5, r22
9000a9cc:	3273ffff 	addik	r19, r19, -1
9000a9d0:	aa53ffff 	xori	r18, r19, -1
9000a9d4:	bc32ffe0 	bnei	r18, -32		// 9000a9b4
9000a9d8:	e9e10000 	lwi	r15, r1, 0
9000a9dc:	ea61001c 	lwi	r19, r1, 28
9000a9e0:	eac10020 	lwi	r22, r1, 32
9000a9e4:	eae10024 	lwi	r23, r1, 36
9000a9e8:	eb010028 	lwi	r24, r1, 40
9000a9ec:	eb21002c 	lwi	r25, r1, 44
9000a9f0:	b60f0008 	rtsd	r15, 8
9000a9f4:	30210030 	addik	r1, r1, 48
9000a9f8:	99fc3800 	brald	r15, r7
9000a9fc:	c8b72800 	lw	r5, r23, r5
9000aa00:	3273ffff 	addik	r19, r19, -1
9000aa04:	aa53ffff 	xori	r18, r19, -1
9000aa08:	be12ffd4 	beqid	r18, -44		// 9000a9dc
9000aa0c:	e9e10000 	lwi	r15, r1, 0
9000aa10:	e8960004 	lwi	r4, r22, 4
9000aa14:	64b30402 	bslli	r5, r19, 2
9000aa18:	3084ffff 	addik	r4, r4, -1
9000aa1c:	1065b000 	addk	r3, r5, r22
9000aa20:	16449800 	rsubk	r18, r4, r19
9000aa24:	be12009c 	beqid	r18, 156		// 9000aac0
9000aa28:	e8e30008 	lwi	r7, r3, 8
9000aa2c:	1065b000 	addk	r3, r5, r22
9000aa30:	f8030008 	swi	r0, r3, 8
9000aa34:	bc07ffcc 	beqi	r7, -52		// 9000aa00
9000aa38:	be17006c 	beqid	r23, 108		// 9000aaa4
9000aa3c:	30800001 	addik	r4, r0, 1
9000aa40:	e8770100 	lwi	r3, r23, 256
9000aa44:	44849c00 	bsll	r4, r4, r19
9000aa48:	84641800 	and	r3, r4, r3
9000aa4c:	bc030058 	beqi	r3, 88		// 9000aaa4
9000aa50:	e8770104 	lwi	r3, r23, 260
9000aa54:	84641800 	and	r3, r4, r3
9000aa58:	bc23ffa0 	bnei	r3, -96		// 9000a9f8
9000aa5c:	c8d72800 	lw	r6, r23, r5
9000aa60:	10b90000 	addk	r5, r25, r0
9000aa64:	99fc3800 	brald	r15, r7
9000aa68:	3273ffff 	addik	r19, r19, -1
9000aa6c:	aa53ffff 	xori	r18, r19, -1
9000aa70:	be32ffa0 	bneid	r18, -96		// 9000aa10
9000aa74:	e9e10000 	lwi	r15, r1, 0
9000aa78:	b810ff68 	brid	-152		// 9000a9e0
9000aa7c:	ea61001c 	lwi	r19, r1, 28
9000aa80:	3273ffff 	addik	r19, r19, -1
9000aa84:	aa53ffff 	xori	r18, r19, -1
9000aa88:	be12ff50 	beqid	r18, -176		// 9000a9d8
9000aa8c:	3273ffff 	addik	r19, r19, -1
9000aa90:	aa53ffff 	xori	r18, r19, -1
9000aa94:	be32fff0 	bneid	r18, -16		// 9000aa84
9000aa98:	3273ffff 	addik	r19, r19, -1
9000aa9c:	b810ff40 	brid	-192		// 9000a9dc
9000aaa0:	e9e10000 	lwi	r15, r1, 0
9000aaa4:	99fc3800 	brald	r15, r7
9000aaa8:	3273ffff 	addik	r19, r19, -1
9000aaac:	aa53ffff 	xori	r18, r19, -1
9000aab0:	be32ff60 	bneid	r18, -160		// 9000aa10
9000aab4:	e9e10000 	lwi	r15, r1, 0
9000aab8:	b810ff28 	brid	-216		// 9000a9e0
9000aabc:	ea61001c 	lwi	r19, r1, 28
9000aac0:	b810ff74 	brid	-140		// 9000aa34
9000aac4:	fa760004 	swi	r19, r22, 4
9000aac8:	e8960004 	lwi	r4, r22, 4
9000aacc:	3084ffff 	addik	r4, r4, -1
9000aad0:	16449800 	rsubk	r18, r4, r19
9000aad4:	be120058 	beqid	r18, 88		// 9000ab2c
9000aad8:	e8e30008 	lwi	r7, r3, 8
9000aadc:	1065b000 	addk	r3, r5, r22
9000aae0:	f8030008 	swi	r0, r3, 8
9000aae4:	bc07fee8 	beqi	r7, -280		// 9000a9cc
9000aae8:	be170038 	beqid	r23, 56		// 9000ab20
9000aaec:	30800001 	addik	r4, r0, 1
9000aaf0:	e8770100 	lwi	r3, r23, 256
9000aaf4:	44849c00 	bsll	r4, r4, r19
9000aaf8:	84641800 	and	r3, r4, r3
9000aafc:	bc030024 	beqi	r3, 36		// 9000ab20
9000ab00:	e8770104 	lwi	r3, r23, 260
9000ab04:	84641800 	and	r3, r4, r3
9000ab08:	bc23002c 	bnei	r3, 44		// 9000ab34
9000ab0c:	c8d72800 	lw	r6, r23, r5
9000ab10:	99fc3800 	brald	r15, r7
9000ab14:	10b90000 	addk	r5, r25, r0
9000ab18:	b810feb8 	brid	-328		// 9000a9d0
9000ab1c:	3273ffff 	addik	r19, r19, -1
9000ab20:	99fc3800 	brald	r15, r7
9000ab24:	3273ffff 	addik	r19, r19, -1
9000ab28:	b800fea8 	bri	-344		// 9000a9d0
9000ab2c:	b810ffb8 	brid	-72		// 9000aae4
9000ab30:	fa760004 	swi	r19, r22, 4
9000ab34:	99fc3800 	brald	r15, r7
9000ab38:	c8b72800 	lw	r5, r23, r5
9000ab3c:	b810fe94 	brid	-364		// 9000a9d0
9000ab40:	3273ffff 	addik	r19, r19, -1

9000ab44 <quorem>:
9000ab44:	3021ffc0 	addik	r1, r1, -64
9000ab48:	fb410030 	swi	r26, r1, 48
9000ab4c:	fb810038 	swi	r28, r1, 56
9000ab50:	f9e10000 	swi	r15, r1, 0
9000ab54:	fa61001c 	swi	r19, r1, 28
9000ab58:	fac10020 	swi	r22, r1, 32
9000ab5c:	fae10024 	swi	r23, r1, 36
9000ab60:	fb010028 	swi	r24, r1, 40
9000ab64:	fb21002c 	swi	r25, r1, 44
9000ab68:	fb610034 	swi	r27, r1, 52
9000ab6c:	fba1003c 	swi	r29, r1, 60
9000ab70:	13850000 	addk	r28, r5, r0
9000ab74:	e8650010 	lwi	r3, r5, 16
9000ab78:	e8a60010 	lwi	r5, r6, 16
9000ab7c:	13460000 	addk	r26, r6, r0
9000ab80:	16451801 	cmp	r18, r5, r3
9000ab84:	be520120 	bltid	r18, 288		// 9000aca4
9000ab88:	10800000 	addk	r4, r0, r0
9000ab8c:	32c5ffff 	addik	r22, r5, -1
9000ab90:	64760402 	bslli	r3, r22, 2
9000ab94:	32fc0014 	addik	r23, r28, 20
9000ab98:	cb771800 	lw	r27, r23, r3
9000ab9c:	32660014 	addik	r19, r6, 20
9000aba0:	c8c39800 	lw	r6, r3, r19
9000aba4:	10bb0000 	addk	r5, r27, r0
9000aba8:	13331800 	addk	r25, r19, r3
9000abac:	30c60001 	addik	r6, r6, 1
9000abb0:	b0000000 	imm	0
9000abb4:	b9f47c84 	brlid	r15, 31876	// 90012838 <__udivsi3>
9000abb8:	13a3b800 	addk	r29, r3, r23
9000abbc:	be23011c 	bneid	r3, 284		// 9000acd8
9000abc0:	13030000 	addk	r24, r3, r0
9000abc4:	10da0000 	addk	r6, r26, r0
9000abc8:	b9f4308c 	brlid	r15, 12428	// 9000dc54 <__mcmp>
9000abcc:	10bc0000 	addk	r5, r28, r0
9000abd0:	be4300d0 	bltid	r3, 208		// 9000aca0
9000abd4:	11200000 	addk	r9, r0, r0
9000abd8:	11170000 	addk	r8, r23, r0
9000abdc:	10a90000 	addk	r5, r9, r0
9000abe0:	33180001 	addik	r24, r24, 1
9000abe4:	e8d30000 	lwi	r6, r19, 0
9000abe8:	e8880000 	lwi	r4, r8, 0
9000abec:	32730004 	addik	r19, r19, 4
9000abf0:	b0000000 	imm	0
9000abf4:	a466ffff 	andi	r3, r6, -1
9000abf8:	10651800 	addk	r3, r5, r3
9000abfc:	b0000000 	imm	0
9000ac00:	a4e3ffff 	andi	r7, r3, -1
9000ac04:	b0000000 	imm	0
9000ac08:	a4a4ffff 	andi	r5, r4, -1
9000ac0c:	64630010 	bsrli	r3, r3, 16
9000ac10:	64c60010 	bsrli	r6, r6, 16
9000ac14:	14a72800 	rsubk	r5, r7, r5
9000ac18:	10a54800 	addk	r5, r5, r9
9000ac1c:	10c61800 	addk	r6, r6, r3
9000ac20:	64840010 	bsrli	r4, r4, 16
9000ac24:	64e50210 	bsrai	r7, r5, 16
9000ac28:	b0000000 	imm	0
9000ac2c:	a466ffff 	andi	r3, r6, -1
9000ac30:	14832000 	rsubk	r4, r3, r4
9000ac34:	10843800 	addk	r4, r4, r7
9000ac38:	f4a80002 	shi	r5, r8, 2
9000ac3c:	f4880000 	shi	r4, r8, 0
9000ac40:	64a60010 	bsrli	r5, r6, 16
9000ac44:	31080004 	addik	r8, r8, 4
9000ac48:	1653c803 	cmpu	r18, r19, r25
9000ac4c:	beb2ff98 	bgeid	r18, -104		// 9000abe4
9000ac50:	65240210 	bsrai	r9, r4, 16
9000ac54:	64760402 	bslli	r3, r22, 2
9000ac58:	c883b800 	lw	r4, r3, r23
9000ac5c:	be240044 	bneid	r4, 68		// 9000aca0
9000ac60:	10771800 	addk	r3, r23, r3
9000ac64:	3083fffc 	addik	r4, r3, -4
9000ac68:	1644b803 	cmpu	r18, r4, r23
9000ac6c:	bcb20030 	bgei	r18, 48		// 9000ac9c
9000ac70:	e863fffc 	lwi	r3, r3, -4
9000ac74:	be03001c 	beqid	r3, 28		// 9000ac90
9000ac78:	3084fffc 	addik	r4, r4, -4
9000ac7c:	b8100024 	brid	36		// 9000aca0
9000ac80:	fadc0010 	swi	r22, r28, 16
9000ac84:	e8640000 	lwi	r3, r4, 0
9000ac88:	be230014 	bneid	r3, 20		// 9000ac9c
9000ac8c:	3084fffc 	addik	r4, r4, -4
9000ac90:	1644b803 	cmpu	r18, r4, r23
9000ac94:	be52fff0 	bltid	r18, -16		// 9000ac84
9000ac98:	32d6ffff 	addik	r22, r22, -1
9000ac9c:	fadc0010 	swi	r22, r28, 16
9000aca0:	10980000 	addk	r4, r24, r0
9000aca4:	10640000 	addk	r3, r4, r0
9000aca8:	e9e10000 	lwi	r15, r1, 0
9000acac:	ea61001c 	lwi	r19, r1, 28
9000acb0:	eac10020 	lwi	r22, r1, 32
9000acb4:	eae10024 	lwi	r23, r1, 36
9000acb8:	eb010028 	lwi	r24, r1, 40
9000acbc:	eb21002c 	lwi	r25, r1, 44
9000acc0:	eb410030 	lwi	r26, r1, 48
9000acc4:	eb610034 	lwi	r27, r1, 52
9000acc8:	eb810038 	lwi	r28, r1, 56
9000accc:	eba1003c 	lwi	r29, r1, 60
9000acd0:	b60f0008 	rtsd	r15, 8
9000acd4:	30210040 	addik	r1, r1, 64
9000acd8:	11400000 	addk	r10, r0, r0
9000acdc:	11170000 	addk	r8, r23, r0
9000ace0:	11330000 	addk	r9, r19, r0
9000ace4:	10ea0000 	addk	r7, r10, r0
9000ace8:	e8890000 	lwi	r4, r9, 0
9000acec:	e8a80000 	lwi	r5, r8, 0
9000acf0:	31290004 	addik	r9, r9, 4
9000acf4:	b0000000 	imm	0
9000acf8:	a464ffff 	andi	r3, r4, -1
9000acfc:	40781800 	mul	r3, r24, r3
9000ad00:	64840010 	bsrli	r4, r4, 16
9000ad04:	b0000000 	imm	0
9000ad08:	a4c5ffff 	andi	r6, r5, -1
9000ad0c:	10671800 	addk	r3, r7, r3
9000ad10:	40982000 	mul	r4, r24, r4
9000ad14:	b0000000 	imm	0
9000ad18:	a4e3ffff 	andi	r7, r3, -1
9000ad1c:	64630010 	bsrli	r3, r3, 16
9000ad20:	14c73000 	rsubk	r6, r7, r6
9000ad24:	10c65000 	addk	r6, r6, r10
9000ad28:	10841800 	addk	r4, r4, r3
9000ad2c:	64a50010 	bsrli	r5, r5, 16
9000ad30:	64e60210 	bsrai	r7, r6, 16
9000ad34:	b0000000 	imm	0
9000ad38:	a464ffff 	andi	r3, r4, -1
9000ad3c:	14a32800 	rsubk	r5, r3, r5
9000ad40:	10a53800 	addk	r5, r5, r7
9000ad44:	f4a80000 	shi	r5, r8, 0
9000ad48:	f4c80002 	shi	r6, r8, 2
9000ad4c:	64e40010 	bsrli	r7, r4, 16
9000ad50:	31080004 	addik	r8, r8, 4
9000ad54:	1649c803 	cmpu	r18, r9, r25
9000ad58:	beb2ff90 	bgeid	r18, -112		// 9000ace8
9000ad5c:	65450210 	bsrai	r10, r5, 16
9000ad60:	be3bfe64 	bneid	r27, -412		// 9000abc4
9000ad64:	309dfffc 	addik	r4, r29, -4
9000ad68:	1644b803 	cmpu	r18, r4, r23
9000ad6c:	bcb20030 	bgei	r18, 48		// 9000ad9c
9000ad70:	e87dfffc 	lwi	r3, r29, -4
9000ad74:	be03001c 	beqid	r3, 28		// 9000ad90
9000ad78:	3084fffc 	addik	r4, r4, -4
9000ad7c:	b810fe48 	brid	-440		// 9000abc4
9000ad80:	fadc0010 	swi	r22, r28, 16
9000ad84:	e8640000 	lwi	r3, r4, 0
9000ad88:	be230014 	bneid	r3, 20		// 9000ad9c
9000ad8c:	3084fffc 	addik	r4, r4, -4
9000ad90:	1644b803 	cmpu	r18, r4, r23
9000ad94:	be52fff0 	bltid	r18, -16		// 9000ad84
9000ad98:	32d6ffff 	addik	r22, r22, -1
9000ad9c:	b810fe28 	brid	-472		// 9000abc4
9000ada0:	fadc0010 	swi	r22, r28, 16

9000ada4 <_dtoa_r>:
9000ada4:	3021ff78 	addik	r1, r1, -136
9000ada8:	fa61005c 	swi	r19, r1, 92
9000adac:	fae10064 	swi	r23, r1, 100
9000adb0:	fb410070 	swi	r26, r1, 112
9000adb4:	fb610074 	swi	r27, r1, 116
9000adb8:	fba1007c 	swi	r29, r1, 124
9000adbc:	f9e10000 	swi	r15, r1, 0
9000adc0:	fac10060 	swi	r22, r1, 96
9000adc4:	fb010068 	swi	r24, r1, 104
9000adc8:	fb21006c 	swi	r25, r1, 108
9000adcc:	fb810078 	swi	r28, r1, 120
9000add0:	fbc10080 	swi	r30, r1, 128
9000add4:	fbe10084 	swi	r31, r1, 132
9000add8:	eac50024 	lwi	r22, r5, 36
9000addc:	13a50000 	addk	r29, r5, r0
9000ade0:	f9010098 	swi	r8, r1, 152
9000ade4:	f921009c 	swi	r9, r1, 156
9000ade8:	f94100a0 	swi	r10, r1, 160
9000adec:	13460000 	addk	r26, r6, r0
9000adf0:	13670000 	addk	r27, r7, r0
9000adf4:	eae100a4 	lwi	r23, r1, 164
9000adf8:	be160a84 	beqid	r22, 2692		// 9000b87c
9000adfc:	12760000 	addk	r19, r22, r0
9000ae00:	e8f60000 	lwi	r7, r22, 0
9000ae04:	be070030 	beqid	r7, 48		// 9000ae34
9000ae08:	10c70000 	addk	r6, r7, r0
9000ae0c:	e8760004 	lwi	r3, r22, 4
9000ae10:	10bd0000 	addk	r5, r29, r0
9000ae14:	f8670004 	swi	r3, r7, 4
9000ae18:	e8960004 	lwi	r4, r22, 4
9000ae1c:	30600001 	addik	r3, r0, 1
9000ae20:	44632400 	bsll	r3, r3, r4
9000ae24:	b9f42fa8 	brlid	r15, 12200	// 9000ddcc <_Bfree>
9000ae28:	f8670008 	swi	r3, r7, 8
9000ae2c:	e87d0024 	lwi	r3, r29, 36
9000ae30:	f8030000 	swi	r0, r3, 0
9000ae34:	be5a04cc 	bltid	r26, 1228		// 9000b300
9000ae38:	30600001 	addik	r3, r0, 1
9000ae3c:	f8170000 	swi	r0, r23, 0
9000ae40:	b0007ff0 	imm	32752
9000ae44:	a47a0000 	andi	r3, r26, 0
9000ae48:	b0007ff0 	imm	32752
9000ae4c:	aa430000 	xori	r18, r3, 0
9000ae50:	be120474 	beqid	r18, 1140		// 9000b2c4
9000ae54:	10ba0000 	addk	r5, r26, r0
9000ae58:	10db0000 	addk	r6, r27, r0
9000ae5c:	13da0000 	addk	r30, r26, r0
9000ae60:	10e00000 	addk	r7, r0, r0
9000ae64:	11000000 	addk	r8, r0, r0
9000ae68:	b9f473b8 	brlid	r15, 29624	// 90012220 <__nedf2>
9000ae6c:	13fb0000 	addk	r31, r27, r0
9000ae70:	be23006c 	bneid	r3, 108		// 9000aedc
9000ae74:	e88100a0 	lwi	r4, r1, 160
9000ae78:	e8a100a8 	lwi	r5, r1, 168
9000ae7c:	30600001 	addik	r3, r0, 1
9000ae80:	f8640000 	swi	r3, r4, 0
9000ae84:	b0009001 	imm	-28671
9000ae88:	308033f8 	addik	r4, r0, 13304
9000ae8c:	be050018 	beqid	r5, 24		// 9000aea4
9000ae90:	10640000 	addk	r3, r4, r0
9000ae94:	b0009001 	imm	-28671
9000ae98:	306033f9 	addik	r3, r0, 13305
9000ae9c:	f8650000 	swi	r3, r5, 0
9000aea0:	10640000 	addk	r3, r4, r0
9000aea4:	e9e10000 	lwi	r15, r1, 0
9000aea8:	ea61005c 	lwi	r19, r1, 92
9000aeac:	eac10060 	lwi	r22, r1, 96
9000aeb0:	eae10064 	lwi	r23, r1, 100
9000aeb4:	eb010068 	lwi	r24, r1, 104
9000aeb8:	eb21006c 	lwi	r25, r1, 108
9000aebc:	eb410070 	lwi	r26, r1, 112
9000aec0:	eb610074 	lwi	r27, r1, 116
9000aec4:	eb810078 	lwi	r28, r1, 120
9000aec8:	eba1007c 	lwi	r29, r1, 124
9000aecc:	ebc10080 	lwi	r30, r1, 128
9000aed0:	ebe10084 	lwi	r31, r1, 132
9000aed4:	b60f0008 	rtsd	r15, 8
9000aed8:	30210088 	addik	r1, r1, 136
9000aedc:	10da0000 	addk	r6, r26, r0
9000aee0:	10bd0000 	addk	r5, r29, r0
9000aee4:	10fb0000 	addk	r7, r27, r0
9000aee8:	31010020 	addik	r8, r1, 32
9000aeec:	b9f434e8 	brlid	r15, 13544	// 9000e3d4 <_d2b>
9000aef0:	3121001c 	addik	r9, r1, 28
9000aef4:	f8610030 	swi	r3, r1, 48
9000aef8:	647a0014 	bsrli	r3, r26, 20
9000aefc:	a4c307ff 	andi	r6, r3, 2047
9000af00:	be06043c 	beqid	r6, 1084		// 9000b33c
9000af04:	eb01001c 	lwi	r24, r1, 28
9000af08:	b000000f 	imm	15
9000af0c:	a47affff 	andi	r3, r26, -1
9000af10:	10bb0000 	addk	r5, r27, r0
9000af14:	b0003ff0 	imm	16368
9000af18:	a0830000 	ori	r4, r3, 0
9000af1c:	10600000 	addk	r3, r0, r0
9000af20:	3266fc01 	addik	r19, r6, -1023
9000af24:	f8610034 	swi	r3, r1, 52
9000af28:	b0003ff8 	imm	16376
9000af2c:	30e00000 	addik	r7, r0, 0
9000af30:	31000000 	addik	r8, r0, 0
9000af34:	10c50000 	addk	r6, r5, r0
9000af38:	b9f46ac0 	brlid	r15, 27328	// 900119f8 <__subdf3>
9000af3c:	10a40000 	addk	r5, r4, r0
9000af40:	11030000 	addk	r8, r3, r0
9000af44:	10a80000 	addk	r5, r8, r0
9000af48:	b0003fd2 	imm	16338
9000af4c:	30e087a7 	addik	r7, r0, -30809
9000af50:	b000636f 	imm	25455
9000af54:	31004361 	addik	r8, r0, 17249
9000af58:	b9f46bc4 	brlid	r15, 27588	// 90011b1c <__muldf3>
9000af5c:	10c40000 	addk	r6, r4, r0
9000af60:	11030000 	addk	r8, r3, r0
9000af64:	10a80000 	addk	r5, r8, r0
9000af68:	b0003fc6 	imm	16326
9000af6c:	30e08a28 	addik	r7, r0, -30168
9000af70:	b0008b60 	imm	-29856
9000af74:	3100c8b3 	addik	r8, r0, -14157
9000af78:	b9f46b18 	brlid	r15, 27416	// 90011a90 <__adddf3>
9000af7c:	10c40000 	addk	r6, r4, r0
9000af80:	10b30000 	addk	r5, r19, r0
9000af84:	12c30000 	addk	r22, r3, r0
9000af88:	b9f47568 	brlid	r15, 30056	// 900124f0 <__floatsidf>
9000af8c:	12e40000 	addk	r23, r4, r0
9000af90:	11030000 	addk	r8, r3, r0
9000af94:	10a80000 	addk	r5, r8, r0
9000af98:	b0003fd3 	imm	16339
9000af9c:	30e04413 	addik	r7, r0, 17427
9000afa0:	b000509f 	imm	20639
9000afa4:	310079fb 	addik	r8, r0, 31227
9000afa8:	b9f46b74 	brlid	r15, 27508	// 90011b1c <__muldf3>
9000afac:	10c40000 	addk	r6, r4, r0
9000afb0:	11430000 	addk	r10, r3, r0
9000afb4:	10b60000 	addk	r5, r22, r0
9000afb8:	10d70000 	addk	r6, r23, r0
9000afbc:	10ea0000 	addk	r7, r10, r0
9000afc0:	b9f46ad0 	brlid	r15, 27344	// 90011a90 <__adddf3>
9000afc4:	11040000 	addk	r8, r4, r0
9000afc8:	12c30000 	addk	r22, r3, r0
9000afcc:	12e40000 	addk	r23, r4, r0
9000afd0:	10c40000 	addk	r6, r4, r0
9000afd4:	b9f47634 	brlid	r15, 30260	// 90012608 <__fixdfsi>
9000afd8:	10b60000 	addk	r5, r22, r0
9000afdc:	10b60000 	addk	r5, r22, r0
9000afe0:	10d70000 	addk	r6, r23, r0
9000afe4:	10e00000 	addk	r7, r0, r0
9000afe8:	11000000 	addk	r8, r0, r0
9000afec:	b9f47450 	brlid	r15, 29776	// 9001243c <__ltdf2>
9000aff0:	f8610048 	swi	r3, r1, 72
9000aff4:	bc430c80 	blti	r3, 3200		// 9000bc74
9000aff8:	e8610048 	lwi	r3, r1, 72
9000affc:	30a00001 	addik	r5, r0, 1
9000b000:	22400016 	addi	r18, r0, 22
9000b004:	16439003 	cmpu	r18, r3, r18
9000b008:	be52004c 	bltid	r18, 76		// 9000b054
9000b00c:	f8a10044 	swi	r5, r1, 68
9000b010:	64630403 	bslli	r3, r3, 3
9000b014:	10be0000 	addk	r5, r30, r0
9000b018:	10df0000 	addk	r6, r31, r0
9000b01c:	b0009001 	imm	-28671
9000b020:	e8e334c0 	lwi	r7, r3, 13504
9000b024:	b0009001 	imm	-28671
9000b028:	e90334c4 	lwi	r8, r3, 13508
9000b02c:	10800000 	addk	r4, r0, r0
9000b030:	b9f4740c 	brlid	r15, 29708	// 9001243c <__ltdf2>
9000b034:	f8810044 	swi	r4, r1, 68
9000b038:	bea30020 	bgeid	r3, 32		// 9000b058
9000b03c:	1473c000 	rsubk	r3, r19, r24
9000b040:	e8a10048 	lwi	r5, r1, 72
9000b044:	10600000 	addk	r3, r0, r0
9000b048:	f8610044 	swi	r3, r1, 68
9000b04c:	30a5ffff 	addik	r5, r5, -1
9000b050:	f8a10048 	swi	r5, r1, 72
9000b054:	1473c000 	rsubk	r3, r19, r24
9000b058:	30e3ffff 	addik	r7, r3, -1
9000b05c:	be470c04 	bltid	r7, 3076		// 9000bc60
9000b060:	10800000 	addk	r4, r0, r0
9000b064:	f8e1003c 	swi	r7, r1, 60
9000b068:	f8810058 	swi	r4, r1, 88
9000b06c:	e8610048 	lwi	r3, r1, 72
9000b070:	be430bcc 	bltid	r3, 3020		// 9000bc3c
9000b074:	e881003c 	lwi	r4, r1, 60
9000b078:	10a00000 	addk	r5, r0, r0
9000b07c:	f8610038 	swi	r3, r1, 56
9000b080:	10841800 	addk	r4, r4, r3
9000b084:	f881003c 	swi	r4, r1, 60
9000b088:	f8a10054 	swi	r5, r1, 84
9000b08c:	e8810098 	lwi	r4, r1, 152
9000b090:	22400009 	addi	r18, r0, 9
9000b094:	16449003 	cmpu	r18, r4, r18
9000b098:	beb204e8 	bgeid	r18, 1256		// 9000b580
9000b09c:	10a00000 	addk	r5, r0, r0
9000b0a0:	f8a10098 	swi	r5, r1, 152
9000b0a4:	32600001 	addik	r19, r0, 1
9000b0a8:	10800000 	addk	r4, r0, r0
9000b0ac:	12e40000 	addk	r23, r4, r0
9000b0b0:	30a0ffff 	addik	r5, r0, -1
9000b0b4:	30600001 	addik	r3, r0, 1
9000b0b8:	f881009c 	swi	r4, r1, 156
9000b0bc:	f8a1004c 	swi	r5, r1, 76
9000b0c0:	f8a10050 	swi	r5, r1, 80
9000b0c4:	f8610040 	swi	r3, r1, 64
9000b0c8:	eadd0024 	lwi	r22, r29, 36
9000b0cc:	f8160004 	swi	r0, r22, 4
9000b0d0:	10bd0000 	addk	r5, r29, r0
9000b0d4:	b9f42d7c 	brlid	r15, 11644	// 9000de50 <_Balloc>
9000b0d8:	e8d60004 	lwi	r6, r22, 4
9000b0dc:	e89d0024 	lwi	r4, r29, 36
9000b0e0:	f8760000 	swi	r3, r22, 0
9000b0e4:	e8840000 	lwi	r4, r4, 0
9000b0e8:	be1302b4 	beqid	r19, 692		// 9000b39c
9000b0ec:	f881002c 	swi	r4, r1, 44
9000b0f0:	be1702b0 	beqid	r23, 688		// 9000b3a0
9000b0f4:	e8610020 	lwi	r3, r1, 32
9000b0f8:	e8610048 	lwi	r3, r1, 72
9000b0fc:	be6309d0 	bleid	r3, 2512		// 9000bacc
9000b100:	10830000 	addk	r4, r3, r0
9000b104:	a463000f 	andi	r3, r3, 15
9000b108:	64630403 	bslli	r3, r3, 3
9000b10c:	66640204 	bsrai	r19, r4, 4
9000b110:	b0009001 	imm	-28671
9000b114:	eb0334c0 	lwi	r24, r3, 13504
9000b118:	b0009001 	imm	-28671
9000b11c:	eb2334c4 	lwi	r25, r3, 13508
9000b120:	a4930010 	andi	r4, r19, 16
9000b124:	be040038 	beqid	r4, 56		// 9000b15c
9000b128:	33800002 	addik	r28, r0, 2
9000b12c:	10df0000 	addk	r6, r31, r0
9000b130:	b0009001 	imm	-28671
9000b134:	e8e035a8 	lwi	r7, r0, 13736
9000b138:	b0009001 	imm	-28671
9000b13c:	e90035ac 	lwi	r8, r0, 13740
9000b140:	10be0000 	addk	r5, r30, r0
9000b144:	a673000f 	andi	r19, r19, 15
9000b148:	b9f46dd8 	brlid	r15, 28120	// 90011f20 <__divdf3>
9000b14c:	33800003 	addik	r28, r0, 3
9000b150:	10c30000 	addk	r6, r3, r0
9000b154:	13640000 	addk	r27, r4, r0
9000b158:	13460000 	addk	r26, r6, r0
9000b15c:	be13004c 	beqid	r19, 76		// 9000b1a8
9000b160:	10db0000 	addk	r6, r27, r0
9000b164:	12c00000 	addk	r22, r0, r0
9000b168:	a4730001 	andi	r3, r19, 1
9000b16c:	be03002c 	beqid	r3, 44		// 9000b198
9000b170:	10b80000 	addk	r5, r24, r0
9000b174:	10d90000 	addk	r6, r25, r0
9000b178:	b0009001 	imm	-28671
9000b17c:	e8f63588 	lwi	r7, r22, 13704
9000b180:	b0009001 	imm	-28671
9000b184:	e916358c 	lwi	r8, r22, 13708
9000b188:	b9f46994 	brlid	r15, 27028	// 90011b1c <__muldf3>
9000b18c:	339c0001 	addik	r28, r28, 1
9000b190:	13030000 	addk	r24, r3, r0
9000b194:	13240000 	addk	r25, r4, r0
9000b198:	92730001 	sra	r19, r19
9000b19c:	be33ffcc 	bneid	r19, -52		// 9000b168
9000b1a0:	32d60008 	addik	r22, r22, 8
9000b1a4:	10db0000 	addk	r6, r27, r0
9000b1a8:	10ba0000 	addk	r5, r26, r0
9000b1ac:	10f80000 	addk	r7, r24, r0
9000b1b0:	b9f46d70 	brlid	r15, 28016	// 90011f20 <__divdf3>
9000b1b4:	11190000 	addk	r8, r25, r0
9000b1b8:	10c30000 	addk	r6, r3, r0
9000b1bc:	13640000 	addk	r27, r4, r0
9000b1c0:	13460000 	addk	r26, r6, r0
9000b1c4:	e8610044 	lwi	r3, r1, 68
9000b1c8:	be030024 	beqid	r3, 36		// 9000b1ec
9000b1cc:	10ba0000 	addk	r5, r26, r0
9000b1d0:	b0003ff0 	imm	16368
9000b1d4:	30e00000 	addik	r7, r0, 0
9000b1d8:	31000000 	addik	r8, r0, 0
9000b1dc:	b9f47260 	brlid	r15, 29280	// 9001243c <__ltdf2>
9000b1e0:	10db0000 	addk	r6, r27, r0
9000b1e4:	be431140 	bltid	r3, 4416		// 9000c324
9000b1e8:	e8810050 	lwi	r4, r1, 80
9000b1ec:	b9f47304 	brlid	r15, 29444	// 900124f0 <__floatsidf>
9000b1f0:	10bc0000 	addk	r5, r28, r0
9000b1f4:	11030000 	addk	r8, r3, r0
9000b1f8:	10c40000 	addk	r6, r4, r0
9000b1fc:	10fa0000 	addk	r7, r26, r0
9000b200:	10a80000 	addk	r5, r8, r0
9000b204:	b9f46918 	brlid	r15, 26904	// 90011b1c <__muldf3>
9000b208:	111b0000 	addk	r8, r27, r0
9000b20c:	11030000 	addk	r8, r3, r0
9000b210:	10a80000 	addk	r5, r8, r0
9000b214:	b000401c 	imm	16412
9000b218:	30e00000 	addik	r7, r0, 0
9000b21c:	31000000 	addik	r8, r0, 0
9000b220:	b9f46870 	brlid	r15, 26736	// 90011a90 <__adddf3>
9000b224:	10c40000 	addk	r6, r4, r0
9000b228:	10c30000 	addk	r6, r3, r0
9000b22c:	e8a10050 	lwi	r5, r1, 80
9000b230:	b000fcc0 	imm	-832
9000b234:	31460000 	addik	r10, r6, 0
9000b238:	be250b08 	bneid	r5, 2824		// 9000bd40
9000b23c:	11640000 	addk	r11, r4, r0
9000b240:	b0004014 	imm	16404
9000b244:	30e00000 	addik	r7, r0, 0
9000b248:	31000000 	addik	r8, r0, 0
9000b24c:	10ba0000 	addk	r5, r26, r0
9000b250:	10db0000 	addk	r6, r27, r0
9000b254:	12ca0000 	addk	r22, r10, r0
9000b258:	b9f467a0 	brlid	r15, 26528	// 900119f8 <__subdf3>
9000b25c:	12e40000 	addk	r23, r4, r0
9000b260:	13030000 	addk	r24, r3, r0
9000b264:	10f60000 	addk	r7, r22, r0
9000b268:	11170000 	addk	r8, r23, r0
9000b26c:	10b80000 	addk	r5, r24, r0
9000b270:	10c40000 	addk	r6, r4, r0
9000b274:	b9f47060 	brlid	r15, 28768	// 900122d4 <__gtdf2>
9000b278:	13240000 	addk	r25, r4, r0
9000b27c:	be830e34 	bgtid	r3, 3636		// 9000c0b0
9000b280:	10d90000 	addk	r6, r25, r0
9000b284:	b0008000 	imm	-32768
9000b288:	31560000 	addik	r10, r22, 0
9000b28c:	10b80000 	addk	r5, r24, r0
9000b290:	10ea0000 	addk	r7, r10, r0
9000b294:	b9f471a8 	brlid	r15, 29096	// 9001243c <__ltdf2>
9000b298:	11170000 	addk	r8, r23, r0
9000b29c:	bea300fc 	bgeid	r3, 252		// 9000b398
9000b2a0:	135e0000 	addk	r26, r30, r0
9000b2a4:	13c00000 	addk	r30, r0, r0
9000b2a8:	133e0000 	addk	r25, r30, r0
9000b2ac:	e881009c 	lwi	r4, r1, 156
9000b2b0:	eb81002c 	lwi	r28, r1, 44
9000b2b4:	13e00000 	addk	r31, r0, r0
9000b2b8:	a884ffff 	xori	r4, r4, -1
9000b2bc:	b8100780 	brid	1920		// 9000ba3c
9000b2c0:	f8810048 	swi	r4, r1, 72
9000b2c4:	e88100a0 	lwi	r4, r1, 160
9000b2c8:	3060270f 	addik	r3, r0, 9999
9000b2cc:	be1b0044 	beqid	r27, 68		// 9000b310
9000b2d0:	f8640000 	swi	r3, r4, 0
9000b2d4:	b0009001 	imm	-28671
9000b2d8:	308033f4 	addik	r4, r0, 13300
9000b2dc:	e8a100a8 	lwi	r5, r1, 168
9000b2e0:	be05fbc4 	beqid	r5, -1084		// 9000aea4
9000b2e4:	10640000 	addk	r3, r4, r0
9000b2e8:	e0640003 	lbui	r3, r4, 3
9000b2ec:	be230040 	bneid	r3, 64		// 9000b32c
9000b2f0:	30a40003 	addik	r5, r4, 3
9000b2f4:	e86100a8 	lwi	r3, r1, 168
9000b2f8:	b810fba8 	brid	-1112		// 9000aea0
9000b2fc:	f8a30000 	swi	r5, r3, 0
9000b300:	b0007fff 	imm	32767
9000b304:	a75affff 	andi	r26, r26, -1
9000b308:	b810fb38 	brid	-1224		// 9000ae40
9000b30c:	f8770000 	swi	r3, r23, 0
9000b310:	b000000f 	imm	15
9000b314:	a47affff 	andi	r3, r26, -1
9000b318:	b0009001 	imm	-28671
9000b31c:	308033e8 	addik	r4, r0, 13288
9000b320:	be03ffc0 	beqid	r3, -64		// 9000b2e0
9000b324:	e8a100a8 	lwi	r5, r1, 168
9000b328:	b800ffac 	bri	-84		// 9000b2d4
9000b32c:	e86100a8 	lwi	r3, r1, 168
9000b330:	30a40008 	addik	r5, r4, 8
9000b334:	b810fb6c 	brid	-1172		// 9000aea0
9000b338:	f8a30000 	swi	r5, r3, 0
9000b33c:	e8610020 	lwi	r3, r1, 32
9000b340:	30980432 	addik	r4, r24, 1074
9000b344:	12c41800 	addk	r22, r4, r3
9000b348:	32400020 	addik	r18, r0, 32	// 20 <_vector_hw_exception>
9000b34c:	16569001 	cmp	r18, r22, r18
9000b350:	beb205b4 	bgeid	r18, 1460		// 9000b904
9000b354:	34760020 	rsubik	r3, r22, 32
9000b358:	34760040 	rsubik	r3, r22, 64
9000b35c:	447a1c00 	bsll	r3, r26, r3
9000b360:	449bb000 	bsrl	r4, r27, r22
9000b364:	82632000 	or	r19, r3, r4
9000b368:	b9f47188 	brlid	r15, 29064	// 900124f0 <__floatsidf>
9000b36c:	10b30000 	addk	r5, r19, r0
9000b370:	10a40000 	addk	r5, r4, r0
9000b374:	be530be4 	bltid	r19, 3044		// 9000bf58
9000b378:	10830000 	addk	r4, r3, r0
9000b37c:	30600001 	addik	r3, r0, 1
9000b380:	3276fbcd 	addik	r19, r22, -1075
9000b384:	b000fe10 	imm	-496
9000b388:	30840000 	addik	r4, r4, 0
9000b38c:	b810fb9c 	brid	-1124		// 9000af28
9000b390:	f8610034 	swi	r3, r1, 52
9000b394:	135e0000 	addk	r26, r30, r0
9000b398:	137f0000 	addk	r27, r31, r0
9000b39c:	e8610020 	lwi	r3, r1, 32
9000b3a0:	be430220 	bltid	r3, 544		// 9000b5c0
9000b3a4:	e8810048 	lwi	r4, r1, 72
9000b3a8:	3240000e 	addik	r18, r0, 14
9000b3ac:	16449001 	cmp	r18, r4, r18
9000b3b0:	be520210 	bltid	r18, 528		// 9000b5c0
9000b3b4:	e8a1009c 	lwi	r5, r1, 156
9000b3b8:	64640403 	bslli	r3, r4, 3
9000b3bc:	b0009001 	imm	-28671
9000b3c0:	eb0334c0 	lwi	r24, r3, 13504
9000b3c4:	b0009001 	imm	-28671
9000b3c8:	eb2334c4 	lwi	r25, r3, 13508
9000b3cc:	be450ca4 	bltid	r5, 3236		// 9000c070
9000b3d0:	e8610050 	lwi	r3, r1, 80
9000b3d4:	eb81002c 	lwi	r28, r1, 44
9000b3d8:	e8810050 	lwi	r4, r1, 80
9000b3dc:	12da0000 	addk	r22, r26, r0
9000b3e0:	12fb0000 	addk	r23, r27, r0
9000b3e4:	b810003c 	brid	60		// 9000b420
9000b3e8:	13dc2000 	addk	r30, r28, r4
9000b3ec:	b0004024 	imm	16420
9000b3f0:	30e00000 	addik	r7, r0, 0
9000b3f4:	31000000 	addik	r8, r0, 0
9000b3f8:	b9f46724 	brlid	r15, 26404	// 90011b1c <__muldf3>
9000b3fc:	10a40000 	addk	r5, r4, r0
9000b400:	12c30000 	addk	r22, r3, r0
9000b404:	10c40000 	addk	r6, r4, r0
9000b408:	12e40000 	addk	r23, r4, r0
9000b40c:	10e00000 	addk	r7, r0, r0
9000b410:	11000000 	addk	r8, r0, r0
9000b414:	b9f46e0c 	brlid	r15, 28172	// 90012220 <__nedf2>
9000b418:	10b60000 	addk	r5, r22, r0
9000b41c:	bc030130 	beqi	r3, 304		// 9000b54c
9000b420:	10f80000 	addk	r7, r24, r0
9000b424:	11190000 	addk	r8, r25, r0
9000b428:	10b60000 	addk	r5, r22, r0
9000b42c:	b9f46af4 	brlid	r15, 27380	// 90011f20 <__divdf3>
9000b430:	10d70000 	addk	r6, r23, r0
9000b434:	11030000 	addk	r8, r3, r0
9000b438:	10c40000 	addk	r6, r4, r0
9000b43c:	b9f471cc 	brlid	r15, 29132	// 90012608 <__fixdfsi>
9000b440:	10a80000 	addk	r5, r8, r0
9000b444:	10a30000 	addk	r5, r3, r0
9000b448:	b9f470a8 	brlid	r15, 28840	// 900124f0 <__floatsidf>
9000b44c:	12630000 	addk	r19, r3, r0
9000b450:	11430000 	addk	r10, r3, r0
9000b454:	10b80000 	addk	r5, r24, r0
9000b458:	10d90000 	addk	r6, r25, r0
9000b45c:	10ea0000 	addk	r7, r10, r0
9000b460:	b9f466bc 	brlid	r15, 26300	// 90011b1c <__muldf3>
9000b464:	11040000 	addk	r8, r4, r0
9000b468:	11430000 	addk	r10, r3, r0
9000b46c:	10b60000 	addk	r5, r22, r0
9000b470:	10d70000 	addk	r6, r23, r0
9000b474:	10ea0000 	addk	r7, r10, r0
9000b478:	b9f46580 	brlid	r15, 25984	// 900119f8 <__subdf3>
9000b47c:	11040000 	addk	r8, r4, r0
9000b480:	10a40000 	addk	r5, r4, r0
9000b484:	10830000 	addk	r4, r3, r0
9000b488:	30730030 	addik	r3, r19, 48
9000b48c:	f07c0000 	sbi	r3, r28, 0
9000b490:	339c0001 	addik	r28, r28, 1
9000b494:	165ee000 	rsubk	r18, r30, r28
9000b498:	be32ff54 	bneid	r18, -172		// 9000b3ec
9000b49c:	10c50000 	addk	r6, r5, r0
9000b4a0:	10e40000 	addk	r7, r4, r0
9000b4a4:	10a40000 	addk	r5, r4, r0
9000b4a8:	b9f465e8 	brlid	r15, 26088	// 90011a90 <__adddf3>
9000b4ac:	11060000 	addk	r8, r6, r0
9000b4b0:	12c30000 	addk	r22, r3, r0
9000b4b4:	10b80000 	addk	r5, r24, r0
9000b4b8:	10d90000 	addk	r6, r25, r0
9000b4bc:	10f60000 	addk	r7, r22, r0
9000b4c0:	11040000 	addk	r8, r4, r0
9000b4c4:	b9f46f78 	brlid	r15, 28536	// 9001243c <__ltdf2>
9000b4c8:	12e40000 	addk	r23, r4, r0
9000b4cc:	be430030 	bltid	r3, 48		// 9000b4fc
9000b4d0:	e8610048 	lwi	r3, r1, 72
9000b4d4:	10b80000 	addk	r5, r24, r0
9000b4d8:	10d90000 	addk	r6, r25, r0
9000b4dc:	10f60000 	addk	r7, r22, r0
9000b4e0:	b9f46c8c 	brlid	r15, 27788	// 9001216c <__eqdf2>
9000b4e4:	11170000 	addk	r8, r23, r0
9000b4e8:	be230068 	bneid	r3, 104		// 9000b550
9000b4ec:	10bd0000 	addk	r5, r29, r0
9000b4f0:	a4730001 	andi	r3, r19, 1
9000b4f4:	be03005c 	beqid	r3, 92		// 9000b550
9000b4f8:	e8610048 	lwi	r3, r1, 72
9000b4fc:	f8610024 	swi	r3, r1, 36
9000b500:	109c0000 	addk	r4, r28, r0
9000b504:	3084ffff 	addik	r4, r4, -1
9000b508:	e0640000 	lbui	r3, r4, 0
9000b50c:	aa430039 	xori	r18, r3, 57
9000b510:	be320028 	bneid	r18, 40		// 9000b538
9000b514:	e8a1002c 	lwi	r5, r1, 44
9000b518:	16442800 	rsubk	r18, r4, r5
9000b51c:	be32ffe8 	bneid	r18, -24		// 9000b504
9000b520:	30600030 	addik	r3, r0, 48
9000b524:	f0650000 	sbi	r3, r5, 0
9000b528:	e8a10024 	lwi	r5, r1, 36
9000b52c:	e0640000 	lbui	r3, r4, 0
9000b530:	30a50001 	addik	r5, r5, 1
9000b534:	f8a10024 	swi	r5, r1, 36
9000b538:	e8a10024 	lwi	r5, r1, 36
9000b53c:	30630001 	addik	r3, r3, 1
9000b540:	33840001 	addik	r28, r4, 1
9000b544:	f8a10048 	swi	r5, r1, 72
9000b548:	f0640000 	sbi	r3, r4, 0
9000b54c:	10bd0000 	addk	r5, r29, r0
9000b550:	b9f4287c 	brlid	r15, 10364	// 9000ddcc <_Bfree>
9000b554:	e8c10030 	lwi	r6, r1, 48
9000b558:	f01c0000 	sbi	r0, r28, 0
9000b55c:	e8810048 	lwi	r4, r1, 72
9000b560:	e8a100a0 	lwi	r5, r1, 160
9000b564:	30640001 	addik	r3, r4, 1
9000b568:	f8650000 	swi	r3, r5, 0
9000b56c:	e86100a8 	lwi	r3, r1, 168
9000b570:	be03f930 	beqid	r3, -1744		// 9000aea0
9000b574:	e881002c 	lwi	r4, r1, 44
9000b578:	b810f928 	brid	-1752		// 9000aea0
9000b57c:	fb830000 	swi	r28, r3, 0
9000b580:	32400005 	addik	r18, r0, 5
9000b584:	16449001 	cmp	r18, r4, r18
9000b588:	beb20014 	bgeid	r18, 20		// 9000b59c
9000b58c:	30c00001 	addik	r6, r0, 1
9000b590:	3064fffc 	addik	r3, r4, -4
9000b594:	f8610098 	swi	r3, r1, 152
9000b598:	10c00000 	addk	r6, r0, r0
9000b59c:	e8810098 	lwi	r4, r1, 152
9000b5a0:	22400005 	addi	r18, r0, 5
9000b5a4:	16449003 	cmpu	r18, r4, r18
9000b5a8:	be5202f8 	bltid	r18, 760		// 9000b8a0
9000b5ac:	30a00001 	addik	r5, r0, 1
9000b5b0:	64640402 	bslli	r3, r4, 2
9000b5b4:	b0009001 	imm	-28671
9000b5b8:	e88333fc 	lwi	r4, r3, 13308
9000b5bc:	98082000 	bra	r4
9000b5c0:	e8810040 	lwi	r4, r1, 64
9000b5c4:	be240348 	bneid	r4, 840		// 9000b90c
9000b5c8:	e8a10098 	lwi	r5, r1, 152
9000b5cc:	ea610058 	lwi	r19, r1, 88
9000b5d0:	eac10054 	lwi	r22, r1, 84
9000b5d4:	13c40000 	addk	r30, r4, r0
9000b5d8:	be730038 	bleid	r19, 56		// 9000b610
9000b5dc:	e8a1003c 	lwi	r5, r1, 60
9000b5e0:	be650034 	bleid	r5, 52		// 9000b614
9000b5e4:	e8610054 	lwi	r3, r1, 84
9000b5e8:	16532801 	cmp	r18, r19, r5
9000b5ec:	be5204ac 	bltid	r18, 1196		// 9000ba98
9000b5f0:	10730000 	addk	r3, r19, r0
9000b5f4:	e881003c 	lwi	r4, r1, 60
9000b5f8:	e8a10058 	lwi	r5, r1, 88
9000b5fc:	16639800 	rsubk	r19, r3, r19
9000b600:	14832000 	rsubk	r4, r3, r4
9000b604:	14a32800 	rsubk	r5, r3, r5
9000b608:	f881003c 	swi	r4, r1, 60
9000b60c:	f8a10058 	swi	r5, r1, 88
9000b610:	e8610054 	lwi	r3, r1, 84
9000b614:	be630058 	bleid	r3, 88		// 9000b66c
9000b618:	e8810040 	lwi	r4, r1, 64
9000b61c:	be040710 	beqid	r4, 1808		// 9000bd2c
9000b620:	e8c10030 	lwi	r6, r1, 48
9000b624:	be760038 	bleid	r22, 56		// 9000b65c
9000b628:	10de0000 	addk	r6, r30, r0
9000b62c:	10bd0000 	addk	r5, r29, r0
9000b630:	b9f43eac 	brlid	r15, 16044	// 9000f4dc <_pow5mult>
9000b634:	10f60000 	addk	r7, r22, r0
9000b638:	10c30000 	addk	r6, r3, r0
9000b63c:	10bd0000 	addk	r5, r29, r0
9000b640:	e8e10030 	lwi	r7, r1, 48
9000b644:	b9f438d0 	brlid	r15, 14544	// 9000ef14 <_multiply>
9000b648:	13c30000 	addk	r30, r3, r0
9000b64c:	e8c10030 	lwi	r6, r1, 48
9000b650:	10bd0000 	addk	r5, r29, r0
9000b654:	b9f42778 	brlid	r15, 10104	// 9000ddcc <_Bfree>
9000b658:	f8610030 	swi	r3, r1, 48
9000b65c:	e8a10054 	lwi	r5, r1, 84
9000b660:	14f62800 	rsubk	r7, r22, r5
9000b664:	be270458 	bneid	r7, 1112		// 9000babc
9000b668:	e8c10030 	lwi	r6, r1, 48
9000b66c:	10bd0000 	addk	r5, r29, r0
9000b670:	b9f43b78 	brlid	r15, 15224	// 9000f1e8 <_i2b>
9000b674:	30c00001 	addik	r6, r0, 1
9000b678:	13230000 	addk	r25, r3, r0
9000b67c:	e8610038 	lwi	r3, r1, 56
9000b680:	be630018 	bleid	r3, 24		// 9000b698
9000b684:	10d90000 	addk	r6, r25, r0
9000b688:	10bd0000 	addk	r5, r29, r0
9000b68c:	b9f43e50 	brlid	r15, 15952	// 9000f4dc <_pow5mult>
9000b690:	10e30000 	addk	r7, r3, r0
9000b694:	13230000 	addk	r25, r3, r0
9000b698:	e8810098 	lwi	r4, r1, 152
9000b69c:	32400001 	addik	r18, r0, 1
9000b6a0:	16449001 	cmp	r18, r4, r18
9000b6a4:	beb20938 	bgeid	r18, 2360		// 9000bfdc
9000b6a8:	12c00000 	addk	r22, r0, r0
9000b6ac:	e8810038 	lwi	r4, r1, 56
9000b6b0:	be240660 	bneid	r4, 1632		// 9000bd10
9000b6b4:	30600001 	addik	r3, r0, 1
9000b6b8:	e8a1003c 	lwi	r5, r1, 60
9000b6bc:	10651800 	addk	r3, r5, r3
9000b6c0:	a463001f 	andi	r3, r3, 31
9000b6c4:	be03002c 	beqid	r3, 44		// 9000b6f0
9000b6c8:	3080001c 	addik	r4, r0, 28
9000b6cc:	34630020 	rsubik	r3, r3, 32
9000b6d0:	32400004 	addik	r18, r0, 4
9000b6d4:	16439001 	cmp	r18, r3, r18
9000b6d8:	be5203c8 	bltid	r18, 968		// 9000baa0
9000b6dc:	e8810058 	lwi	r4, r1, 88
9000b6e0:	32400003 	addik	r18, r0, 3
9000b6e4:	16439001 	cmp	r18, r3, r18
9000b6e8:	bc520024 	blti	r18, 36		// 9000b70c
9000b6ec:	3083001c 	addik	r4, r3, 28
9000b6f0:	e8610058 	lwi	r3, r1, 88
9000b6f4:	10a52000 	addk	r5, r5, r4
9000b6f8:	f8a1003c 	swi	r5, r1, 60
9000b6fc:	10632000 	addk	r3, r3, r4
9000b700:	f8610058 	swi	r3, r1, 88
9000b704:	12732000 	addk	r19, r19, r4
9000b708:	e8810058 	lwi	r4, r1, 88
9000b70c:	be640018 	bleid	r4, 24		// 9000b724
9000b710:	e8c10030 	lwi	r6, r1, 48
9000b714:	10e40000 	addk	r7, r4, r0
9000b718:	b9f435a8 	brlid	r15, 13736	// 9000ecc0 <_lshift>
9000b71c:	10bd0000 	addk	r5, r29, r0
9000b720:	f8610030 	swi	r3, r1, 48
9000b724:	e8a1003c 	lwi	r5, r1, 60
9000b728:	be650018 	bleid	r5, 24		// 9000b740
9000b72c:	10d90000 	addk	r6, r25, r0
9000b730:	10e50000 	addk	r7, r5, r0
9000b734:	b9f4358c 	brlid	r15, 13708	// 9000ecc0 <_lshift>
9000b738:	10bd0000 	addk	r5, r29, r0
9000b73c:	13230000 	addk	r25, r3, r0
9000b740:	e8610044 	lwi	r3, r1, 68
9000b744:	be230564 	bneid	r3, 1380		// 9000bca8
9000b748:	e8a10030 	lwi	r5, r1, 48
9000b74c:	e8a10050 	lwi	r5, r1, 80
9000b750:	be65082c 	bleid	r5, 2092		// 9000bf7c
9000b754:	e8610098 	lwi	r3, r1, 152
9000b758:	e8a10040 	lwi	r5, r1, 64
9000b75c:	be05022c 	beqid	r5, 556		// 9000b988
9000b760:	eb01002c 	lwi	r24, r1, 44
9000b764:	be730018 	bleid	r19, 24		// 9000b77c
9000b768:	10de0000 	addk	r6, r30, r0
9000b76c:	10f30000 	addk	r7, r19, r0
9000b770:	b9f43550 	brlid	r15, 13648	// 9000ecc0 <_lshift>
9000b774:	10bd0000 	addk	r5, r29, r0
9000b778:	13c30000 	addk	r30, r3, r0
9000b77c:	be360940 	bneid	r22, 2368		// 9000c0bc
9000b780:	107e0000 	addk	r3, r30, r0
9000b784:	13fe0000 	addk	r31, r30, r0
9000b788:	eb01002c 	lwi	r24, r1, 44
9000b78c:	13c30000 	addk	r30, r3, r0
9000b790:	a77b0001 	andi	r27, r27, 1
9000b794:	e8a10030 	lwi	r5, r1, 48
9000b798:	10d90000 	addk	r6, r25, r0
9000b79c:	b9f4f3a8 	brlid	r15, -3160	// 9000ab44 <quorem>
9000b7a0:	33400001 	addik	r26, r0, 1
9000b7a4:	e8a10030 	lwi	r5, r1, 48
9000b7a8:	10df0000 	addk	r6, r31, r0
9000b7ac:	b9f424a8 	brlid	r15, 9384	// 9000dc54 <__mcmp>
9000b7b0:	32e30030 	addik	r23, r3, 48
9000b7b4:	10fe0000 	addk	r7, r30, r0
9000b7b8:	10bd0000 	addk	r5, r29, r0
9000b7bc:	10d90000 	addk	r6, r25, r0
9000b7c0:	b9f42fe4 	brlid	r15, 12260	// 9000e7a4 <__mdiff>
9000b7c4:	12c30000 	addk	r22, r3, r0
9000b7c8:	12630000 	addk	r19, r3, r0
9000b7cc:	e863000c 	lwi	r3, r3, 12
9000b7d0:	be03043c 	beqid	r3, 1084		// 9000bc0c
9000b7d4:	e8a10030 	lwi	r5, r1, 48
9000b7d8:	10d30000 	addk	r6, r19, r0
9000b7dc:	b9f425f0 	brlid	r15, 9712	// 9000ddcc <_Bfree>
9000b7e0:	10bd0000 	addk	r5, r29, r0
9000b7e4:	e8810098 	lwi	r4, r1, 152
9000b7e8:	807a2000 	or	r3, r26, r4
9000b7ec:	bc230008 	bnei	r3, 8		// 9000b7f4
9000b7f0:	bc1b0b10 	beqi	r27, 2832		// 9000c300
9000b7f4:	be560838 	bltid	r22, 2104		// 9000c02c
9000b7f8:	e8a10098 	lwi	r5, r1, 152
9000b7fc:	80762800 	or	r3, r22, r5
9000b800:	bc230008 	bnei	r3, 8		// 9000b808
9000b804:	bc1b0828 	beqi	r27, 2088		// 9000c02c
9000b808:	bc9a0abc 	bgti	r26, 2748		// 9000c2c4
9000b80c:	f2f80000 	sbi	r23, r24, 0
9000b810:	e881002c 	lwi	r4, r1, 44
9000b814:	e8a10050 	lwi	r5, r1, 80
9000b818:	33180001 	addik	r24, r24, 1
9000b81c:	10642800 	addk	r3, r4, r5
9000b820:	1643c000 	rsubk	r18, r3, r24
9000b824:	be1201b4 	beqid	r18, 436		// 9000b9d8
9000b828:	e8c10030 	lwi	r6, r1, 48
9000b82c:	10bd0000 	addk	r5, r29, r0
9000b830:	30e0000a 	addik	r7, r0, 10
9000b834:	b9f43288 	brlid	r15, 12936	// 9000eabc <_multadd>
9000b838:	11000000 	addk	r8, r0, r0
9000b83c:	165ef800 	rsubk	r18, r30, r31
9000b840:	be1203dc 	beqid	r18, 988		// 9000bc1c
9000b844:	f8610030 	swi	r3, r1, 48
9000b848:	10df0000 	addk	r6, r31, r0
9000b84c:	10bd0000 	addk	r5, r29, r0
9000b850:	30e0000a 	addik	r7, r0, 10
9000b854:	b9f43268 	brlid	r15, 12904	// 9000eabc <_multadd>
9000b858:	11000000 	addk	r8, r0, r0
9000b85c:	10de0000 	addk	r6, r30, r0
9000b860:	10bd0000 	addk	r5, r29, r0
9000b864:	30e0000a 	addik	r7, r0, 10
9000b868:	11000000 	addk	r8, r0, r0
9000b86c:	b9f43250 	brlid	r15, 12880	// 9000eabc <_multadd>
9000b870:	13e30000 	addk	r31, r3, r0
9000b874:	b810ff20 	brid	-224		// 9000b794
9000b878:	13c30000 	addk	r30, r3, r0
9000b87c:	b9f4b940 	brlid	r15, -18112	// 900071bc <malloc>
9000b880:	30a00010 	addik	r5, r0, 16	// 10 <_vector_interrupt>
9000b884:	12c30000 	addk	r22, r3, r0
9000b888:	fa63000c 	swi	r19, r3, 12
9000b88c:	f87d0024 	swi	r3, r29, 36
9000b890:	fa630004 	swi	r19, r3, 4
9000b894:	fa630008 	swi	r19, r3, 8
9000b898:	b810f568 	brid	-2712		// 9000ae00
9000b89c:	fa630000 	swi	r19, r3, 0
9000b8a0:	3080ffff 	addik	r4, r0, -1
9000b8a4:	f881004c 	swi	r4, r1, 76
9000b8a8:	f8810050 	swi	r4, r1, 80
9000b8ac:	f8a10040 	swi	r5, r1, 64
9000b8b0:	eadd0024 	lwi	r22, r29, 36
9000b8b4:	22400017 	addi	r18, r0, 23
9000b8b8:	16539003 	cmpu	r18, r19, r18
9000b8bc:	beb201c0 	bgeid	r18, 448		// 9000ba7c
9000b8c0:	f8160004 	swi	r0, r22, 4
9000b8c4:	e8b60004 	lwi	r5, r22, 4
9000b8c8:	30800004 	addik	r4, r0, 4
9000b8cc:	10842000 	addk	r4, r4, r4
9000b8d0:	30640014 	addik	r3, r4, 20
9000b8d4:	16439803 	cmpu	r18, r3, r19
9000b8d8:	beb2fff4 	bgeid	r18, -12		// 9000b8cc
9000b8dc:	30a50001 	addik	r5, r5, 1
9000b8e0:	f8b60004 	swi	r5, r22, 4
9000b8e4:	e8a10050 	lwi	r5, r1, 80
9000b8e8:	2240000e 	addi	r18, r0, 14
9000b8ec:	16459003 	cmpu	r18, r5, r18
9000b8f0:	beb201a0 	bgeid	r18, 416		// 9000ba90
9000b8f4:	10600000 	addk	r3, r0, r0
9000b8f8:	8e660400 	pcmpne	r19, r6, r0
9000b8fc:	b810f7d4 	brid	-2092		// 9000b0d0
9000b900:	a6e300ff 	andi	r23, r3, 255
9000b904:	b810fa64 	brid	-1436		// 9000b368
9000b908:	467b1c00 	bsll	r19, r27, r3
9000b90c:	32400001 	addik	r18, r0, 1
9000b910:	16459001 	cmp	r18, r5, r18
9000b914:	beb20250 	bgeid	r18, 592		// 9000bb64
9000b918:	e8a10050 	lwi	r5, r1, 80
9000b91c:	e8810054 	lwi	r4, r1, 84
9000b920:	3065ffff 	addik	r3, r5, -1
9000b924:	16432001 	cmp	r18, r3, r4
9000b928:	beb20024 	bgeid	r18, 36		// 9000b94c
9000b92c:	16c32000 	rsubk	r22, r3, r4
9000b930:	e8a10038 	lwi	r5, r1, 56
9000b934:	14641800 	rsubk	r3, r4, r3
9000b938:	10841800 	addk	r4, r4, r3
9000b93c:	10a51800 	addk	r5, r5, r3
9000b940:	f8810054 	swi	r4, r1, 84
9000b944:	f8a10038 	swi	r5, r1, 56
9000b948:	12c00000 	addk	r22, r0, r0
9000b94c:	e8610050 	lwi	r3, r1, 80
9000b950:	be43098c 	bltid	r3, 2444		// 9000c2dc
9000b954:	e8810058 	lwi	r4, r1, 88
9000b958:	ea610058 	lwi	r19, r1, 88
9000b95c:	e881003c 	lwi	r4, r1, 60
9000b960:	10bd0000 	addk	r5, r29, r0
9000b964:	30c00001 	addik	r6, r0, 1
9000b968:	10841800 	addk	r4, r4, r3
9000b96c:	f881003c 	swi	r4, r1, 60
9000b970:	e8810058 	lwi	r4, r1, 88
9000b974:	10841800 	addk	r4, r4, r3
9000b978:	b9f43870 	brlid	r15, 14448	// 9000f1e8 <_i2b>
9000b97c:	f8810058 	swi	r4, r1, 88
9000b980:	b810fc58 	brid	-936		// 9000b5d8
9000b984:	13c30000 	addk	r30, r3, r0
9000b988:	e8a10030 	lwi	r5, r1, 48
9000b98c:	b8100028 	brid	40		// 9000b9b4
9000b990:	32600001 	addik	r19, r0, 1
9000b994:	10bd0000 	addk	r5, r29, r0
9000b998:	e8c10030 	lwi	r6, r1, 48
9000b99c:	30e0000a 	addik	r7, r0, 10
9000b9a0:	b9f4311c 	brlid	r15, 12572	// 9000eabc <_multadd>
9000b9a4:	11000000 	addk	r8, r0, r0
9000b9a8:	10a30000 	addk	r5, r3, r0
9000b9ac:	f8610030 	swi	r3, r1, 48
9000b9b0:	32730001 	addik	r19, r19, 1
9000b9b4:	b9f4f190 	brlid	r15, -3696	// 9000ab44 <quorem>
9000b9b8:	10d90000 	addk	r6, r25, r0
9000b9bc:	32e30030 	addik	r23, r3, 48
9000b9c0:	f2f80000 	sbi	r23, r24, 0
9000b9c4:	e8610050 	lwi	r3, r1, 80
9000b9c8:	16439801 	cmp	r18, r3, r19
9000b9cc:	be52ffc8 	bltid	r18, -56		// 9000b994
9000b9d0:	33180001 	addik	r24, r24, 1
9000b9d4:	13e00000 	addk	r31, r0, r0
9000b9d8:	e8c10030 	lwi	r6, r1, 48
9000b9dc:	10bd0000 	addk	r5, r29, r0
9000b9e0:	b9f432e0 	brlid	r15, 13024	// 9000ecc0 <_lshift>
9000b9e4:	30e00001 	addik	r7, r0, 1
9000b9e8:	10a30000 	addk	r5, r3, r0
9000b9ec:	10d90000 	addk	r6, r25, r0
9000b9f0:	b9f42264 	brlid	r15, 8804	// 9000dc54 <__mcmp>
9000b9f4:	f8610030 	swi	r3, r1, 48
9000b9f8:	bc6308a0 	blei	r3, 2208		// 9000c298
9000b9fc:	10980000 	addk	r4, r24, r0
9000ba00:	3084ffff 	addik	r4, r4, -1
9000ba04:	e0640000 	lbui	r3, r4, 0
9000ba08:	90630060 	sext8	r3, r3
9000ba0c:	aa430039 	xori	r18, r3, 57
9000ba10:	be32060c 	bneid	r18, 1548		// 9000c01c
9000ba14:	e8a1002c 	lwi	r5, r1, 44
9000ba18:	16452000 	rsubk	r18, r5, r4
9000ba1c:	be32ffe8 	bneid	r18, -24		// 9000ba04
9000ba20:	3084ffff 	addik	r4, r4, -1
9000ba24:	e8610048 	lwi	r3, r1, 72
9000ba28:	30800031 	addik	r4, r0, 49
9000ba2c:	33850001 	addik	r28, r5, 1
9000ba30:	30630001 	addik	r3, r3, 1
9000ba34:	f8610048 	swi	r3, r1, 72
9000ba38:	f0850000 	sbi	r4, r5, 0
9000ba3c:	10d90000 	addk	r6, r25, r0
9000ba40:	b9f4238c 	brlid	r15, 9100	// 9000ddcc <_Bfree>
9000ba44:	10bd0000 	addk	r5, r29, r0
9000ba48:	bc1efb04 	beqi	r30, -1276		// 9000b54c
9000ba4c:	be1f0020 	beqid	r31, 32		// 9000ba6c
9000ba50:	10de0000 	addk	r6, r30, r0
9000ba54:	165ef800 	rsubk	r18, r30, r31
9000ba58:	be120010 	beqid	r18, 16		// 9000ba68
9000ba5c:	10df0000 	addk	r6, r31, r0
9000ba60:	b9f4236c 	brlid	r15, 9068	// 9000ddcc <_Bfree>
9000ba64:	10bd0000 	addk	r5, r29, r0
9000ba68:	10de0000 	addk	r6, r30, r0
9000ba6c:	b9f42360 	brlid	r15, 9056	// 9000ddcc <_Bfree>
9000ba70:	10bd0000 	addk	r5, r29, r0
9000ba74:	b810fadc 	brid	-1316		// 9000b550
9000ba78:	10bd0000 	addk	r5, r29, r0
9000ba7c:	e8810050 	lwi	r4, r1, 80
9000ba80:	2240000e 	addi	r18, r0, 14
9000ba84:	16449003 	cmpu	r18, r4, r18
9000ba88:	be52fe70 	bltid	r18, -400		// 9000b8f8
9000ba8c:	10600000 	addk	r3, r0, r0
9000ba90:	b810fe68 	brid	-408		// 9000b8f8
9000ba94:	30600001 	addik	r3, r0, 1
9000ba98:	b810fb5c 	brid	-1188		// 9000b5f4
9000ba9c:	10650000 	addk	r3, r5, r0
9000baa0:	3063fffc 	addik	r3, r3, -4
9000baa4:	10a51800 	addk	r5, r5, r3
9000baa8:	10841800 	addk	r4, r4, r3
9000baac:	12731800 	addk	r19, r19, r3
9000bab0:	f8a1003c 	swi	r5, r1, 60
9000bab4:	b810fc54 	brid	-940		// 9000b708
9000bab8:	f8810058 	swi	r4, r1, 88
9000babc:	b9f43a20 	brlid	r15, 14880	// 9000f4dc <_pow5mult>
9000bac0:	10bd0000 	addk	r5, r29, r0
9000bac4:	b810fba8 	brid	-1112		// 9000b66c
9000bac8:	f8610030 	swi	r3, r1, 48
9000bacc:	14830000 	rsubk	r4, r3, r0
9000bad0:	be04f6f4 	beqid	r4, -2316		// 9000b1c4
9000bad4:	33800002 	addik	r28, r0, 2
9000bad8:	a464000f 	andi	r3, r4, 15
9000badc:	64630403 	bslli	r3, r3, 3
9000bae0:	10be0000 	addk	r5, r30, r0
9000bae4:	b0009001 	imm	-28671
9000bae8:	e8e334c0 	lwi	r7, r3, 13504
9000baec:	b0009001 	imm	-28671
9000baf0:	e90334c4 	lwi	r8, r3, 13508
9000baf4:	10df0000 	addk	r6, r31, r0
9000baf8:	b9f46024 	brlid	r15, 24612	// 90011b1c <__muldf3>
9000bafc:	66640204 	bsrai	r19, r4, 4
9000bb00:	10a40000 	addk	r5, r4, r0
9000bb04:	13430000 	addk	r26, r3, r0
9000bb08:	10830000 	addk	r4, r3, r0
9000bb0c:	be1307ec 	beqid	r19, 2028		// 9000c2f8
9000bb10:	13650000 	addk	r27, r5, r0
9000bb14:	33800002 	addik	r28, r0, 2
9000bb18:	12c00000 	addk	r22, r0, r0
9000bb1c:	a4730001 	andi	r3, r19, 1
9000bb20:	be03002c 	beqid	r3, 44		// 9000bb4c
9000bb24:	10c50000 	addk	r6, r5, r0
9000bb28:	b0009001 	imm	-28671
9000bb2c:	e8f63588 	lwi	r7, r22, 13704
9000bb30:	b0009001 	imm	-28671
9000bb34:	e916358c 	lwi	r8, r22, 13708
9000bb38:	10a40000 	addk	r5, r4, r0
9000bb3c:	b9f45fe0 	brlid	r15, 24544	// 90011b1c <__muldf3>
9000bb40:	339c0001 	addik	r28, r28, 1
9000bb44:	10a40000 	addk	r5, r4, r0
9000bb48:	10830000 	addk	r4, r3, r0
9000bb4c:	92730001 	sra	r19, r19
9000bb50:	be33ffcc 	bneid	r19, -52		// 9000bb1c
9000bb54:	32d60008 	addik	r22, r22, 8
9000bb58:	13440000 	addk	r26, r4, r0
9000bb5c:	b810f668 	brid	-2456		// 9000b1c4
9000bb60:	13650000 	addk	r27, r5, r0
9000bb64:	e8810034 	lwi	r4, r1, 52
9000bb68:	bc040854 	beqi	r4, 2132		// 9000c3bc
9000bb6c:	ea610058 	lwi	r19, r1, 88
9000bb70:	eac10054 	lwi	r22, r1, 84
9000bb74:	b810fde8 	brid	-536		// 9000b95c
9000bb78:	30630433 	addik	r3, r3, 1075
9000bb7c:	10800000 	addk	r4, r0, r0
9000bb80:	f8810040 	swi	r4, r1, 64
9000bb84:	e8a1009c 	lwi	r5, r1, 156
9000bb88:	be650848 	bleid	r5, 2120		// 9000c3d0
9000bb8c:	30800001 	addik	r4, r0, 1
9000bb90:	12650000 	addk	r19, r5, r0
9000bb94:	f8a1004c 	swi	r5, r1, 76
9000bb98:	b810fd18 	brid	-744		// 9000b8b0
9000bb9c:	f8a10050 	swi	r5, r1, 80
9000bba0:	b810f508 	brid	-2808		// 9000b0a8
9000bba4:	8e660400 	pcmpne	r19, r6, r0
9000bba8:	30600001 	addik	r3, r0, 1
9000bbac:	b810ffd8 	brid	-40		// 9000bb84
9000bbb0:	f8610040 	swi	r3, r1, 64
9000bbb4:	30a00001 	addik	r5, r0, 1
9000bbb8:	f8a10040 	swi	r5, r1, 64
9000bbbc:	e881009c 	lwi	r4, r1, 156
9000bbc0:	e8a10048 	lwi	r5, r1, 72
9000bbc4:	30640001 	addik	r3, r4, 1
9000bbc8:	12651800 	addk	r19, r5, r3
9000bbcc:	3073ffff 	addik	r3, r19, -1
9000bbd0:	f861004c 	swi	r3, r1, 76
9000bbd4:	be93fcdc 	bgtid	r19, -804		// 9000b8b0
9000bbd8:	fa610050 	swi	r19, r1, 80
9000bbdc:	2240000e 	addi	r18, r0, 14
9000bbe0:	16539003 	cmpu	r18, r19, r18
9000bbe4:	be520010 	bltid	r18, 16		// 9000bbf4
9000bbe8:	10600000 	addk	r3, r0, r0
9000bbec:	30600001 	addik	r3, r0, 1
9000bbf0:	fa610050 	swi	r19, r1, 80
9000bbf4:	a6e300ff 	andi	r23, r3, 255
9000bbf8:	b810f4d0 	brid	-2864		// 9000b0c8
9000bbfc:	8e660400 	pcmpne	r19, r6, r0
9000bc00:	10600000 	addk	r3, r0, r0
9000bc04:	b810ffb8 	brid	-72		// 9000bbbc
9000bc08:	f8610040 	swi	r3, r1, 64
9000bc0c:	b9f42048 	brlid	r15, 8264	// 9000dc54 <__mcmp>
9000bc10:	10d30000 	addk	r6, r19, r0
9000bc14:	b810fbc4 	brid	-1084		// 9000b7d8
9000bc18:	13430000 	addk	r26, r3, r0
9000bc1c:	10df0000 	addk	r6, r31, r0
9000bc20:	10bd0000 	addk	r5, r29, r0
9000bc24:	30e0000a 	addik	r7, r0, 10
9000bc28:	b9f42e94 	brlid	r15, 11924	// 9000eabc <_multadd>
9000bc2c:	11000000 	addk	r8, r0, r0
9000bc30:	13c30000 	addk	r30, r3, r0
9000bc34:	b810fb60 	brid	-1184		// 9000b794
9000bc38:	13e30000 	addk	r31, r3, r0
9000bc3c:	10830000 	addk	r4, r3, r0
9000bc40:	e8610058 	lwi	r3, r1, 88
9000bc44:	14a40000 	rsubk	r5, r4, r0
9000bc48:	14641800 	rsubk	r3, r4, r3
9000bc4c:	f8610058 	swi	r3, r1, 88
9000bc50:	10600000 	addk	r3, r0, r0
9000bc54:	f8a10054 	swi	r5, r1, 84
9000bc58:	b810f434 	brid	-3020		// 9000b08c
9000bc5c:	f8610038 	swi	r3, r1, 56
9000bc60:	14e70000 	rsubk	r7, r7, r0
9000bc64:	10a00000 	addk	r5, r0, r0
9000bc68:	f8e10058 	swi	r7, r1, 88
9000bc6c:	b810f400 	brid	-3072		// 9000b06c
9000bc70:	f8a1003c 	swi	r5, r1, 60
9000bc74:	b9f4687c 	brlid	r15, 26748	// 900124f0 <__floatsidf>
9000bc78:	e8a10048 	lwi	r5, r1, 72
9000bc7c:	11430000 	addk	r10, r3, r0
9000bc80:	11040000 	addk	r8, r4, r0
9000bc84:	10b60000 	addk	r5, r22, r0
9000bc88:	10d70000 	addk	r6, r23, r0
9000bc8c:	b9f46594 	brlid	r15, 26004	// 90012220 <__nedf2>
9000bc90:	10ea0000 	addk	r7, r10, r0
9000bc94:	e8810048 	lwi	r4, r1, 72
9000bc98:	8c630400 	pcmpne	r3, r3, r0
9000bc9c:	14832000 	rsubk	r4, r3, r4
9000bca0:	b810f358 	brid	-3240		// 9000aff8
9000bca4:	f8810048 	swi	r4, r1, 72
9000bca8:	b9f41fac 	brlid	r15, 8108	// 9000dc54 <__mcmp>
9000bcac:	10d90000 	addk	r6, r25, r0
9000bcb0:	bea3faa0 	bgeid	r3, -1376		// 9000b750
9000bcb4:	e8a10050 	lwi	r5, r1, 80
9000bcb8:	10bd0000 	addk	r5, r29, r0
9000bcbc:	e8c10030 	lwi	r6, r1, 48
9000bcc0:	30e0000a 	addik	r7, r0, 10
9000bcc4:	b9f42df8 	brlid	r15, 11768	// 9000eabc <_multadd>
9000bcc8:	11000000 	addk	r8, r0, r0
9000bccc:	e8810048 	lwi	r4, r1, 72
9000bcd0:	f8610030 	swi	r3, r1, 48
9000bcd4:	e8a1004c 	lwi	r5, r1, 76
9000bcd8:	e8610040 	lwi	r3, r1, 64
9000bcdc:	3084ffff 	addik	r4, r4, -1
9000bce0:	f8810048 	swi	r4, r1, 72
9000bce4:	be03fa68 	beqid	r3, -1432		// 9000b74c
9000bce8:	f8a10050 	swi	r5, r1, 80
9000bcec:	10de0000 	addk	r6, r30, r0
9000bcf0:	10bd0000 	addk	r5, r29, r0
9000bcf4:	30e0000a 	addik	r7, r0, 10
9000bcf8:	b9f42dc4 	brlid	r15, 11716	// 9000eabc <_multadd>
9000bcfc:	11000000 	addk	r8, r0, r0
9000bd00:	13c30000 	addk	r30, r3, r0
9000bd04:	e881004c 	lwi	r4, r1, 76
9000bd08:	b810fa44 	brid	-1468		// 9000b74c
9000bd0c:	f8810050 	swi	r4, r1, 80
9000bd10:	e8790010 	lwi	r3, r25, 16
9000bd14:	64630402 	bslli	r3, r3, 2
9000bd18:	1063c800 	addk	r3, r3, r25
9000bd1c:	b9f41dc4 	brlid	r15, 7620	// 9000dae0 <_hi0bits>
9000bd20:	e8a30010 	lwi	r5, r3, 16
9000bd24:	b810f994 	brid	-1644		// 9000b6b8
9000bd28:	34630020 	rsubik	r3, r3, 32
9000bd2c:	e8e10054 	lwi	r7, r1, 84
9000bd30:	b9f437ac 	brlid	r15, 14252	// 9000f4dc <_pow5mult>
9000bd34:	10bd0000 	addk	r5, r29, r0
9000bd38:	b810f934 	brid	-1740		// 9000b66c
9000bd3c:	f8610030 	swi	r3, r1, 48
9000bd40:	e8810048 	lwi	r4, r1, 72
9000bd44:	f8a10028 	swi	r5, r1, 40
9000bd48:	f8810024 	swi	r4, r1, 36
9000bd4c:	e8a10040 	lwi	r5, r1, 64
9000bd50:	be0503ac 	beqid	r5, 940		// 9000c0fc
9000bd54:	e8810028 	lwi	r4, r1, 40
9000bd58:	b0003fe0 	imm	16352
9000bd5c:	30a00000 	addik	r5, r0, 0
9000bd60:	30c00000 	addik	r6, r0, 0
9000bd64:	12ca0000 	addk	r22, r10, r0
9000bd68:	64640403 	bslli	r3, r4, 3
9000bd6c:	b0009001 	imm	-28671
9000bd70:	308034c0 	addik	r4, r0, 13504
9000bd74:	12eb0000 	addk	r23, r11, r0
9000bd78:	131a0000 	addk	r24, r26, r0
9000bd7c:	10632000 	addk	r3, r3, r4
9000bd80:	e8e3fff8 	lwi	r7, r3, -8
9000bd84:	e903fffc 	lwi	r8, r3, -4
9000bd88:	b9f46198 	brlid	r15, 24984	// 90011f20 <__divdf3>
9000bd8c:	133b0000 	addk	r25, r27, r0
9000bd90:	11030000 	addk	r8, r3, r0
9000bd94:	10f60000 	addk	r7, r22, r0
9000bd98:	10c40000 	addk	r6, r4, r0
9000bd9c:	10a80000 	addk	r5, r8, r0
9000bda0:	b9f45c58 	brlid	r15, 23640	// 900119f8 <__subdf3>
9000bda4:	11170000 	addk	r8, r23, r0
9000bda8:	10d90000 	addk	r6, r25, r0
9000bdac:	10b80000 	addk	r5, r24, r0
9000bdb0:	13640000 	addk	r27, r4, r0
9000bdb4:	b9f46854 	brlid	r15, 26708	// 90012608 <__fixdfsi>
9000bdb8:	13430000 	addk	r26, r3, r0
9000bdbc:	10a30000 	addk	r5, r3, r0
9000bdc0:	12c30000 	addk	r22, r3, r0
9000bdc4:	e861002c 	lwi	r3, r1, 44
9000bdc8:	32d60030 	addik	r22, r22, 48
9000bdcc:	b9f46724 	brlid	r15, 26404	// 900124f0 <__floatsidf>
9000bdd0:	33830001 	addik	r28, r3, 1
9000bdd4:	11430000 	addk	r10, r3, r0
9000bdd8:	10b80000 	addk	r5, r24, r0
9000bddc:	10d90000 	addk	r6, r25, r0
9000bde0:	10ea0000 	addk	r7, r10, r0
9000bde4:	b9f45c14 	brlid	r15, 23572	// 900119f8 <__subdf3>
9000bde8:	11040000 	addk	r8, r4, r0
9000bdec:	13240000 	addk	r25, r4, r0
9000bdf0:	13030000 	addk	r24, r3, r0
9000bdf4:	e881002c 	lwi	r4, r1, 44
9000bdf8:	10ba0000 	addk	r5, r26, r0
9000bdfc:	10db0000 	addk	r6, r27, r0
9000be00:	10f80000 	addk	r7, r24, r0
9000be04:	11190000 	addk	r8, r25, r0
9000be08:	b9f464cc 	brlid	r15, 25804	// 900122d4 <__gtdf2>
9000be0c:	f2c40000 	sbi	r22, r4, 0
9000be10:	be83013c 	bgtid	r3, 316		// 9000bf4c
9000be14:	10f80000 	addk	r7, r24, r0
9000be18:	b0003ff0 	imm	16368
9000be1c:	30a00000 	addik	r5, r0, 0
9000be20:	30c00000 	addik	r6, r0, 0
9000be24:	b9f45bd4 	brlid	r15, 23508	// 900119f8 <__subdf3>
9000be28:	11190000 	addk	r8, r25, r0
9000be2c:	11430000 	addk	r10, r3, r0
9000be30:	10ba0000 	addk	r5, r26, r0
9000be34:	10db0000 	addk	r6, r27, r0
9000be38:	10ea0000 	addk	r7, r10, r0
9000be3c:	b9f46498 	brlid	r15, 25752	// 900122d4 <__gtdf2>
9000be40:	11040000 	addk	r8, r4, r0
9000be44:	be83f6c0 	bgtid	r3, -2368		// 9000b504
9000be48:	109c0000 	addk	r4, r28, r0
9000be4c:	e8a10028 	lwi	r5, r1, 40
9000be50:	32400001 	addik	r18, r0, 1
9000be54:	16459001 	cmp	r18, r5, r18
9000be58:	be520058 	bltid	r18, 88		// 9000beb0
9000be5c:	10ba0000 	addk	r5, r26, r0
9000be60:	b810f538 	brid	-2760		// 9000b398
9000be64:	135e0000 	addk	r26, r30, r0
9000be68:	b0003ff0 	imm	16368
9000be6c:	30a00000 	addik	r5, r0, 0
9000be70:	30c00000 	addik	r6, r0, 0
9000be74:	b9f45b84 	brlid	r15, 23428	// 900119f8 <__subdf3>
9000be78:	11190000 	addk	r8, r25, r0
9000be7c:	11030000 	addk	r8, r3, r0
9000be80:	10c40000 	addk	r6, r4, r0
9000be84:	10fa0000 	addk	r7, r26, r0
9000be88:	10a80000 	addk	r5, r8, r0
9000be8c:	b9f465b0 	brlid	r15, 26032	// 9001243c <__ltdf2>
9000be90:	111b0000 	addk	r8, r27, r0
9000be94:	be43f66c 	bltid	r3, -2452		// 9000b500
9000be98:	e881002c 	lwi	r4, r1, 44
9000be9c:	e8a10028 	lwi	r5, r1, 40
9000bea0:	10642800 	addk	r3, r4, r5
9000bea4:	1643e000 	rsubk	r18, r3, r28
9000bea8:	be12f4ec 	beqid	r18, -2836		// 9000b394
9000beac:	10ba0000 	addk	r5, r26, r0
9000beb0:	b0004024 	imm	16420
9000beb4:	30e00000 	addik	r7, r0, 0
9000beb8:	31000000 	addik	r8, r0, 0
9000bebc:	b9f45c60 	brlid	r15, 23648	// 90011b1c <__muldf3>
9000bec0:	10db0000 	addk	r6, r27, r0
9000bec4:	b0004024 	imm	16420
9000bec8:	30e00000 	addik	r7, r0, 0
9000becc:	31000000 	addik	r8, r0, 0
9000bed0:	10b80000 	addk	r5, r24, r0
9000bed4:	10d90000 	addk	r6, r25, r0
9000bed8:	13430000 	addk	r26, r3, r0
9000bedc:	b9f45c40 	brlid	r15, 23616	// 90011b1c <__muldf3>
9000bee0:	13640000 	addk	r27, r4, r0
9000bee4:	13030000 	addk	r24, r3, r0
9000bee8:	10c40000 	addk	r6, r4, r0
9000beec:	13240000 	addk	r25, r4, r0
9000bef0:	b9f46718 	brlid	r15, 26392	// 90012608 <__fixdfsi>
9000bef4:	10b80000 	addk	r5, r24, r0
9000bef8:	10a30000 	addk	r5, r3, r0
9000befc:	b9f465f4 	brlid	r15, 26100	// 900124f0 <__floatsidf>
9000bf00:	12c30000 	addk	r22, r3, r0
9000bf04:	11430000 	addk	r10, r3, r0
9000bf08:	10b80000 	addk	r5, r24, r0
9000bf0c:	10d90000 	addk	r6, r25, r0
9000bf10:	10ea0000 	addk	r7, r10, r0
9000bf14:	11040000 	addk	r8, r4, r0
9000bf18:	b9f45ae0 	brlid	r15, 23264	// 900119f8 <__subdf3>
9000bf1c:	32d60030 	addik	r22, r22, 48
9000bf20:	13030000 	addk	r24, r3, r0
9000bf24:	10c40000 	addk	r6, r4, r0
9000bf28:	10fa0000 	addk	r7, r26, r0
9000bf2c:	10b80000 	addk	r5, r24, r0
9000bf30:	111b0000 	addk	r8, r27, r0
9000bf34:	f2dc0000 	sbi	r22, r28, 0
9000bf38:	13240000 	addk	r25, r4, r0
9000bf3c:	b9f46500 	brlid	r15, 25856	// 9001243c <__ltdf2>
9000bf40:	339c0001 	addik	r28, r28, 1
9000bf44:	bea3ff24 	bgeid	r3, -220		// 9000be68
9000bf48:	10f80000 	addk	r7, r24, r0
9000bf4c:	e8a10024 	lwi	r5, r1, 36
9000bf50:	b810f5fc 	brid	-2564		// 9000b54c
9000bf54:	f8a10048 	swi	r5, r1, 72
9000bf58:	10c50000 	addk	r6, r5, r0
9000bf5c:	b00041f0 	imm	16880
9000bf60:	30e00000 	addik	r7, r0, 0
9000bf64:	31000000 	addik	r8, r0, 0
9000bf68:	b9f45b28 	brlid	r15, 23336	// 90011a90 <__adddf3>
9000bf6c:	10a30000 	addk	r5, r3, r0
9000bf70:	10a40000 	addk	r5, r4, r0
9000bf74:	b810f408 	brid	-3064		// 9000b37c
9000bf78:	10830000 	addk	r4, r3, r0
9000bf7c:	32400002 	addik	r18, r0, 2
9000bf80:	16439001 	cmp	r18, r3, r18
9000bf84:	bcb2f7d4 	bgei	r18, -2092		// 9000b758
9000bf88:	be45f324 	bltid	r5, -3292		// 9000b2ac
9000bf8c:	10d90000 	addk	r6, r25, r0
9000bf90:	10bd0000 	addk	r5, r29, r0
9000bf94:	30e00005 	addik	r7, r0, 5
9000bf98:	b9f42b24 	brlid	r15, 11044	// 9000eabc <_multadd>
9000bf9c:	11000000 	addk	r8, r0, r0
9000bfa0:	10c30000 	addk	r6, r3, r0
9000bfa4:	e8a10030 	lwi	r5, r1, 48
9000bfa8:	b9f41cac 	brlid	r15, 7340	// 9000dc54 <__mcmp>
9000bfac:	13230000 	addk	r25, r3, r0
9000bfb0:	be63f300 	bleid	r3, -3328		// 9000b2b0
9000bfb4:	e881009c 	lwi	r4, r1, 156
9000bfb8:	e8a10048 	lwi	r5, r1, 72
9000bfbc:	e861002c 	lwi	r3, r1, 44
9000bfc0:	30800031 	addik	r4, r0, 49
9000bfc4:	30a50001 	addik	r5, r5, 1
9000bfc8:	f8a10048 	swi	r5, r1, 72
9000bfcc:	33830001 	addik	r28, r3, 1
9000bfd0:	13e00000 	addk	r31, r0, r0
9000bfd4:	b810fa68 	brid	-1432		// 9000ba3c
9000bfd8:	f0830000 	sbi	r4, r3, 0
9000bfdc:	bc3bf6d0 	bnei	r27, -2352		// 9000b6ac
9000bfe0:	b000000f 	imm	15
9000bfe4:	a47affff 	andi	r3, r26, -1
9000bfe8:	be23f6c8 	bneid	r3, -2360		// 9000b6b0
9000bfec:	e8810038 	lwi	r4, r1, 56
9000bff0:	b0007ff0 	imm	32752
9000bff4:	a47a0000 	andi	r3, r26, 0
9000bff8:	be03f6b8 	beqid	r3, -2376		// 9000b6b0
9000bffc:	e8a10058 	lwi	r5, r1, 88
9000c000:	e861003c 	lwi	r3, r1, 60
9000c004:	32c00001 	addik	r22, r0, 1
9000c008:	30a50001 	addik	r5, r5, 1
9000c00c:	30630001 	addik	r3, r3, 1
9000c010:	f8a10058 	swi	r5, r1, 88
9000c014:	b810f698 	brid	-2408		// 9000b6ac
9000c018:	f861003c 	swi	r3, r1, 60
9000c01c:	30630001 	addik	r3, r3, 1
9000c020:	33840001 	addik	r28, r4, 1
9000c024:	b810fa18 	brid	-1512		// 9000ba3c
9000c028:	f0640000 	sbi	r3, r4, 0
9000c02c:	be7a0038 	bleid	r26, 56		// 9000c064
9000c030:	e8c10030 	lwi	r6, r1, 48
9000c034:	10bd0000 	addk	r5, r29, r0
9000c038:	b9f42c88 	brlid	r15, 11400	// 9000ecc0 <_lshift>
9000c03c:	30e00001 	addik	r7, r0, 1
9000c040:	10a30000 	addk	r5, r3, r0
9000c044:	10d90000 	addk	r6, r25, r0
9000c048:	b9f41c0c 	brlid	r15, 7180	// 9000dc54 <__mcmp>
9000c04c:	f8610030 	swi	r3, r1, 48
9000c050:	bc630398 	blei	r3, 920		// 9000c3e8
9000c054:	32f70001 	addik	r23, r23, 1
9000c058:	aa57003a 	xori	r18, r23, 58
9000c05c:	be120290 	beqid	r18, 656		// 9000c2ec
9000c060:	30600039 	addik	r3, r0, 57
9000c064:	33980001 	addik	r28, r24, 1
9000c068:	b810f9d4 	brid	-1580		// 9000ba3c
9000c06c:	f2f80000 	sbi	r23, r24, 0
9000c070:	be83f368 	bgtid	r3, -3224		// 9000b3d8
9000c074:	eb81002c 	lwi	r28, r1, 44
9000c078:	be43f22c 	bltid	r3, -3540		// 9000b2a4
9000c07c:	10b80000 	addk	r5, r24, r0
9000c080:	b0004014 	imm	16404
9000c084:	30e00000 	addik	r7, r0, 0
9000c088:	31000000 	addik	r8, r0, 0
9000c08c:	b9f45a90 	brlid	r15, 23184	// 90011b1c <__muldf3>
9000c090:	10d90000 	addk	r6, r25, r0
9000c094:	11030000 	addk	r8, r3, r0
9000c098:	10c40000 	addk	r6, r4, r0
9000c09c:	10fa0000 	addk	r7, r26, r0
9000c0a0:	10a80000 	addk	r5, r8, r0
9000c0a4:	b9f462e4 	brlid	r15, 25316	// 90012388 <__gedf2>
9000c0a8:	111b0000 	addk	r8, r27, r0
9000c0ac:	bca3f1f8 	bgei	r3, -3592		// 9000b2a4
9000c0b0:	13c00000 	addk	r30, r0, r0
9000c0b4:	b810ff04 	brid	-252		// 9000bfb8
9000c0b8:	133e0000 	addk	r25, r30, r0
9000c0bc:	10bd0000 	addk	r5, r29, r0
9000c0c0:	b9f41d90 	brlid	r15, 7568	// 9000de50 <_Balloc>
9000c0c4:	e8de0004 	lwi	r6, r30, 4
9000c0c8:	e8fe0010 	lwi	r7, r30, 16
9000c0cc:	12c30000 	addk	r22, r3, r0
9000c0d0:	30de000c 	addik	r6, r30, 12
9000c0d4:	64e70402 	bslli	r7, r7, 2
9000c0d8:	30a3000c 	addik	r5, r3, 12
9000c0dc:	b9f4183c 	brlid	r15, 6204	// 9000d918 <memcpy>
9000c0e0:	30e70008 	addik	r7, r7, 8
9000c0e4:	10bd0000 	addk	r5, r29, r0
9000c0e8:	10d60000 	addk	r6, r22, r0
9000c0ec:	b9f42bd4 	brlid	r15, 11220	// 9000ecc0 <_lshift>
9000c0f0:	30e00001 	addik	r7, r0, 1
9000c0f4:	b810f694 	brid	-2412		// 9000b788
9000c0f8:	13fe0000 	addk	r31, r30, r0
9000c0fc:	10aa0000 	addk	r5, r10, r0
9000c100:	10cb0000 	addk	r6, r11, r0
9000c104:	64640403 	bslli	r3, r4, 3
9000c108:	b0009001 	imm	-28671
9000c10c:	308034c0 	addik	r4, r0, 13504
9000c110:	131a0000 	addk	r24, r26, r0
9000c114:	133b0000 	addk	r25, r27, r0
9000c118:	10632000 	addk	r3, r3, r4
9000c11c:	e8e3fff8 	lwi	r7, r3, -8
9000c120:	e903fffc 	lwi	r8, r3, -4
9000c124:	b9f459f8 	brlid	r15, 23032	// 90011b1c <__muldf3>
9000c128:	32600001 	addik	r19, r0, 1
9000c12c:	10d90000 	addk	r6, r25, r0
9000c130:	10b80000 	addk	r5, r24, r0
9000c134:	13640000 	addk	r27, r4, r0
9000c138:	b9f464d0 	brlid	r15, 25808	// 90012608 <__fixdfsi>
9000c13c:	13430000 	addk	r26, r3, r0
9000c140:	10a30000 	addk	r5, r3, r0
9000c144:	12c30000 	addk	r22, r3, r0
9000c148:	e861002c 	lwi	r3, r1, 44
9000c14c:	32d60030 	addik	r22, r22, 48
9000c150:	b9f463a0 	brlid	r15, 25504	// 900124f0 <__floatsidf>
9000c154:	33830001 	addik	r28, r3, 1
9000c158:	11430000 	addk	r10, r3, r0
9000c15c:	10b80000 	addk	r5, r24, r0
9000c160:	10d90000 	addk	r6, r25, r0
9000c164:	10ea0000 	addk	r7, r10, r0
9000c168:	b9f45890 	brlid	r15, 22672	// 900119f8 <__subdf3>
9000c16c:	11040000 	addk	r8, r4, r0
9000c170:	13240000 	addk	r25, r4, r0
9000c174:	e881002c 	lwi	r4, r1, 44
9000c178:	f2c40000 	sbi	r22, r4, 0
9000c17c:	e8a10028 	lwi	r5, r1, 40
9000c180:	aa450001 	xori	r18, r5, 1
9000c184:	be120084 	beqid	r18, 132		// 9000c208
9000c188:	13030000 	addk	r24, r3, r0
9000c18c:	b0004024 	imm	16420
9000c190:	30e00000 	addik	r7, r0, 0
9000c194:	31000000 	addik	r8, r0, 0
9000c198:	10b80000 	addk	r5, r24, r0
9000c19c:	b9f45980 	brlid	r15, 22912	// 90011b1c <__muldf3>
9000c1a0:	10d90000 	addk	r6, r25, r0
9000c1a4:	13030000 	addk	r24, r3, r0
9000c1a8:	10c40000 	addk	r6, r4, r0
9000c1ac:	13240000 	addk	r25, r4, r0
9000c1b0:	b9f46458 	brlid	r15, 25688	// 90012608 <__fixdfsi>
9000c1b4:	10b80000 	addk	r5, r24, r0
9000c1b8:	10a30000 	addk	r5, r3, r0
9000c1bc:	b9f46334 	brlid	r15, 25396	// 900124f0 <__floatsidf>
9000c1c0:	12c30000 	addk	r22, r3, r0
9000c1c4:	11430000 	addk	r10, r3, r0
9000c1c8:	10b80000 	addk	r5, r24, r0
9000c1cc:	10d90000 	addk	r6, r25, r0
9000c1d0:	10ea0000 	addk	r7, r10, r0
9000c1d4:	11040000 	addk	r8, r4, r0
9000c1d8:	b9f45820 	brlid	r15, 22560	// 900119f8 <__subdf3>
9000c1dc:	32d60030 	addik	r22, r22, 48
9000c1e0:	13240000 	addk	r25, r4, r0
9000c1e4:	e881002c 	lwi	r4, r1, 44
9000c1e8:	d2c49800 	sb	r22, r4, r19
9000c1ec:	e8a10028 	lwi	r5, r1, 40
9000c1f0:	32730001 	addik	r19, r19, 1
9000c1f4:	16459800 	rsubk	r18, r5, r19
9000c1f8:	be32ff94 	bneid	r18, -108		// 9000c18c
9000c1fc:	13030000 	addk	r24, r3, r0
9000c200:	107c9800 	addk	r3, r28, r19
9000c204:	3383ffff 	addik	r28, r3, -1
9000c208:	b0003fe0 	imm	16352
9000c20c:	30e00000 	addik	r7, r0, 0
9000c210:	31000000 	addik	r8, r0, 0
9000c214:	10ba0000 	addk	r5, r26, r0
9000c218:	b9f45878 	brlid	r15, 22648	// 90011a90 <__adddf3>
9000c21c:	10db0000 	addk	r6, r27, r0
9000c220:	11030000 	addk	r8, r3, r0
9000c224:	10c40000 	addk	r6, r4, r0
9000c228:	10f80000 	addk	r7, r24, r0
9000c22c:	10a80000 	addk	r5, r8, r0
9000c230:	b9f4620c 	brlid	r15, 25100	// 9001243c <__ltdf2>
9000c234:	11190000 	addk	r8, r25, r0
9000c238:	be43f2cc 	bltid	r3, -3380		// 9000b504
9000c23c:	109c0000 	addk	r4, r28, r0
9000c240:	b0003fe0 	imm	16352
9000c244:	30a00000 	addik	r5, r0, 0
9000c248:	30c00000 	addik	r6, r0, 0
9000c24c:	10fa0000 	addk	r7, r26, r0
9000c250:	b9f457a8 	brlid	r15, 22440	// 900119f8 <__subdf3>
9000c254:	111b0000 	addk	r8, r27, r0
9000c258:	11030000 	addk	r8, r3, r0
9000c25c:	10c40000 	addk	r6, r4, r0
9000c260:	10f80000 	addk	r7, r24, r0
9000c264:	10a80000 	addk	r5, r8, r0
9000c268:	b9f4606c 	brlid	r15, 24684	// 900122d4 <__gtdf2>
9000c26c:	11190000 	addk	r8, r25, r0
9000c270:	be63f128 	bleid	r3, -3800		// 9000b398
9000c274:	135e0000 	addk	r26, r30, r0
9000c278:	339cffff 	addik	r28, r28, -1
9000c27c:	e07c0000 	lbui	r3, r28, 0
9000c280:	aa430030 	xori	r18, r3, 48
9000c284:	be12fff4 	beqid	r18, -12		// 9000c278
9000c288:	e8610024 	lwi	r3, r1, 36
9000c28c:	339c0001 	addik	r28, r28, 1
9000c290:	b810f2bc 	brid	-3396		// 9000b54c
9000c294:	f8610048 	swi	r3, r1, 72
9000c298:	be230010 	bneid	r3, 16		// 9000c2a8
9000c29c:	a4770001 	andi	r3, r23, 1
9000c2a0:	be23f760 	bneid	r3, -2208		// 9000ba00
9000c2a4:	10980000 	addk	r4, r24, r0
9000c2a8:	3318ffff 	addik	r24, r24, -1
9000c2ac:	e0780000 	lbui	r3, r24, 0
9000c2b0:	aa430030 	xori	r18, r3, 48
9000c2b4:	be12fff4 	beqid	r18, -12		// 9000c2a8
9000c2b8:	33980001 	addik	r28, r24, 1
9000c2bc:	b810f784 	brid	-2172		// 9000ba40
9000c2c0:	10d90000 	addk	r6, r25, r0
9000c2c4:	aa570039 	xori	r18, r23, 57
9000c2c8:	be120020 	beqid	r18, 32		// 9000c2e8
9000c2cc:	30770001 	addik	r3, r23, 1
9000c2d0:	33980001 	addik	r28, r24, 1
9000c2d4:	b810f768 	brid	-2200		// 9000ba3c
9000c2d8:	f0780000 	sbi	r3, r24, 0
9000c2dc:	16632000 	rsubk	r19, r3, r4
9000c2e0:	b810f67c 	brid	-2436		// 9000b95c
9000c2e4:	10600000 	addk	r3, r0, r0
9000c2e8:	30600039 	addik	r3, r0, 57
9000c2ec:	f0780000 	sbi	r3, r24, 0
9000c2f0:	b810f70c 	brid	-2292		// 9000b9fc
9000c2f4:	33180001 	addik	r24, r24, 1
9000c2f8:	b810eecc 	brid	-4404		// 9000b1c4
9000c2fc:	33800002 	addik	r28, r0, 2
9000c300:	aa570039 	xori	r18, r23, 57
9000c304:	be12ffe4 	beqid	r18, -28		// 9000c2e8
9000c308:	6476021f 	bsrai	r3, r22, 31
9000c30c:	33980001 	addik	r28, r24, 1
9000c310:	14761800 	rsubk	r3, r22, r3
9000c314:	6463001f 	bsrli	r3, r3, 31
9000c318:	12f71800 	addk	r23, r23, r3
9000c31c:	b810f720 	brid	-2272		// 9000ba3c
9000c320:	f2f80000 	sbi	r23, r24, 0
9000c324:	be64eec8 	bleid	r4, -4408		// 9000b1ec
9000c328:	e8a1004c 	lwi	r5, r1, 76
9000c32c:	be65f068 	bleid	r5, -3992		// 9000b394
9000c330:	10db0000 	addk	r6, r27, r0
9000c334:	b0004024 	imm	16420
9000c338:	30e00000 	addik	r7, r0, 0
9000c33c:	31000000 	addik	r8, r0, 0
9000c340:	10650000 	addk	r3, r5, r0
9000c344:	10ba0000 	addk	r5, r26, r0
9000c348:	b9f457d4 	brlid	r15, 22484	// 90011b1c <__muldf3>
9000c34c:	f8610028 	swi	r3, r1, 40
9000c350:	30bc0001 	addik	r5, r28, 1
9000c354:	12c30000 	addk	r22, r3, r0
9000c358:	b9f46198 	brlid	r15, 24984	// 900124f0 <__floatsidf>
9000c35c:	12e40000 	addk	r23, r4, r0
9000c360:	11430000 	addk	r10, r3, r0
9000c364:	10b60000 	addk	r5, r22, r0
9000c368:	10d70000 	addk	r6, r23, r0
9000c36c:	10ea0000 	addk	r7, r10, r0
9000c370:	11040000 	addk	r8, r4, r0
9000c374:	13560000 	addk	r26, r22, r0
9000c378:	b9f457a4 	brlid	r15, 22436	// 90011b1c <__muldf3>
9000c37c:	13770000 	addk	r27, r23, r0
9000c380:	11030000 	addk	r8, r3, r0
9000c384:	10c40000 	addk	r6, r4, r0
9000c388:	e8810048 	lwi	r4, r1, 72
9000c38c:	10a80000 	addk	r5, r8, r0
9000c390:	b000401c 	imm	16412
9000c394:	30e00000 	addik	r7, r0, 0
9000c398:	31000000 	addik	r8, r0, 0
9000c39c:	3084ffff 	addik	r4, r4, -1
9000c3a0:	b9f456f0 	brlid	r15, 22256	// 90011a90 <__adddf3>
9000c3a4:	f8810024 	swi	r4, r1, 36
9000c3a8:	10c30000 	addk	r6, r3, r0
9000c3ac:	b000fcc0 	imm	-832
9000c3b0:	31460000 	addik	r10, r6, 0
9000c3b4:	b810f998 	brid	-1640		// 9000bd4c
9000c3b8:	11640000 	addk	r11, r4, r0
9000c3bc:	e861001c 	lwi	r3, r1, 28
9000c3c0:	ea610058 	lwi	r19, r1, 88
9000c3c4:	eac10054 	lwi	r22, r1, 84
9000c3c8:	b810f594 	brid	-2668		// 9000b95c
9000c3cc:	34630036 	rsubik	r3, r3, 54
9000c3d0:	12e40000 	addk	r23, r4, r0
9000c3d4:	8e660400 	pcmpne	r19, r6, r0
9000c3d8:	f8810050 	swi	r4, r1, 80
9000c3dc:	f881009c 	swi	r4, r1, 156
9000c3e0:	b810ece8 	brid	-4888		// 9000b0c8
9000c3e4:	f881004c 	swi	r4, r1, 76
9000c3e8:	be23fc80 	bneid	r3, -896		// 9000c068
9000c3ec:	33980001 	addik	r28, r24, 1
9000c3f0:	a4770001 	andi	r3, r23, 1
9000c3f4:	bc03fc74 	beqi	r3, -908		// 9000c068
9000c3f8:	b810fc60 	brid	-928		// 9000c058
9000c3fc:	32f70001 	addik	r23, r23, 1

9000c400 <fflush>:
9000c400:	3021ffd8 	addik	r1, r1, -40
9000c404:	fac10020 	swi	r22, r1, 32
9000c408:	f9e10000 	swi	r15, r1, 0
9000c40c:	fa61001c 	swi	r19, r1, 28
9000c410:	fae10024 	swi	r23, r1, 36
9000c414:	be050120 	beqid	r5, 288		// 9000c534
9000c418:	12c50000 	addk	r22, r5, r0
9000c41c:	b0009001 	imm	-28671
9000c420:	e8a037a4 	lwi	r5, r0, 14244
9000c424:	bc05000c 	beqi	r5, 12		// 9000c430
9000c428:	e8650018 	lwi	r3, r5, 24
9000c42c:	bc0300c4 	beqi	r3, 196		// 9000c4f0
9000c430:	b0009001 	imm	-28671
9000c434:	aa563414 	xori	r18, r22, 13332
9000c438:	bc1200cc 	beqi	r18, 204		// 9000c504
9000c43c:	b0009001 	imm	-28671
9000c440:	aa563434 	xori	r18, r22, 13364
9000c444:	bc1200e0 	beqi	r18, 224		// 9000c524
9000c448:	b0009001 	imm	-28671
9000c44c:	aa563454 	xori	r18, r22, 13396
9000c450:	bc1200c4 	beqi	r18, 196		// 9000c514
9000c454:	e476000c 	lhui	r3, r22, 12
9000c458:	90a30061 	sext16	r5, r3
9000c45c:	a4850008 	andi	r4, r5, 8
9000c460:	be040058 	beqid	r4, 88		// 9000c4b8
9000c464:	10800000 	addk	r4, r0, r0
9000c468:	eaf60010 	lwi	r23, r22, 16
9000c46c:	be170048 	beqid	r23, 72		// 9000c4b4
9000c470:	a4850003 	andi	r4, r5, 3
9000c474:	e8760000 	lwi	r3, r22, 0
9000c478:	faf60000 	swi	r23, r22, 0
9000c47c:	16771800 	rsubk	r19, r23, r3
9000c480:	be040054 	beqid	r4, 84		// 9000c4d4
9000c484:	10600000 	addk	r3, r0, r0
9000c488:	b8100024 	brid	36		// 9000c4ac
9000c48c:	f8760008 	swi	r3, r22, 8
9000c490:	10f30000 	addk	r7, r19, r0
9000c494:	e8760028 	lwi	r3, r22, 40
9000c498:	99fc1800 	brald	r15, r3
9000c49c:	e8b60020 	lwi	r5, r22, 32
9000c4a0:	12f71800 	addk	r23, r23, r3
9000c4a4:	be630038 	bleid	r3, 56		// 9000c4dc
9000c4a8:	16639800 	rsubk	r19, r3, r19
9000c4ac:	be93ffe4 	bgtid	r19, -28		// 9000c490
9000c4b0:	10d70000 	addk	r6, r23, r0
9000c4b4:	10800000 	addk	r4, r0, r0
9000c4b8:	10640000 	addk	r3, r4, r0
9000c4bc:	e9e10000 	lwi	r15, r1, 0
9000c4c0:	ea61001c 	lwi	r19, r1, 28
9000c4c4:	eac10020 	lwi	r22, r1, 32
9000c4c8:	eae10024 	lwi	r23, r1, 36
9000c4cc:	b60f0008 	rtsd	r15, 8
9000c4d0:	30210028 	addik	r1, r1, 40
9000c4d4:	b810ffb4 	brid	-76		// 9000c488
9000c4d8:	e8760014 	lwi	r3, r22, 20
9000c4dc:	e476000c 	lhui	r3, r22, 12
9000c4e0:	3080ffff 	addik	r4, r0, -1
9000c4e4:	a0630040 	ori	r3, r3, 64
9000c4e8:	b810ffd0 	brid	-48		// 9000c4b8
9000c4ec:	f476000c 	shi	r3, r22, 12
9000c4f0:	b9f4019c 	brlid	r15, 412	// 9000c68c <__sinit>
9000c4f4:	80000000 	or	r0, r0, r0
9000c4f8:	b0009001 	imm	-28671
9000c4fc:	aa563414 	xori	r18, r22, 13332
9000c500:	bc32ff3c 	bnei	r18, -196		// 9000c43c
9000c504:	b0009001 	imm	-28671
9000c508:	e86037a4 	lwi	r3, r0, 14244
9000c50c:	b810ff48 	brid	-184		// 9000c454
9000c510:	eac30000 	lwi	r22, r3, 0
9000c514:	b0009001 	imm	-28671
9000c518:	e86037a4 	lwi	r3, r0, 14244
9000c51c:	b810ff38 	brid	-200		// 9000c454
9000c520:	eac30008 	lwi	r22, r3, 8
9000c524:	b0009001 	imm	-28671
9000c528:	e86037a4 	lwi	r3, r0, 14244
9000c52c:	b810ff28 	brid	-216		// 9000c454
9000c530:	eac30004 	lwi	r22, r3, 4
9000c534:	b0009001 	imm	-28671
9000c538:	e8a031d8 	lwi	r5, r0, 12760
9000c53c:	b0009000 	imm	-28672
9000c540:	30c0c400 	addik	r6, r0, -15360
9000c544:	b9f40f8c 	brlid	r15, 3980	// 9000d4d0 <_fwalk>
9000c548:	80000000 	or	r0, r0, r0
9000c54c:	b810ff6c 	brid	-148		// 9000c4b8
9000c550:	10830000 	addk	r4, r3, r0

9000c554 <__sfp_lock_acquire>:
9000c554:	b60f0008 	rtsd	r15, 8
9000c558:	80000000 	or	r0, r0, r0

9000c55c <__sfp_lock_release>:
9000c55c:	b60f0008 	rtsd	r15, 8
9000c560:	80000000 	or	r0, r0, r0

9000c564 <__sinit_lock_acquire>:
9000c564:	b60f0008 	rtsd	r15, 8
9000c568:	80000000 	or	r0, r0, r0

9000c56c <__sinit_lock_release>:
9000c56c:	b60f0008 	rtsd	r15, 8
9000c570:	80000000 	or	r0, r0, r0

9000c574 <__fp_lock>:
9000c574:	b60f0008 	rtsd	r15, 8
9000c578:	10600000 	addk	r3, r0, r0

9000c57c <__fp_unlock>:
9000c57c:	b60f0008 	rtsd	r15, 8
9000c580:	10600000 	addk	r3, r0, r0

9000c584 <_cleanup_r>:
9000c584:	b0009001 	imm	-28671
9000c588:	30c005fc 	addik	r6, r0, 1532
9000c58c:	3021ffe4 	addik	r1, r1, -28
9000c590:	f9e10000 	swi	r15, r1, 0
9000c594:	b9f40f3c 	brlid	r15, 3900	// 9000d4d0 <_fwalk>
9000c598:	80000000 	or	r0, r0, r0
9000c59c:	e9e10000 	lwi	r15, r1, 0
9000c5a0:	b60f0008 	rtsd	r15, 8
9000c5a4:	3021001c 	addik	r1, r1, 28

9000c5a8 <__sfmoreglue>:
9000c5a8:	3021ffdc 	addik	r1, r1, -36
9000c5ac:	fac10020 	swi	r22, r1, 32
9000c5b0:	62c6005c 	muli	r22, r6, 92
9000c5b4:	fa61001c 	swi	r19, r1, 28
9000c5b8:	12660000 	addk	r19, r6, r0
9000c5bc:	f9e10000 	swi	r15, r1, 0
9000c5c0:	b9f4ac24 	brlid	r15, -21468	// 900071e4 <_malloc_r>
9000c5c4:	30d6000c 	addik	r6, r22, 12
9000c5c8:	10f60000 	addk	r7, r22, r0
9000c5cc:	10c00000 	addk	r6, r0, r0
9000c5d0:	be030020 	beqid	r3, 32		// 9000c5f0
9000c5d4:	12c30000 	addk	r22, r3, r0
9000c5d8:	3063000c 	addik	r3, r3, 12
9000c5dc:	10a30000 	addk	r5, r3, r0
9000c5e0:	fa760004 	swi	r19, r22, 4
9000c5e4:	f8d60000 	swi	r6, r22, 0
9000c5e8:	b9f4b498 	brlid	r15, -19304	// 90007a80 <memset>
9000c5ec:	f8760008 	swi	r3, r22, 8
9000c5f0:	10760000 	addk	r3, r22, r0
9000c5f4:	e9e10000 	lwi	r15, r1, 0
9000c5f8:	ea61001c 	lwi	r19, r1, 28
9000c5fc:	eac10020 	lwi	r22, r1, 32
9000c600:	b60f0008 	rtsd	r15, 8
9000c604:	30210024 	addik	r1, r1, 36

9000c608 <__fp_unlock_all>:
9000c608:	b0009001 	imm	-28671
9000c60c:	e8a037a4 	lwi	r5, r0, 14244
9000c610:	b0009000 	imm	-28672
9000c614:	30c0c57c 	addik	r6, r0, -14980
9000c618:	3021ffe4 	addik	r1, r1, -28
9000c61c:	f9e10000 	swi	r15, r1, 0
9000c620:	b9f40eb0 	brlid	r15, 3760	// 9000d4d0 <_fwalk>
9000c624:	80000000 	or	r0, r0, r0
9000c628:	e9e10000 	lwi	r15, r1, 0
9000c62c:	b60f0008 	rtsd	r15, 8
9000c630:	3021001c 	addik	r1, r1, 28

9000c634 <__fp_lock_all>:
9000c634:	b0009001 	imm	-28671
9000c638:	e8a037a4 	lwi	r5, r0, 14244
9000c63c:	b0009000 	imm	-28672
9000c640:	30c0c574 	addik	r6, r0, -14988
9000c644:	3021ffe4 	addik	r1, r1, -28
9000c648:	f9e10000 	swi	r15, r1, 0
9000c64c:	b9f40e84 	brlid	r15, 3716	// 9000d4d0 <_fwalk>
9000c650:	80000000 	or	r0, r0, r0
9000c654:	e9e10000 	lwi	r15, r1, 0
9000c658:	b60f0008 	rtsd	r15, 8
9000c65c:	3021001c 	addik	r1, r1, 28

9000c660 <_cleanup>:
9000c660:	b0009001 	imm	-28671
9000c664:	e8a031d8 	lwi	r5, r0, 12760
9000c668:	b0009001 	imm	-28671
9000c66c:	30c005fc 	addik	r6, r0, 1532
9000c670:	3021ffe4 	addik	r1, r1, -28
9000c674:	f9e10000 	swi	r15, r1, 0
9000c678:	b9f40e58 	brlid	r15, 3672	// 9000d4d0 <_fwalk>
9000c67c:	80000000 	or	r0, r0, r0
9000c680:	e9e10000 	lwi	r15, r1, 0
9000c684:	b60f0008 	rtsd	r15, 8
9000c688:	3021001c 	addik	r1, r1, 28

9000c68c <__sinit>:
9000c68c:	3021ffcc 	addik	r1, r1, -52
9000c690:	fb010028 	swi	r24, r1, 40
9000c694:	f9e10000 	swi	r15, r1, 0
9000c698:	fa61001c 	swi	r19, r1, 28
9000c69c:	fac10020 	swi	r22, r1, 32
9000c6a0:	fae10024 	swi	r23, r1, 36
9000c6a4:	fb21002c 	swi	r25, r1, 44
9000c6a8:	fb410030 	swi	r26, r1, 48
9000c6ac:	13050000 	addk	r24, r5, r0
9000c6b0:	e8a50018 	lwi	r5, r5, 24
9000c6b4:	be25026c 	bneid	r5, 620		// 9000c920
9000c6b8:	30600001 	addik	r3, r0, 1
9000c6bc:	b0009001 	imm	-28671
9000c6c0:	eb4031d8 	lwi	r26, r0, 12760
9000c6c4:	f8780018 	swi	r3, r24, 24
9000c6c8:	e89a0018 	lwi	r4, r26, 24
9000c6cc:	b0009000 	imm	-28672
9000c6d0:	3060c584 	addik	r3, r0, -14972
9000c6d4:	f8b800e0 	swi	r5, r24, 224
9000c6d8:	f8b800d8 	swi	r5, r24, 216
9000c6dc:	f8780028 	swi	r3, r24, 40
9000c6e0:	be0402bc 	beqid	r4, 700		// 9000c99c
9000c6e4:	f8b800dc 	swi	r5, r24, 220
9000c6e8:	32fa00d8 	addik	r23, r26, 216
9000c6ec:	12d70000 	addk	r22, r23, r0
9000c6f0:	e8760004 	lwi	r3, r22, 4
9000c6f4:	3083ffff 	addik	r4, r3, -1
9000c6f8:	bea4001c 	bgeid	r4, 28		// 9000c714
9000c6fc:	e8b60008 	lwi	r5, r22, 8
9000c700:	b8100248 	brid	584		// 9000c948
9000c704:	ea760000 	lwi	r19, r22, 0
9000c708:	aa44ffff 	xori	r18, r4, -1
9000c70c:	be120238 	beqid	r18, 568		// 9000c944
9000c710:	30a5005c 	addik	r5, r5, 92
9000c714:	e465000c 	lhui	r3, r5, 12
9000c718:	be23fff0 	bneid	r3, -16		// 9000c708
9000c71c:	3084ffff 	addik	r4, r4, -1
9000c720:	3060ffff 	addik	r3, r0, -1
9000c724:	31400001 	addik	r10, r0, 1
9000c728:	f465000e 	shi	r3, r5, 14
9000c72c:	f545000c 	shi	r10, r5, 12
9000c730:	f8050000 	swi	r0, r5, 0
9000c734:	f8050008 	swi	r0, r5, 8
9000c738:	f8050004 	swi	r0, r5, 4
9000c73c:	f8050010 	swi	r0, r5, 16
9000c740:	f8050014 	swi	r0, r5, 20
9000c744:	f8050018 	swi	r0, r5, 24
9000c748:	f8050034 	swi	r0, r5, 52
9000c74c:	f8050038 	swi	r0, r5, 56
9000c750:	f8050048 	swi	r0, r5, 72
9000c754:	f805004c 	swi	r0, r5, 76
9000c758:	e87a0018 	lwi	r3, r26, 24
9000c75c:	be030230 	beqid	r3, 560		// 9000c98c
9000c760:	f8b80000 	swi	r5, r24, 0
9000c764:	12770000 	addk	r19, r23, r0
9000c768:	e8730004 	lwi	r3, r19, 4
9000c76c:	3083ffff 	addik	r4, r3, -1
9000c770:	bea4001c 	bgeid	r4, 28		// 9000c78c
9000c774:	e8b30008 	lwi	r5, r19, 8
9000c778:	b81001f4 	brid	500		// 9000c96c
9000c77c:	ead30000 	lwi	r22, r19, 0
9000c780:	aa44ffff 	xori	r18, r4, -1
9000c784:	be1201e4 	beqid	r18, 484		// 9000c968
9000c788:	30a5005c 	addik	r5, r5, 92
9000c78c:	e465000c 	lhui	r3, r5, 12
9000c790:	be23fff0 	bneid	r3, -16		// 9000c780
9000c794:	3084ffff 	addik	r4, r4, -1
9000c798:	3060ffff 	addik	r3, r0, -1
9000c79c:	31400001 	addik	r10, r0, 1
9000c7a0:	f465000e 	shi	r3, r5, 14
9000c7a4:	f545000c 	shi	r10, r5, 12
9000c7a8:	f8050000 	swi	r0, r5, 0
9000c7ac:	f8050008 	swi	r0, r5, 8
9000c7b0:	f8050004 	swi	r0, r5, 4
9000c7b4:	f8050010 	swi	r0, r5, 16
9000c7b8:	f8050014 	swi	r0, r5, 20
9000c7bc:	f8050018 	swi	r0, r5, 24
9000c7c0:	f8050034 	swi	r0, r5, 52
9000c7c4:	f8050038 	swi	r0, r5, 56
9000c7c8:	f8050048 	swi	r0, r5, 72
9000c7cc:	f805004c 	swi	r0, r5, 76
9000c7d0:	e87a0018 	lwi	r3, r26, 24
9000c7d4:	be0301a8 	beqid	r3, 424		// 9000c97c
9000c7d8:	f8b80004 	swi	r5, r24, 4
9000c7dc:	e8770004 	lwi	r3, r23, 4
9000c7e0:	3083ffff 	addik	r4, r3, -1
9000c7e4:	bea4001c 	bgeid	r4, 28		// 9000c800
9000c7e8:	e9370008 	lwi	r9, r23, 8
9000c7ec:	b8100170 	brid	368		// 9000c95c
9000c7f0:	ea770000 	lwi	r19, r23, 0
9000c7f4:	aa44ffff 	xori	r18, r4, -1
9000c7f8:	be120160 	beqid	r18, 352		// 9000c958
9000c7fc:	3129005c 	addik	r9, r9, 92
9000c800:	e469000c 	lhui	r3, r9, 12
9000c804:	be23fff0 	bneid	r3, -16		// 9000c7f4
9000c808:	3084ffff 	addik	r4, r4, -1
9000c80c:	3060ffff 	addik	r3, r0, -1
9000c810:	31400001 	addik	r10, r0, 1
9000c814:	f469000e 	shi	r3, r9, 14
9000c818:	f549000c 	shi	r10, r9, 12
9000c81c:	f8090000 	swi	r0, r9, 0
9000c820:	f8090008 	swi	r0, r9, 8
9000c824:	f8090004 	swi	r0, r9, 4
9000c828:	f8090010 	swi	r0, r9, 16
9000c82c:	f8090014 	swi	r0, r9, 20
9000c830:	f8090018 	swi	r0, r9, 24
9000c834:	f8090034 	swi	r0, r9, 52
9000c838:	f8090038 	swi	r0, r9, 56
9000c83c:	f8090048 	swi	r0, r9, 72
9000c840:	f809004c 	swi	r0, r9, 76
9000c844:	e8780000 	lwi	r3, r24, 0
9000c848:	b0009001 	imm	-28671
9000c84c:	30c0017c 	addik	r6, r0, 380
9000c850:	b0009001 	imm	-28671
9000c854:	30e000f4 	addik	r7, r0, 244
9000c858:	b0009001 	imm	-28671
9000c85c:	31000088 	addik	r8, r0, 136
9000c860:	b0009001 	imm	-28671
9000c864:	30a00060 	addik	r5, r0, 96
9000c868:	e8980004 	lwi	r4, r24, 4
9000c86c:	31400004 	addik	r10, r0, 4
9000c870:	f543000c 	shi	r10, r3, 12
9000c874:	f8030000 	swi	r0, r3, 0
9000c878:	f8030004 	swi	r0, r3, 4
9000c87c:	f8030008 	swi	r0, r3, 8
9000c880:	f8a30030 	swi	r5, r3, 48
9000c884:	f403000e 	shi	r0, r3, 14
9000c888:	f8030010 	swi	r0, r3, 16
9000c88c:	f8030014 	swi	r0, r3, 20
9000c890:	f8030018 	swi	r0, r3, 24
9000c894:	f8630020 	swi	r3, r3, 32
9000c898:	f8c30024 	swi	r6, r3, 36
9000c89c:	f8e30028 	swi	r7, r3, 40
9000c8a0:	f903002c 	swi	r8, r3, 44
9000c8a4:	30600009 	addik	r3, r0, 9
9000c8a8:	f464000c 	shi	r3, r4, 12
9000c8ac:	f8040000 	swi	r0, r4, 0
9000c8b0:	f8040004 	swi	r0, r4, 4
9000c8b4:	f8040008 	swi	r0, r4, 8
9000c8b8:	31400001 	addik	r10, r0, 1
9000c8bc:	3060000a 	addik	r3, r0, 10
9000c8c0:	f544000e 	shi	r10, r4, 14
9000c8c4:	f8a40030 	swi	r5, r4, 48
9000c8c8:	f9380008 	swi	r9, r24, 8
9000c8cc:	f8040010 	swi	r0, r4, 16
9000c8d0:	f8040014 	swi	r0, r4, 20
9000c8d4:	f8040018 	swi	r0, r4, 24
9000c8d8:	f8840020 	swi	r4, r4, 32
9000c8dc:	f8c40024 	swi	r6, r4, 36
9000c8e0:	f8e40028 	swi	r7, r4, 40
9000c8e4:	f904002c 	swi	r8, r4, 44
9000c8e8:	f8090000 	swi	r0, r9, 0
9000c8ec:	f8090004 	swi	r0, r9, 4
9000c8f0:	f8090008 	swi	r0, r9, 8
9000c8f4:	f469000c 	shi	r3, r9, 12
9000c8f8:	31400002 	addik	r10, r0, 2
9000c8fc:	f549000e 	shi	r10, r9, 14
9000c900:	f8a90030 	swi	r5, r9, 48
9000c904:	f8c90024 	swi	r6, r9, 36
9000c908:	f8e90028 	swi	r7, r9, 40
9000c90c:	f909002c 	swi	r8, r9, 44
9000c910:	f8090010 	swi	r0, r9, 16
9000c914:	f8090014 	swi	r0, r9, 20
9000c918:	f8090018 	swi	r0, r9, 24
9000c91c:	f9290020 	swi	r9, r9, 32
9000c920:	e9e10000 	lwi	r15, r1, 0
9000c924:	ea61001c 	lwi	r19, r1, 28
9000c928:	eac10020 	lwi	r22, r1, 32
9000c92c:	eae10024 	lwi	r23, r1, 36
9000c930:	eb010028 	lwi	r24, r1, 40
9000c934:	eb21002c 	lwi	r25, r1, 44
9000c938:	eb410030 	lwi	r26, r1, 48
9000c93c:	b60f0008 	rtsd	r15, 8
9000c940:	30210034 	addik	r1, r1, 52
9000c944:	ea760000 	lwi	r19, r22, 0
9000c948:	be1300a4 	beqid	r19, 164		// 9000c9ec
9000c94c:	10b80000 	addk	r5, r24, r0
9000c950:	b810fda0 	brid	-608		// 9000c6f0
9000c954:	12d30000 	addk	r22, r19, r0
9000c958:	ea770000 	lwi	r19, r23, 0
9000c95c:	bc1300d0 	beqi	r19, 208		// 9000ca2c
9000c960:	b810fe7c 	brid	-388		// 9000c7dc
9000c964:	12f30000 	addk	r23, r19, r0
9000c968:	ead30000 	lwi	r22, r19, 0
9000c96c:	be160040 	beqid	r22, 64		// 9000c9ac
9000c970:	10b80000 	addk	r5, r24, r0
9000c974:	b810fdf4 	brid	-524		// 9000c768
9000c978:	12760000 	addk	r19, r22, r0
9000c97c:	b9f4fd10 	brlid	r15, -752	// 9000c68c <__sinit>
9000c980:	10ba0000 	addk	r5, r26, r0
9000c984:	b810fe5c 	brid	-420		// 9000c7e0
9000c988:	e8770004 	lwi	r3, r23, 4
9000c98c:	b9f4fd00 	brlid	r15, -768	// 9000c68c <__sinit>
9000c990:	10ba0000 	addk	r5, r26, r0
9000c994:	b810fdd4 	brid	-556		// 9000c768
9000c998:	12770000 	addk	r19, r23, r0
9000c99c:	b9f4fcf0 	brlid	r15, -784	// 9000c68c <__sinit>
9000c9a0:	10ba0000 	addk	r5, r26, r0
9000c9a4:	b810fd48 	brid	-696		// 9000c6ec
9000c9a8:	32fa00d8 	addik	r23, r26, 216
9000c9ac:	b9f4a838 	brlid	r15, -22472	// 900071e4 <_malloc_r>
9000c9b0:	30c0017c 	addik	r6, r0, 380
9000c9b4:	be0300bc 	beqid	r3, 188		// 9000ca70
9000c9b8:	13230000 	addk	r25, r3, r0
9000c9bc:	3083000c 	addik	r4, r3, 12
9000c9c0:	10d60000 	addk	r6, r22, r0
9000c9c4:	10a40000 	addk	r5, r4, r0
9000c9c8:	30600004 	addik	r3, r0, 4
9000c9cc:	fad90000 	swi	r22, r25, 0
9000c9d0:	12d90000 	addk	r22, r25, r0
9000c9d4:	f8790004 	swi	r3, r25, 4
9000c9d8:	f8990008 	swi	r4, r25, 8
9000c9dc:	b9f4b0a4 	brlid	r15, -20316	// 90007a80 <memset>
9000c9e0:	30e00170 	addik	r7, r0, 368
9000c9e4:	b810ff90 	brid	-112		// 9000c974
9000c9e8:	fb330000 	swi	r25, r19, 0
9000c9ec:	b9f4a7f8 	brlid	r15, -22536	// 900071e4 <_malloc_r>
9000c9f0:	30c0017c 	addik	r6, r0, 380
9000c9f4:	be0300a4 	beqid	r3, 164		// 9000ca98
9000c9f8:	10e30000 	addk	r7, r3, r0
9000c9fc:	3083000c 	addik	r4, r3, 12
9000ca00:	10d30000 	addk	r6, r19, r0
9000ca04:	10a40000 	addk	r5, r4, r0
9000ca08:	fa630000 	swi	r19, r3, 0
9000ca0c:	12630000 	addk	r19, r3, r0
9000ca10:	30600004 	addik	r3, r0, 4
9000ca14:	f8670004 	swi	r3, r7, 4
9000ca18:	f8870008 	swi	r4, r7, 8
9000ca1c:	b9f4b064 	brlid	r15, -20380	// 90007a80 <memset>
9000ca20:	30e00170 	addik	r7, r0, 368
9000ca24:	b810ff2c 	brid	-212		// 9000c950
9000ca28:	fa760000 	swi	r19, r22, 0
9000ca2c:	10b80000 	addk	r5, r24, r0
9000ca30:	b9f4a7b4 	brlid	r15, -22604	// 900071e4 <_malloc_r>
9000ca34:	30c0017c 	addik	r6, r0, 380
9000ca38:	be03004c 	beqid	r3, 76		// 9000ca84
9000ca3c:	12c30000 	addk	r22, r3, r0
9000ca40:	3083000c 	addik	r4, r3, 12
9000ca44:	10d30000 	addk	r6, r19, r0
9000ca48:	10a40000 	addk	r5, r4, r0
9000ca4c:	30600004 	addik	r3, r0, 4
9000ca50:	fa760000 	swi	r19, r22, 0
9000ca54:	12760000 	addk	r19, r22, r0
9000ca58:	f8760004 	swi	r3, r22, 4
9000ca5c:	f8960008 	swi	r4, r22, 8
9000ca60:	b9f4b020 	brlid	r15, -20448	// 90007a80 <memset>
9000ca64:	30e00170 	addik	r7, r0, 368
9000ca68:	b810fef8 	brid	-264		// 9000c960
9000ca6c:	fad70000 	swi	r22, r23, 0
9000ca70:	10b60000 	addk	r5, r22, r0
9000ca74:	3060000c 	addik	r3, r0, 12
9000ca78:	fad30000 	swi	r22, r19, 0
9000ca7c:	b810fd54 	brid	-684		// 9000c7d0
9000ca80:	f878000c 	swi	r3, r24, 12
9000ca84:	11330000 	addk	r9, r19, r0
9000ca88:	3060000c 	addik	r3, r0, 12
9000ca8c:	fa770000 	swi	r19, r23, 0
9000ca90:	b810fdb4 	brid	-588		// 9000c844
9000ca94:	f878000c 	swi	r3, r24, 12
9000ca98:	10b30000 	addk	r5, r19, r0
9000ca9c:	3060000c 	addik	r3, r0, 12
9000caa0:	fa760000 	swi	r19, r22, 0
9000caa4:	b810fcb4 	brid	-844		// 9000c758
9000caa8:	f878000c 	swi	r3, r24, 12

9000caac <__sfp>:
9000caac:	3021ffd4 	addik	r1, r1, -44
9000cab0:	fa61001c 	swi	r19, r1, 28
9000cab4:	b0009001 	imm	-28671
9000cab8:	ea6031d8 	lwi	r19, r0, 12760
9000cabc:	fb010028 	swi	r24, r1, 40
9000cac0:	f9e10000 	swi	r15, r1, 0
9000cac4:	fac10020 	swi	r22, r1, 32
9000cac8:	fae10024 	swi	r23, r1, 36
9000cacc:	e8730018 	lwi	r3, r19, 24
9000cad0:	be0300ac 	beqid	r3, 172		// 9000cb7c
9000cad4:	13050000 	addk	r24, r5, r0
9000cad8:	327300d8 	addik	r19, r19, 216
9000cadc:	e8730004 	lwi	r3, r19, 4
9000cae0:	3083ffff 	addik	r4, r3, -1
9000cae4:	bea4001c 	bgeid	r4, 28		// 9000cb00
9000cae8:	e8b30008 	lwi	r5, r19, 8
9000caec:	b8100080 	brid	128		// 9000cb6c
9000caf0:	ead30000 	lwi	r22, r19, 0
9000caf4:	aa44ffff 	xori	r18, r4, -1
9000caf8:	be120070 	beqid	r18, 112		// 9000cb68
9000cafc:	30a5005c 	addik	r5, r5, 92
9000cb00:	e465000c 	lhui	r3, r5, 12
9000cb04:	be23fff0 	bneid	r3, -16		// 9000caf4
9000cb08:	3084ffff 	addik	r4, r4, -1
9000cb0c:	30840001 	addik	r4, r4, 1
9000cb10:	3060ffff 	addik	r3, r0, -1
9000cb14:	f465000e 	shi	r3, r5, 14
9000cb18:	30600001 	addik	r3, r0, 1
9000cb1c:	f465000c 	shi	r3, r5, 12
9000cb20:	f8050000 	swi	r0, r5, 0
9000cb24:	f8050008 	swi	r0, r5, 8
9000cb28:	f8050004 	swi	r0, r5, 4
9000cb2c:	f8050010 	swi	r0, r5, 16
9000cb30:	f8050014 	swi	r0, r5, 20
9000cb34:	f8050018 	swi	r0, r5, 24
9000cb38:	f8050034 	swi	r0, r5, 52
9000cb3c:	f8050038 	swi	r0, r5, 56
9000cb40:	f8050048 	swi	r0, r5, 72
9000cb44:	f805004c 	swi	r0, r5, 76
9000cb48:	10650000 	addk	r3, r5, r0
9000cb4c:	e9e10000 	lwi	r15, r1, 0
9000cb50:	ea61001c 	lwi	r19, r1, 28
9000cb54:	eac10020 	lwi	r22, r1, 32
9000cb58:	eae10024 	lwi	r23, r1, 36
9000cb5c:	eb010028 	lwi	r24, r1, 40
9000cb60:	b60f0008 	rtsd	r15, 8
9000cb64:	3021002c 	addik	r1, r1, 44
9000cb68:	ead30000 	lwi	r22, r19, 0
9000cb6c:	be160020 	beqid	r22, 32		// 9000cb8c
9000cb70:	10b80000 	addk	r5, r24, r0
9000cb74:	b810ff68 	brid	-152		// 9000cadc
9000cb78:	12760000 	addk	r19, r22, r0
9000cb7c:	b9f4fb10 	brlid	r15, -1264	// 9000c68c <__sinit>
9000cb80:	10b30000 	addk	r5, r19, r0
9000cb84:	b810ff58 	brid	-168		// 9000cadc
9000cb88:	327300d8 	addik	r19, r19, 216
9000cb8c:	b9f4a658 	brlid	r15, -22952	// 900071e4 <_malloc_r>
9000cb90:	30c0017c 	addik	r6, r0, 380
9000cb94:	be030038 	beqid	r3, 56		// 9000cbcc
9000cb98:	12e30000 	addk	r23, r3, r0
9000cb9c:	3083000c 	addik	r4, r3, 12
9000cba0:	10d60000 	addk	r6, r22, r0
9000cba4:	10a40000 	addk	r5, r4, r0
9000cba8:	30600004 	addik	r3, r0, 4
9000cbac:	fad70000 	swi	r22, r23, 0
9000cbb0:	12d70000 	addk	r22, r23, r0
9000cbb4:	f8770004 	swi	r3, r23, 4
9000cbb8:	f8970008 	swi	r4, r23, 8
9000cbbc:	b9f4aec4 	brlid	r15, -20796	// 90007a80 <memset>
9000cbc0:	30e00170 	addik	r7, r0, 368
9000cbc4:	b810ffb0 	brid	-80		// 9000cb74
9000cbc8:	faf30000 	swi	r23, r19, 0
9000cbcc:	10b60000 	addk	r5, r22, r0
9000cbd0:	3060000c 	addik	r3, r0, 12
9000cbd4:	f878000c 	swi	r3, r24, 12
9000cbd8:	b810ff70 	brid	-144		// 9000cb48
9000cbdc:	fad30000 	swi	r22, r19, 0

9000cbe0 <_malloc_trim_r>:
9000cbe0:	3021ffd8 	addik	r1, r1, -40
9000cbe4:	fa61001c 	swi	r19, r1, 28
9000cbe8:	fac10020 	swi	r22, r1, 32
9000cbec:	fae10024 	swi	r23, r1, 36
9000cbf0:	12c60000 	addk	r22, r6, r0
9000cbf4:	f9e10000 	swi	r15, r1, 0
9000cbf8:	b9f4af38 	brlid	r15, -20680	// 90007b30 <__malloc_lock>
9000cbfc:	12e50000 	addk	r23, r5, r0
9000cc00:	b0009001 	imm	-28671
9000cc04:	e86038a0 	lwi	r3, r0, 14496
9000cc08:	10b70000 	addk	r5, r23, r0
9000cc0c:	e8830004 	lwi	r4, r3, 4
9000cc10:	a664fffc 	andi	r19, r4, -4
9000cc14:	16d69800 	rsubk	r22, r22, r19
9000cc18:	32d6006f 	addik	r22, r22, 111
9000cc1c:	a6d6ff80 	andi	r22, r22, -128
9000cc20:	32d6ff80 	addik	r22, r22, -128
9000cc24:	3240007f 	addik	r18, r0, 127
9000cc28:	16569001 	cmp	r18, r22, r18
9000cc2c:	beb2002c 	bgeid	r18, 44		// 9000cc58
9000cc30:	10c00000 	addk	r6, r0, r0
9000cc34:	b9f4b004 	brlid	r15, -20476	// 90007c38 <_sbrk_r>
9000cc38:	80000000 	or	r0, r0, r0
9000cc3c:	b0009001 	imm	-28671
9000cc40:	e88038a0 	lwi	r4, r0, 14496
9000cc44:	10b70000 	addk	r5, r23, r0
9000cc48:	10932000 	addk	r4, r19, r4
9000cc4c:	16441800 	rsubk	r18, r4, r3
9000cc50:	be12002c 	beqid	r18, 44		// 9000cc7c
9000cc54:	14d60000 	rsubk	r6, r22, r0
9000cc58:	b9f4aee0 	brlid	r15, -20768	// 90007b38 <__malloc_unlock>
9000cc5c:	80000000 	or	r0, r0, r0
9000cc60:	10600000 	addk	r3, r0, r0
9000cc64:	e9e10000 	lwi	r15, r1, 0
9000cc68:	ea61001c 	lwi	r19, r1, 28
9000cc6c:	eac10020 	lwi	r22, r1, 32
9000cc70:	eae10024 	lwi	r23, r1, 36
9000cc74:	b60f0008 	rtsd	r15, 8
9000cc78:	30210028 	addik	r1, r1, 40
9000cc7c:	b9f4afbc 	brlid	r15, -20548	// 90007c38 <_sbrk_r>
9000cc80:	10b70000 	addk	r5, r23, r0
9000cc84:	14969800 	rsubk	r4, r22, r19
9000cc88:	10b70000 	addk	r5, r23, r0
9000cc8c:	a0e40001 	ori	r7, r4, 1
9000cc90:	aa43ffff 	xori	r18, r3, -1
9000cc94:	be120038 	beqid	r18, 56		// 9000cccc
9000cc98:	10c00000 	addk	r6, r0, r0
9000cc9c:	b0009001 	imm	-28671
9000cca0:	e8604fe0 	lwi	r3, r0, 20448
9000cca4:	b0009001 	imm	-28671
9000cca8:	e88038a0 	lwi	r4, r0, 14496
9000ccac:	14761800 	rsubk	r3, r22, r3
9000ccb0:	f8e40004 	swi	r7, r4, 4
9000ccb4:	b0009001 	imm	-28671
9000ccb8:	f8604fe0 	swi	r3, r0, 20448
9000ccbc:	b9f4ae7c 	brlid	r15, -20868	// 90007b38 <__malloc_unlock>
9000ccc0:	10b70000 	addk	r5, r23, r0
9000ccc4:	b810ffa0 	brid	-96		// 9000cc64
9000ccc8:	30600001 	addik	r3, r0, 1
9000cccc:	b9f4af6c 	brlid	r15, -20628	// 90007c38 <_sbrk_r>
9000ccd0:	80000000 	or	r0, r0, r0
9000ccd4:	b0009001 	imm	-28671
9000ccd8:	e88038a0 	lwi	r4, r0, 14496
9000ccdc:	10e30000 	addk	r7, r3, r0
9000cce0:	14641800 	rsubk	r3, r4, r3
9000cce4:	a0c30001 	ori	r6, r3, 1
9000cce8:	3240000f 	addik	r18, r0, 15
9000ccec:	16439001 	cmp	r18, r3, r18
9000ccf0:	beb2ff68 	bgeid	r18, -152		// 9000cc58
9000ccf4:	10b70000 	addk	r5, r23, r0
9000ccf8:	b0009001 	imm	-28671
9000ccfc:	e8603ca4 	lwi	r3, r0, 15524
9000cd00:	f8c40004 	swi	r6, r4, 4
9000cd04:	14633800 	rsubk	r3, r3, r7
9000cd08:	b0009001 	imm	-28671
9000cd0c:	f8604fe0 	swi	r3, r0, 20448
9000cd10:	b800ff48 	bri	-184		// 9000cc58

9000cd14 <_free_r>:
9000cd14:	3021ffdc 	addik	r1, r1, -36
9000cd18:	fa61001c 	swi	r19, r1, 28
9000cd1c:	fac10020 	swi	r22, r1, 32
9000cd20:	f9e10000 	swi	r15, r1, 0
9000cd24:	12660000 	addk	r19, r6, r0
9000cd28:	be0600ac 	beqid	r6, 172		// 9000cdd4
9000cd2c:	12c50000 	addk	r22, r5, r0
9000cd30:	b9f4ae00 	brlid	r15, -20992	// 90007b30 <__malloc_lock>
9000cd34:	80000000 	or	r0, r0, r0
9000cd38:	3133fff8 	addik	r9, r19, -8
9000cd3c:	e8c90004 	lwi	r6, r9, 4
9000cd40:	b0009001 	imm	-28671
9000cd44:	31403898 	addik	r10, r0, 14488
9000cd48:	b0009001 	imm	-28671
9000cd4c:	e86038a0 	lwi	r3, r0, 14496
9000cd50:	a4e6fffe 	andi	r7, r6, -2
9000cd54:	10a93800 	addk	r5, r9, r7
9000cd58:	e8850004 	lwi	r4, r5, 4
9000cd5c:	116a0000 	addk	r11, r10, r0
9000cd60:	16432800 	rsubk	r18, r3, r5
9000cd64:	be120158 	beqid	r18, 344		// 9000cebc
9000cd68:	a504fffc 	andi	r8, r4, -4
9000cd6c:	a4660001 	andi	r3, r6, 1
9000cd70:	f9050004 	swi	r8, r5, 4
9000cd74:	be230038 	bneid	r3, 56		// 9000cdac
9000cd78:	10c00000 	addk	r6, r0, r0
9000cd7c:	e8690000 	lwi	r3, r9, 0
9000cd80:	30c00001 	addik	r6, r0, 1
9000cd84:	15234800 	rsubk	r9, r3, r9
9000cd88:	e8890008 	lwi	r4, r9, 8
9000cd8c:	b0009001 	imm	-28671
9000cd90:	aa4438a0 	xori	r18, r4, 14496
9000cd94:	be120018 	beqid	r18, 24		// 9000cdac
9000cd98:	10e71800 	addk	r7, r7, r3
9000cd9c:	e869000c 	lwi	r3, r9, 12
9000cda0:	10c00000 	addk	r6, r0, r0
9000cda4:	f8830008 	swi	r4, r3, 8
9000cda8:	f864000c 	swi	r3, r4, 12
9000cdac:	10854000 	addk	r4, r5, r8
9000cdb0:	e8640004 	lwi	r3, r4, 4
9000cdb4:	a4630001 	andi	r3, r3, 1
9000cdb8:	bc030030 	beqi	r3, 48		// 9000cde8
9000cdbc:	a0670001 	ori	r3, r7, 1
9000cdc0:	f8690004 	swi	r3, r9, 4
9000cdc4:	be06004c 	beqid	r6, 76		// 9000ce10
9000cdc8:	d8e93800 	sw	r7, r9, r7
9000cdcc:	b9f4ad6c 	brlid	r15, -21140	// 90007b38 <__malloc_unlock>
9000cdd0:	10b60000 	addk	r5, r22, r0
9000cdd4:	e9e10000 	lwi	r15, r1, 0
9000cdd8:	ea61001c 	lwi	r19, r1, 28
9000cddc:	eac10020 	lwi	r22, r1, 32
9000cde0:	b60f0008 	rtsd	r15, 8
9000cde4:	30210024 	addik	r1, r1, 36
9000cde8:	be260090 	bneid	r6, 144		// 9000ce78
9000cdec:	10e74000 	addk	r7, r7, r8
9000cdf0:	e8850008 	lwi	r4, r5, 8
9000cdf4:	b0009001 	imm	-28671
9000cdf8:	aa4438a0 	xori	r18, r4, 14496
9000cdfc:	bc120150 	beqi	r18, 336		// 9000cf4c
9000ce00:	e865000c 	lwi	r3, r5, 12
9000ce04:	f8830008 	swi	r4, r3, 8
9000ce08:	b810ffb4 	brid	-76		// 9000cdbc
9000ce0c:	f864000c 	swi	r3, r4, 12
9000ce10:	224001ff 	addi	r18, r0, 511
9000ce14:	16479003 	cmpu	r18, r7, r18
9000ce18:	beb20068 	bgeid	r18, 104		// 9000ce80
9000ce1c:	64670003 	bsrli	r3, r7, 3
9000ce20:	64670009 	bsrli	r3, r7, 9
9000ce24:	bc2300f4 	bnei	r3, 244		// 9000cf18
9000ce28:	64670003 	bsrli	r3, r7, 3
9000ce2c:	64830403 	bslli	r4, r3, 3
9000ce30:	10c45800 	addk	r6, r4, r11
9000ce34:	e8a60008 	lwi	r5, r6, 8
9000ce38:	16453000 	rsubk	r18, r5, r6
9000ce3c:	be120130 	beqid	r18, 304		// 9000cf6c
9000ce40:	64630002 	bsrli	r3, r3, 2
9000ce44:	e8650004 	lwi	r3, r5, 4
9000ce48:	a463fffc 	andi	r3, r3, -4
9000ce4c:	16433803 	cmpu	r18, r3, r7
9000ce50:	bcb20010 	bgei	r18, 16		// 9000ce60
9000ce54:	e8a50008 	lwi	r5, r5, 8
9000ce58:	16453000 	rsubk	r18, r5, r6
9000ce5c:	bc32ffe8 	bnei	r18, -24		// 9000ce44
9000ce60:	e8c5000c 	lwi	r6, r5, 12
9000ce64:	f8c9000c 	swi	r6, r9, 12
9000ce68:	f8a90008 	swi	r5, r9, 8
9000ce6c:	f925000c 	swi	r9, r5, 12
9000ce70:	b810ff5c 	brid	-164		// 9000cdcc
9000ce74:	f9260008 	swi	r9, r6, 8
9000ce78:	b810ff88 	brid	-120		// 9000ce00
9000ce7c:	e8850008 	lwi	r4, r5, 8
9000ce80:	30800001 	addik	r4, r0, 1
9000ce84:	64a30403 	bslli	r5, r3, 3
9000ce88:	64630002 	bsrli	r3, r3, 2
9000ce8c:	10a55800 	addk	r5, r5, r11
9000ce90:	e8c50008 	lwi	r6, r5, 8
9000ce94:	44841c00 	bsll	r4, r4, r3
9000ce98:	b0009001 	imm	-28671
9000ce9c:	e860389c 	lwi	r3, r0, 14492
9000cea0:	f8a9000c 	swi	r5, r9, 12
9000cea4:	f8c90008 	swi	r6, r9, 8
9000cea8:	80632000 	or	r3, r3, r4
9000ceac:	f86a0004 	swi	r3, r10, 4
9000ceb0:	f926000c 	swi	r9, r6, 12
9000ceb4:	b810ff18 	brid	-232		// 9000cdcc
9000ceb8:	f9250008 	swi	r9, r5, 8
9000cebc:	a4660001 	andi	r3, r6, 1
9000cec0:	be230024 	bneid	r3, 36		// 9000cee4
9000cec4:	10e74000 	addk	r7, r7, r8
9000cec8:	e873fff8 	lwi	r3, r19, -8
9000cecc:	15234800 	rsubk	r9, r3, r9
9000ced0:	e8a9000c 	lwi	r5, r9, 12
9000ced4:	e8890008 	lwi	r4, r9, 8
9000ced8:	10e71800 	addk	r7, r7, r3
9000cedc:	f8850008 	swi	r4, r5, 8
9000cee0:	f8a4000c 	swi	r5, r4, 12
9000cee4:	a0670001 	ori	r3, r7, 1
9000cee8:	f8690004 	swi	r3, r9, 4
9000ceec:	b0009001 	imm	-28671
9000cef0:	e8603ca0 	lwi	r3, r0, 15520
9000cef4:	b0009001 	imm	-28671
9000cef8:	f92038a0 	swi	r9, r0, 14496
9000cefc:	16433803 	cmpu	r18, r3, r7
9000cf00:	bc52fecc 	blti	r18, -308		// 9000cdcc
9000cf04:	b0009001 	imm	-28671
9000cf08:	e8c04fd4 	lwi	r6, r0, 20436
9000cf0c:	b9f4fcd4 	brlid	r15, -812	// 9000cbe0 <_malloc_trim_r>
9000cf10:	10b60000 	addk	r5, r22, r0
9000cf14:	b800feb8 	bri	-328		// 9000cdcc
9000cf18:	22400004 	addi	r18, r0, 4
9000cf1c:	16439003 	cmpu	r18, r3, r18
9000cf20:	bcb2001c 	bgei	r18, 28		// 9000cf3c
9000cf24:	22400014 	addi	r18, r0, 20
9000cf28:	16439003 	cmpu	r18, r3, r18
9000cf2c:	bc520060 	blti	r18, 96		// 9000cf8c
9000cf30:	3063005b 	addik	r3, r3, 91
9000cf34:	b810fefc 	brid	-260		// 9000ce30
9000cf38:	64830403 	bslli	r4, r3, 3
9000cf3c:	64670006 	bsrli	r3, r7, 6
9000cf40:	30630038 	addik	r3, r3, 56
9000cf44:	b810feec 	brid	-276		// 9000ce30
9000cf48:	64830403 	bslli	r4, r3, 3
9000cf4c:	f924000c 	swi	r9, r4, 12
9000cf50:	f9240008 	swi	r9, r4, 8
9000cf54:	a0670001 	ori	r3, r7, 1
9000cf58:	d8e93800 	sw	r7, r9, r7
9000cf5c:	f8890008 	swi	r4, r9, 8
9000cf60:	f8690004 	swi	r3, r9, 4
9000cf64:	b810fe68 	brid	-408		// 9000cdcc
9000cf68:	f889000c 	swi	r4, r9, 12
9000cf6c:	30800001 	addik	r4, r0, 1
9000cf70:	44841c00 	bsll	r4, r4, r3
9000cf74:	b0009001 	imm	-28671
9000cf78:	e860389c 	lwi	r3, r0, 14492
9000cf7c:	10a60000 	addk	r5, r6, r0
9000cf80:	80632000 	or	r3, r3, r4
9000cf84:	b810fee0 	brid	-288		// 9000ce64
9000cf88:	f86a0004 	swi	r3, r10, 4
9000cf8c:	22400054 	addi	r18, r0, 84
9000cf90:	16439003 	cmpu	r18, r3, r18
9000cf94:	bc520014 	blti	r18, 20		// 9000cfa8
9000cf98:	6467000c 	bsrli	r3, r7, 12
9000cf9c:	3063006e 	addik	r3, r3, 110
9000cfa0:	b810fe90 	brid	-368		// 9000ce30
9000cfa4:	64830403 	bslli	r4, r3, 3
9000cfa8:	22400154 	addi	r18, r0, 340
9000cfac:	16439003 	cmpu	r18, r3, r18
9000cfb0:	bc520014 	blti	r18, 20		// 9000cfc4
9000cfb4:	6467000f 	bsrli	r3, r7, 15
9000cfb8:	30630077 	addik	r3, r3, 119
9000cfbc:	b810fe74 	brid	-396		// 9000ce30
9000cfc0:	64830403 	bslli	r4, r3, 3
9000cfc4:	22400554 	addi	r18, r0, 1364
9000cfc8:	16439003 	cmpu	r18, r3, r18
9000cfcc:	bcb20010 	bgei	r18, 16		// 9000cfdc
9000cfd0:	3060007e 	addik	r3, r0, 126
9000cfd4:	b810fe5c 	brid	-420		// 9000ce30
9000cfd8:	308003f0 	addik	r4, r0, 1008
9000cfdc:	64670012 	bsrli	r3, r7, 18
9000cfe0:	3063007c 	addik	r3, r3, 124
9000cfe4:	b810fe4c 	brid	-436		// 9000ce30
9000cfe8:	64830403 	bslli	r4, r3, 3

9000cfec <__sfvwrite>:
9000cfec:	3021ffc0 	addik	r1, r1, -64
9000cff0:	fb010028 	swi	r24, r1, 40
9000cff4:	fb810038 	swi	r28, r1, 56
9000cff8:	f9e10000 	swi	r15, r1, 0
9000cffc:	fa61001c 	swi	r19, r1, 28
9000d000:	fac10020 	swi	r22, r1, 32
9000d004:	fae10024 	swi	r23, r1, 36
9000d008:	fb21002c 	swi	r25, r1, 44
9000d00c:	fb410030 	swi	r26, r1, 48
9000d010:	fb610034 	swi	r27, r1, 52
9000d014:	fba1003c 	swi	r29, r1, 60
9000d018:	e8660008 	lwi	r3, r6, 8
9000d01c:	13860000 	addk	r28, r6, r0
9000d020:	be03007c 	beqid	r3, 124		// 9000d09c
9000d024:	13050000 	addk	r24, r5, r0
9000d028:	e485000c 	lhui	r4, r5, 12
9000d02c:	a4640008 	andi	r3, r4, 8
9000d030:	bc0303bc 	beqi	r3, 956		// 9000d3ec
9000d034:	e8650010 	lwi	r3, r5, 16
9000d038:	bc0303b4 	beqi	r3, 948		// 9000d3ec
9000d03c:	a4640002 	andi	r3, r4, 2
9000d040:	be030094 	beqid	r3, 148		// 9000d0d4
9000d044:	eb3c0000 	lwi	r25, r28, 0
9000d048:	12600000 	addk	r19, r0, r0
9000d04c:	12d30000 	addk	r22, r19, r0
9000d050:	be13013c 	beqid	r19, 316		// 9000d18c
9000d054:	10d60000 	addk	r6, r22, r0
9000d058:	10f30000 	addk	r7, r19, r0
9000d05c:	22400400 	addi	r18, r0, 1024
9000d060:	16539003 	cmpu	r18, r19, r18
9000d064:	beb2000c 	bgeid	r18, 12		// 9000d070
9000d068:	e8b80020 	lwi	r5, r24, 32
9000d06c:	30e00400 	addik	r7, r0, 1024
9000d070:	e8780028 	lwi	r3, r24, 40
9000d074:	99fc1800 	brald	r15, r3
9000d078:	80000000 	or	r0, r0, r0
9000d07c:	10830000 	addk	r4, r3, r0
9000d080:	16639800 	rsubk	r19, r3, r19
9000d084:	be630128 	bleid	r3, 296		// 9000d1ac
9000d088:	12d61800 	addk	r22, r22, r3
9000d08c:	e87c0008 	lwi	r3, r28, 8
9000d090:	14641800 	rsubk	r3, r4, r3
9000d094:	be23ffbc 	bneid	r3, -68		// 9000d050
9000d098:	f87c0008 	swi	r3, r28, 8
9000d09c:	10800000 	addk	r4, r0, r0
9000d0a0:	10640000 	addk	r3, r4, r0
9000d0a4:	e9e10000 	lwi	r15, r1, 0
9000d0a8:	ea61001c 	lwi	r19, r1, 28
9000d0ac:	eac10020 	lwi	r22, r1, 32
9000d0b0:	eae10024 	lwi	r23, r1, 36
9000d0b4:	eb010028 	lwi	r24, r1, 40
9000d0b8:	eb21002c 	lwi	r25, r1, 44
9000d0bc:	eb410030 	lwi	r26, r1, 48
9000d0c0:	eb610034 	lwi	r27, r1, 52
9000d0c4:	eb810038 	lwi	r28, r1, 56
9000d0c8:	eba1003c 	lwi	r29, r1, 60
9000d0cc:	b60f0008 	rtsd	r15, 8
9000d0d0:	30210040 	addik	r1, r1, 64
9000d0d4:	a4e40001 	andi	r7, r4, 1
9000d0d8:	be0700e8 	beqid	r7, 232		// 9000d1c0
9000d0dc:	12e70000 	addk	r23, r7, r0
9000d0e0:	12e00000 	addk	r23, r0, r0
9000d0e4:	13770000 	addk	r27, r23, r0
9000d0e8:	13b70000 	addk	r29, r23, r0
9000d0ec:	13570000 	addk	r26, r23, r0
9000d0f0:	bc170088 	beqi	r23, 136		// 9000d178
9000d0f4:	be1d0250 	beqid	r29, 592		// 9000d344
9000d0f8:	10bb0000 	addk	r5, r27, r0
9000d0fc:	1657d003 	cmpu	r18, r23, r26
9000d100:	beb2000c 	bgeid	r18, 12		// 9000d10c
9000d104:	12770000 	addk	r19, r23, r0
9000d108:	127a0000 	addk	r19, r26, r0
9000d10c:	e8f80014 	lwi	r7, r24, 20
9000d110:	e8980008 	lwi	r4, r24, 8
9000d114:	e8b80000 	lwi	r5, r24, 0
9000d118:	e8780010 	lwi	r3, r24, 16
9000d11c:	16451803 	cmpu	r18, r5, r3
9000d120:	beb20138 	bgeid	r18, 312		// 9000d258
9000d124:	12c72000 	addk	r22, r7, r4
9000d128:	1653b001 	cmp	r18, r19, r22
9000d12c:	beb2012c 	bgeid	r18, 300		// 9000d258
9000d130:	10db0000 	addk	r6, r27, r0
9000d134:	b9f408a4 	brlid	r15, 2212	// 9000d9d8 <memmove>
9000d138:	10f60000 	addk	r7, r22, r0
9000d13c:	e8980000 	lwi	r4, r24, 0
9000d140:	10b80000 	addk	r5, r24, r0
9000d144:	1084b000 	addk	r4, r4, r22
9000d148:	b9f4f2b8 	brlid	r15, -3400	// 9000c400 <fflush>
9000d14c:	f8980000 	swi	r4, r24, 0
9000d150:	bc23005c 	bnei	r3, 92		// 9000d1ac
9000d154:	1756d000 	rsubk	r26, r22, r26
9000d158:	bc1a012c 	beqi	r26, 300		// 9000d284
9000d15c:	e87c0008 	lwi	r3, r28, 8
9000d160:	14761800 	rsubk	r3, r22, r3
9000d164:	be03ff38 	beqid	r3, -200		// 9000d09c
9000d168:	f87c0008 	swi	r3, r28, 8
9000d16c:	16f6b800 	rsubk	r23, r22, r23
9000d170:	be37ff84 	bneid	r23, -124		// 9000d0f4
9000d174:	137bb000 	addk	r27, r27, r22
9000d178:	eb790000 	lwi	r27, r25, 0
9000d17c:	eaf90004 	lwi	r23, r25, 4
9000d180:	13a00000 	addk	r29, r0, r0
9000d184:	b810ff6c 	brid	-148		// 9000d0f0
9000d188:	33390008 	addik	r25, r25, 8
9000d18c:	ead90000 	lwi	r22, r25, 0
9000d190:	ea790004 	lwi	r19, r25, 4
9000d194:	b810febc 	brid	-324		// 9000d050
9000d198:	33390008 	addik	r25, r25, 8
9000d19c:	b0009001 	imm	-28671
9000d1a0:	e8a037a4 	lwi	r5, r0, 14244
9000d1a4:	b9f4fb70 	brlid	r15, -1168	// 9000cd14 <_free_r>
9000d1a8:	e8d80010 	lwi	r6, r24, 16
9000d1ac:	e478000c 	lhui	r3, r24, 12
9000d1b0:	3080ffff 	addik	r4, r0, -1
9000d1b4:	a0630040 	ori	r3, r3, 64
9000d1b8:	b810fee8 	brid	-280		// 9000d0a0
9000d1bc:	f478000c 	shi	r3, r24, 12
9000d1c0:	13670000 	addk	r27, r7, r0
9000d1c4:	bc170084 	beqi	r23, 132		// 9000d248
9000d1c8:	a4640200 	andi	r3, r4, 512
9000d1cc:	be0300d0 	beqid	r3, 208		// 9000d29c
9000d1d0:	ea780008 	lwi	r19, r24, 8
9000d1d4:	16579803 	cmpu	r18, r23, r19
9000d1d8:	beb20010 	bgeid	r18, 16		// 9000d1e8
9000d1dc:	10f30000 	addk	r7, r19, r0
9000d1e0:	a4640080 	andi	r3, r4, 128
9000d1e4:	bc2301b0 	bnei	r3, 432		// 9000d394
9000d1e8:	1647b803 	cmpu	r18, r7, r23
9000d1ec:	bcb2000c 	bgei	r18, 12		// 9000d1f8
9000d1f0:	10f70000 	addk	r7, r23, r0
9000d1f4:	12770000 	addk	r19, r23, r0
9000d1f8:	e8b80000 	lwi	r5, r24, 0
9000d1fc:	10db0000 	addk	r6, r27, r0
9000d200:	12d70000 	addk	r22, r23, r0
9000d204:	b9f407d4 	brlid	r15, 2004	// 9000d9d8 <memmove>
9000d208:	13570000 	addk	r26, r23, r0
9000d20c:	e8980008 	lwi	r4, r24, 8
9000d210:	e8780000 	lwi	r3, r24, 0
9000d214:	14932000 	rsubk	r4, r19, r4
9000d218:	10639800 	addk	r3, r3, r19
9000d21c:	12770000 	addk	r19, r23, r0
9000d220:	f8980008 	swi	r4, r24, 8
9000d224:	f8780000 	swi	r3, r24, 0
9000d228:	e87c0008 	lwi	r3, r28, 8
9000d22c:	14731800 	rsubk	r3, r19, r3
9000d230:	be03fe6c 	beqid	r3, -404		// 9000d09c
9000d234:	f87c0008 	swi	r3, r28, 8
9000d238:	16f6b800 	rsubk	r23, r22, r23
9000d23c:	e498000c 	lhui	r4, r24, 12
9000d240:	be37ff88 	bneid	r23, -120		// 9000d1c8
9000d244:	137bd000 	addk	r27, r27, r26
9000d248:	eb790000 	lwi	r27, r25, 0
9000d24c:	eaf90004 	lwi	r23, r25, 4
9000d250:	b810ff74 	brid	-140		// 9000d1c4
9000d254:	33390008 	addik	r25, r25, 8
9000d258:	16479801 	cmp	r18, r7, r19
9000d25c:	be5200c0 	bltid	r18, 192		// 9000d31c
9000d260:	10db0000 	addk	r6, r27, r0
9000d264:	e8780028 	lwi	r3, r24, 40
9000d268:	e8b80020 	lwi	r5, r24, 32
9000d26c:	99fc1800 	brald	r15, r3
9000d270:	10db0000 	addk	r6, r27, r0
9000d274:	be63ff38 	bleid	r3, -200		// 9000d1ac
9000d278:	12c30000 	addk	r22, r3, r0
9000d27c:	1756d000 	rsubk	r26, r22, r26
9000d280:	bc3afedc 	bnei	r26, -292		// 9000d15c
9000d284:	b9f4f17c 	brlid	r15, -3716	// 9000c400 <fflush>
9000d288:	10b80000 	addk	r5, r24, r0
9000d28c:	be23ff20 	bneid	r3, -224		// 9000d1ac
9000d290:	13a30000 	addk	r29, r3, r0
9000d294:	b810fecc 	brid	-308		// 9000d160
9000d298:	e87c0008 	lwi	r3, r28, 8
9000d29c:	e8b80000 	lwi	r5, r24, 0
9000d2a0:	e8780010 	lwi	r3, r24, 16
9000d2a4:	16451803 	cmpu	r18, r5, r3
9000d2a8:	beb20040 	bgeid	r18, 64		// 9000d2e8
9000d2ac:	12d30000 	addk	r22, r19, r0
9000d2b0:	16579803 	cmpu	r18, r23, r19
9000d2b4:	beb20034 	bgeid	r18, 52		// 9000d2e8
9000d2b8:	10db0000 	addk	r6, r27, r0
9000d2bc:	10f30000 	addk	r7, r19, r0
9000d2c0:	b9f40718 	brlid	r15, 1816	// 9000d9d8 <memmove>
9000d2c4:	13530000 	addk	r26, r19, r0
9000d2c8:	e8980000 	lwi	r4, r24, 0
9000d2cc:	10b80000 	addk	r5, r24, r0
9000d2d0:	10849800 	addk	r4, r4, r19
9000d2d4:	b9f4f12c 	brlid	r15, -3796	// 9000c400 <fflush>
9000d2d8:	f8980000 	swi	r4, r24, 0
9000d2dc:	bc03ff4c 	beqi	r3, -180		// 9000d228
9000d2e0:	b810fed0 	brid	-304		// 9000d1b0
9000d2e4:	e478000c 	lhui	r3, r24, 12
9000d2e8:	e8f80014 	lwi	r7, r24, 20
9000d2ec:	1647b803 	cmpu	r18, r7, r23
9000d2f0:	be520074 	bltid	r18, 116		// 9000d364
9000d2f4:	10db0000 	addk	r6, r27, r0
9000d2f8:	e8780028 	lwi	r3, r24, 40
9000d2fc:	e8b80020 	lwi	r5, r24, 32
9000d300:	99fc1800 	brald	r15, r3
9000d304:	10db0000 	addk	r6, r27, r0
9000d308:	be63fea4 	bleid	r3, -348		// 9000d1ac
9000d30c:	12630000 	addk	r19, r3, r0
9000d310:	12c30000 	addk	r22, r3, r0
9000d314:	b810ff14 	brid	-236		// 9000d228
9000d318:	13430000 	addk	r26, r3, r0
9000d31c:	10f30000 	addk	r7, r19, r0
9000d320:	b9f406b8 	brlid	r15, 1720	// 9000d9d8 <memmove>
9000d324:	12d30000 	addk	r22, r19, r0
9000d328:	e8980008 	lwi	r4, r24, 8
9000d32c:	e8780000 	lwi	r3, r24, 0
9000d330:	14932000 	rsubk	r4, r19, r4
9000d334:	10639800 	addk	r3, r3, r19
9000d338:	f8980008 	swi	r4, r24, 8
9000d33c:	b810fe18 	brid	-488		// 9000d154
9000d340:	f8780000 	swi	r3, r24, 0
9000d344:	10f70000 	addk	r7, r23, r0
9000d348:	b9f404ec 	brlid	r15, 1260	// 9000d834 <memchr>
9000d34c:	30c0000a 	addik	r6, r0, 10
9000d350:	be030090 	beqid	r3, 144		// 9000d3e0
9000d354:	147b1800 	rsubk	r3, r27, r3
9000d358:	33430001 	addik	r26, r3, 1
9000d35c:	b810fda0 	brid	-608		// 9000d0fc
9000d360:	33a00001 	addik	r29, r0, 1
9000d364:	10f70000 	addk	r7, r23, r0
9000d368:	12770000 	addk	r19, r23, r0
9000d36c:	b9f4066c 	brlid	r15, 1644	// 9000d9d8 <memmove>
9000d370:	12d70000 	addk	r22, r23, r0
9000d374:	e8980008 	lwi	r4, r24, 8
9000d378:	e8780000 	lwi	r3, r24, 0
9000d37c:	13570000 	addk	r26, r23, r0
9000d380:	14972000 	rsubk	r4, r23, r4
9000d384:	1063b800 	addk	r3, r3, r23
9000d388:	f8980008 	swi	r4, r24, 8
9000d38c:	b810fe9c 	brid	-356		// 9000d228
9000d390:	f8780000 	swi	r3, r24, 0
9000d394:	e8780010 	lwi	r3, r24, 16
9000d398:	e8980000 	lwi	r4, r24, 0
9000d39c:	b0009001 	imm	-28671
9000d3a0:	e8a037a4 	lwi	r5, r0, 14244
9000d3a4:	10c30000 	addk	r6, r3, r0
9000d3a8:	16c32000 	rsubk	r22, r3, r4
9000d3ac:	1357b000 	addk	r26, r23, r22
9000d3b0:	b9f42334 	brlid	r15, 9012	// 9000f6e4 <_realloc_r>
9000d3b4:	10fa0000 	addk	r7, r26, r0
9000d3b8:	be03fde4 	beqid	r3, -540		// 9000d19c
9000d3bc:	10a30000 	addk	r5, r3, r0
9000d3c0:	10f70000 	addk	r7, r23, r0
9000d3c4:	12770000 	addk	r19, r23, r0
9000d3c8:	1063b000 	addk	r3, r3, r22
9000d3cc:	f8780000 	swi	r3, r24, 0
9000d3d0:	fb580014 	swi	r26, r24, 20
9000d3d4:	f8b80010 	swi	r5, r24, 16
9000d3d8:	b810fe10 	brid	-496		// 9000d1e8
9000d3dc:	faf80008 	swi	r23, r24, 8
9000d3e0:	33570001 	addik	r26, r23, 1
9000d3e4:	b810fd18 	brid	-744		// 9000d0fc
9000d3e8:	33a00001 	addik	r29, r0, 1
9000d3ec:	b9f4d418 	brlid	r15, -11240	// 9000a804 <__swsetup>
9000d3f0:	80000000 	or	r0, r0, r0
9000d3f4:	be23fcac 	bneid	r3, -852		// 9000d0a0
9000d3f8:	3080ffff 	addik	r4, r0, -1
9000d3fc:	b810fc40 	brid	-960		// 9000d03c
9000d400:	e498000c 	lhui	r4, r24, 12

9000d404 <_fwalk_reent>:
9000d404:	3021ffc8 	addik	r1, r1, -56
9000d408:	fb410030 	swi	r26, r1, 48
9000d40c:	13450000 	addk	r26, r5, r0
9000d410:	fae10024 	swi	r23, r1, 36
9000d414:	fb21002c 	swi	r25, r1, 44
9000d418:	32fa00d8 	addik	r23, r26, 216
9000d41c:	fb610034 	swi	r27, r1, 52
9000d420:	f9e10000 	swi	r15, r1, 0
9000d424:	fa61001c 	swi	r19, r1, 28
9000d428:	fac10020 	swi	r22, r1, 32
9000d42c:	fb010028 	swi	r24, r1, 40
9000d430:	13660000 	addk	r27, r6, r0
9000d434:	b9f4f120 	brlid	r15, -3808	// 9000c554 <__sfp_lock_acquire>
9000d438:	13370000 	addk	r25, r23, r0
9000d43c:	bc170060 	beqi	r23, 96		// 9000d49c
9000d440:	13200000 	addk	r25, r0, r0
9000d444:	eb170004 	lwi	r24, r23, 4
9000d448:	3078ffff 	addik	r3, r24, -1
9000d44c:	be430048 	bltid	r3, 72		// 9000d494
9000d450:	ea770008 	lwi	r19, r23, 8
9000d454:	12c00000 	addk	r22, r0, r0
9000d458:	e473000c 	lhui	r3, r19, 12
9000d45c:	be03002c 	beqid	r3, 44		// 9000d488
9000d460:	32d60001 	addik	r22, r22, 1
9000d464:	e473000e 	lhui	r3, r19, 14
9000d468:	10d30000 	addk	r6, r19, r0
9000d46c:	b0000000 	imm	0
9000d470:	aa43ffff 	xori	r18, r3, -1
9000d474:	be120014 	beqid	r18, 20		// 9000d488
9000d478:	10ba0000 	addk	r5, r26, r0
9000d47c:	99fcd800 	brald	r15, r27
9000d480:	80000000 	or	r0, r0, r0
9000d484:	83391800 	or	r25, r25, r3
9000d488:	1656c000 	rsubk	r18, r22, r24
9000d48c:	be32ffcc 	bneid	r18, -52		// 9000d458
9000d490:	3273005c 	addik	r19, r19, 92
9000d494:	eaf70000 	lwi	r23, r23, 0
9000d498:	bc37ffac 	bnei	r23, -84		// 9000d444
9000d49c:	b9f4f0c0 	brlid	r15, -3904	// 9000c55c <__sfp_lock_release>
9000d4a0:	80000000 	or	r0, r0, r0
9000d4a4:	10790000 	addk	r3, r25, r0
9000d4a8:	e9e10000 	lwi	r15, r1, 0
9000d4ac:	ea61001c 	lwi	r19, r1, 28
9000d4b0:	eac10020 	lwi	r22, r1, 32
9000d4b4:	eae10024 	lwi	r23, r1, 36
9000d4b8:	eb010028 	lwi	r24, r1, 40
9000d4bc:	eb21002c 	lwi	r25, r1, 44
9000d4c0:	eb410030 	lwi	r26, r1, 48
9000d4c4:	eb610034 	lwi	r27, r1, 52
9000d4c8:	b60f0008 	rtsd	r15, 8
9000d4cc:	30210038 	addik	r1, r1, 56

9000d4d0 <_fwalk>:
9000d4d0:	3021ffcc 	addik	r1, r1, -52
9000d4d4:	fac10020 	swi	r22, r1, 32
9000d4d8:	12c50000 	addk	r22, r5, r0
9000d4dc:	fae10024 	swi	r23, r1, 36
9000d4e0:	fb21002c 	swi	r25, r1, 44
9000d4e4:	32f600d8 	addik	r23, r22, 216
9000d4e8:	fb410030 	swi	r26, r1, 48
9000d4ec:	f9e10000 	swi	r15, r1, 0
9000d4f0:	fa61001c 	swi	r19, r1, 28
9000d4f4:	fb010028 	swi	r24, r1, 40
9000d4f8:	13460000 	addk	r26, r6, r0
9000d4fc:	b9f4f058 	brlid	r15, -4008	// 9000c554 <__sfp_lock_acquire>
9000d500:	13370000 	addk	r25, r23, r0
9000d504:	bc17005c 	beqi	r23, 92		// 9000d560
9000d508:	13200000 	addk	r25, r0, r0
9000d50c:	eb170004 	lwi	r24, r23, 4
9000d510:	3078ffff 	addik	r3, r24, -1
9000d514:	be430044 	bltid	r3, 68		// 9000d558
9000d518:	ea770008 	lwi	r19, r23, 8
9000d51c:	12c00000 	addk	r22, r0, r0
9000d520:	e473000c 	lhui	r3, r19, 12
9000d524:	be030028 	beqid	r3, 40		// 9000d54c
9000d528:	32d60001 	addik	r22, r22, 1
9000d52c:	e473000e 	lhui	r3, r19, 14
9000d530:	b0000000 	imm	0
9000d534:	aa43ffff 	xori	r18, r3, -1
9000d538:	be120014 	beqid	r18, 20		// 9000d54c
9000d53c:	10b30000 	addk	r5, r19, r0
9000d540:	99fcd000 	brald	r15, r26
9000d544:	80000000 	or	r0, r0, r0
9000d548:	83391800 	or	r25, r25, r3
9000d54c:	1656c000 	rsubk	r18, r22, r24
9000d550:	be32ffd0 	bneid	r18, -48		// 9000d520
9000d554:	3273005c 	addik	r19, r19, 92
9000d558:	eaf70000 	lwi	r23, r23, 0
9000d55c:	bc37ffb0 	bnei	r23, -80		// 9000d50c
9000d560:	b9f4effc 	brlid	r15, -4100	// 9000c55c <__sfp_lock_release>
9000d564:	80000000 	or	r0, r0, r0
9000d568:	10790000 	addk	r3, r25, r0
9000d56c:	e9e10000 	lwi	r15, r1, 0
9000d570:	ea61001c 	lwi	r19, r1, 28
9000d574:	eac10020 	lwi	r22, r1, 32
9000d578:	eae10024 	lwi	r23, r1, 36
9000d57c:	eb010028 	lwi	r24, r1, 40
9000d580:	eb21002c 	lwi	r25, r1, 44
9000d584:	eb410030 	lwi	r26, r1, 48
9000d588:	b60f0008 	rtsd	r15, 8
9000d58c:	30210034 	addik	r1, r1, 52

9000d590 <__locale_charset>:
9000d590:	b0009001 	imm	-28671
9000d594:	e86034bc 	lwi	r3, r0, 13500
9000d598:	b60f0008 	rtsd	r15, 8
9000d59c:	80000000 	or	r0, r0, r0

9000d5a0 <_localeconv_r>:
9000d5a0:	b0009001 	imm	-28671
9000d5a4:	30603480 	addik	r3, r0, 13440
9000d5a8:	b60f0008 	rtsd	r15, 8
9000d5ac:	80000000 	or	r0, r0, r0

9000d5b0 <_setlocale_r>:
9000d5b0:	3021ffd8 	addik	r1, r1, -40
9000d5b4:	fae10024 	swi	r23, r1, 36
9000d5b8:	12e60000 	addk	r23, r6, r0
9000d5bc:	b0009001 	imm	-28671
9000d5c0:	30c03474 	addik	r6, r0, 13428
9000d5c4:	fa61001c 	swi	r19, r1, 28
9000d5c8:	fac10020 	swi	r22, r1, 32
9000d5cc:	f9e10000 	swi	r15, r1, 0
9000d5d0:	12c50000 	addk	r22, r5, r0
9000d5d4:	12670000 	addk	r19, r7, r0
9000d5d8:	10a70000 	addk	r5, r7, r0
9000d5dc:	be070030 	beqid	r7, 48		// 9000d60c
9000d5e0:	10860000 	addk	r4, r6, r0
9000d5e4:	b9f42bfc 	brlid	r15, 11260	// 900101e0 <strcmp>
9000d5e8:	80000000 	or	r0, r0, r0
9000d5ec:	b0009001 	imm	-28671
9000d5f0:	30c03478 	addik	r6, r0, 13432
9000d5f4:	be230034 	bneid	r3, 52		// 9000d628
9000d5f8:	10b30000 	addk	r5, r19, r0
9000d5fc:	b0009001 	imm	-28671
9000d600:	30803474 	addik	r4, r0, 13428
9000d604:	fa760020 	swi	r19, r22, 32
9000d608:	faf6001c 	swi	r23, r22, 28
9000d60c:	10640000 	addk	r3, r4, r0
9000d610:	e9e10000 	lwi	r15, r1, 0
9000d614:	ea61001c 	lwi	r19, r1, 28
9000d618:	eac10020 	lwi	r22, r1, 32
9000d61c:	eae10024 	lwi	r23, r1, 36
9000d620:	b60f0008 	rtsd	r15, 8
9000d624:	30210028 	addik	r1, r1, 40
9000d628:	b9f42bb8 	brlid	r15, 11192	// 900101e0 <strcmp>
9000d62c:	80000000 	or	r0, r0, r0
9000d630:	be03ffcc 	beqid	r3, -52		// 9000d5fc
9000d634:	10800000 	addk	r4, r0, r0
9000d638:	b810ffd8 	brid	-40		// 9000d610
9000d63c:	10640000 	addk	r3, r4, r0

9000d640 <localeconv>:
9000d640:	b0009001 	imm	-28671
9000d644:	30603480 	addik	r3, r0, 13440
9000d648:	b60f0008 	rtsd	r15, 8
9000d64c:	80000000 	or	r0, r0, r0

9000d650 <setlocale>:
9000d650:	3021ffd8 	addik	r1, r1, -40
9000d654:	fa61001c 	swi	r19, r1, 28
9000d658:	12660000 	addk	r19, r6, r0
9000d65c:	b0009001 	imm	-28671
9000d660:	30c03474 	addik	r6, r0, 13428
9000d664:	fac10020 	swi	r22, r1, 32
9000d668:	fae10024 	swi	r23, r1, 36
9000d66c:	f9e10000 	swi	r15, r1, 0
9000d670:	12e50000 	addk	r23, r5, r0
9000d674:	b0009001 	imm	-28671
9000d678:	eac037a4 	lwi	r22, r0, 14244
9000d67c:	10b30000 	addk	r5, r19, r0
9000d680:	be130030 	beqid	r19, 48		// 9000d6b0
9000d684:	10860000 	addk	r4, r6, r0
9000d688:	b9f42b58 	brlid	r15, 11096	// 900101e0 <strcmp>
9000d68c:	80000000 	or	r0, r0, r0
9000d690:	b0009001 	imm	-28671
9000d694:	30c03478 	addik	r6, r0, 13432
9000d698:	be230034 	bneid	r3, 52		// 9000d6cc
9000d69c:	10b30000 	addk	r5, r19, r0
9000d6a0:	b0009001 	imm	-28671
9000d6a4:	30803474 	addik	r4, r0, 13428
9000d6a8:	fa760020 	swi	r19, r22, 32
9000d6ac:	faf6001c 	swi	r23, r22, 28
9000d6b0:	10640000 	addk	r3, r4, r0
9000d6b4:	e9e10000 	lwi	r15, r1, 0
9000d6b8:	ea61001c 	lwi	r19, r1, 28
9000d6bc:	eac10020 	lwi	r22, r1, 32
9000d6c0:	eae10024 	lwi	r23, r1, 36
9000d6c4:	b60f0008 	rtsd	r15, 8
9000d6c8:	30210028 	addik	r1, r1, 40
9000d6cc:	b9f42b14 	brlid	r15, 11028	// 900101e0 <strcmp>
9000d6d0:	80000000 	or	r0, r0, r0
9000d6d4:	be03ffcc 	beqid	r3, -52		// 9000d6a0
9000d6d8:	10800000 	addk	r4, r0, r0
9000d6dc:	b810ffd8 	brid	-40		// 9000d6b4
9000d6e0:	10640000 	addk	r3, r4, r0

9000d6e4 <__smakebuf>:
9000d6e4:	3021ffa0 	addik	r1, r1, -96
9000d6e8:	fa610058 	swi	r19, r1, 88
9000d6ec:	fac1005c 	swi	r22, r1, 92
9000d6f0:	f9e10000 	swi	r15, r1, 0
9000d6f4:	e465000c 	lhui	r3, r5, 12
9000d6f8:	a6c30002 	andi	r22, r3, 2
9000d6fc:	be160030 	beqid	r22, 48		// 9000d72c
9000d700:	12650000 	addk	r19, r5, r0
9000d704:	30850047 	addik	r4, r5, 71
9000d708:	30600001 	addik	r3, r0, 1
9000d70c:	f8650014 	swi	r3, r5, 20
9000d710:	f8850010 	swi	r4, r5, 16
9000d714:	f8850000 	swi	r4, r5, 0
9000d718:	e9e10000 	lwi	r15, r1, 0
9000d71c:	ea610058 	lwi	r19, r1, 88
9000d720:	eac1005c 	lwi	r22, r1, 92
9000d724:	b60f0008 	rtsd	r15, 8
9000d728:	30210060 	addik	r1, r1, 96
9000d72c:	e465000e 	lhui	r3, r5, 14
9000d730:	90c30061 	sext16	r6, r3
9000d734:	bc460038 	blti	r6, 56		// 9000d76c
9000d738:	b0009001 	imm	-28671
9000d73c:	e8a037a4 	lwi	r5, r0, 14244
9000d740:	b9f42ee4 	brlid	r15, 12004	// 90010624 <_fstat_r>
9000d744:	30e1001c 	addik	r7, r1, 28
9000d748:	be430024 	bltid	r3, 36		// 9000d76c
9000d74c:	e8610020 	lwi	r3, r1, 32
9000d750:	30802000 	addik	r4, r0, 8192	// 2000 <_STACK_SIZE>
9000d754:	b0000000 	imm	0
9000d758:	a463f000 	andi	r3, r3, -4096
9000d75c:	b0000000 	imm	0
9000d760:	aa438000 	xori	r18, r3, -32768
9000d764:	be120084 	beqid	r18, 132		// 9000d7e8
9000d768:	8ac32400 	pcmpeq	r22, r3, r4
9000d76c:	e473000c 	lhui	r3, r19, 12
9000d770:	a0630800 	ori	r3, r3, 2048
9000d774:	f473000c 	shi	r3, r19, 12
9000d778:	b0009001 	imm	-28671
9000d77c:	e8a037a4 	lwi	r5, r0, 14244
9000d780:	b9f49a64 	brlid	r15, -26012	// 900071e4 <_malloc_r>
9000d784:	30c00400 	addik	r6, r0, 1024
9000d788:	be030088 	beqid	r3, 136		// 9000d810
9000d78c:	10c30000 	addk	r6, r3, r0
9000d790:	e493000c 	lhui	r4, r19, 12
9000d794:	b0009001 	imm	-28671
9000d798:	e86037a4 	lwi	r3, r0, 14244
9000d79c:	b0009000 	imm	-28672
9000d7a0:	30a0c584 	addik	r5, r0, -14972
9000d7a4:	a0840080 	ori	r4, r4, 128
9000d7a8:	f493000c 	shi	r4, r19, 12
9000d7ac:	f8a30028 	swi	r5, r3, 40
9000d7b0:	30600400 	addik	r3, r0, 1024
9000d7b4:	f8d30010 	swi	r6, r19, 16
9000d7b8:	f8730014 	swi	r3, r19, 20
9000d7bc:	be16ff5c 	beqid	r22, -164		// 9000d718
9000d7c0:	f8d30000 	swi	r6, r19, 0
9000d7c4:	e4b3000e 	lhui	r5, r19, 14
9000d7c8:	b9f42ff0 	brlid	r15, 12272	// 900107b8 <isatty>
9000d7cc:	90a50061 	sext16	r5, r5
9000d7d0:	be03ff4c 	beqid	r3, -180		// 9000d71c
9000d7d4:	e9e10000 	lwi	r15, r1, 0
9000d7d8:	e473000c 	lhui	r3, r19, 12
9000d7dc:	a0630001 	ori	r3, r3, 1
9000d7e0:	b810ff38 	brid	-200		// 9000d718
9000d7e4:	f473000c 	shi	r3, r19, 12
9000d7e8:	e873002c 	lwi	r3, r19, 44
9000d7ec:	b0009001 	imm	-28671
9000d7f0:	aa430088 	xori	r18, r3, 136
9000d7f4:	be32ff78 	bneid	r18, -136		// 9000d76c
9000d7f8:	30800400 	addik	r4, r0, 1024
9000d7fc:	e473000c 	lhui	r3, r19, 12
9000d800:	f8930050 	swi	r4, r19, 80
9000d804:	80632000 	or	r3, r3, r4
9000d808:	b810ff70 	brid	-144		// 9000d778
9000d80c:	f473000c 	shi	r3, r19, 12
9000d810:	e473000c 	lhui	r3, r19, 12
9000d814:	30b30047 	addik	r5, r19, 71
9000d818:	30800001 	addik	r4, r0, 1
9000d81c:	a0630002 	ori	r3, r3, 2
9000d820:	f8930014 	swi	r4, r19, 20
9000d824:	f473000c 	shi	r3, r19, 12
9000d828:	f8b30010 	swi	r5, r19, 16
9000d82c:	b810feec 	brid	-276		// 9000d718
9000d830:	f8b30000 	swi	r5, r19, 0

9000d834 <memchr>:
9000d834:	22400003 	addi	r18, r0, 3
9000d838:	16479003 	cmpu	r18, r7, r18
9000d83c:	beb200bc 	bgeid	r18, 188		// 9000d8f8
9000d840:	a4c600ff 	andi	r6, r6, 255
9000d844:	a4650003 	andi	r3, r5, 3
9000d848:	be2300b0 	bneid	r3, 176		// 9000d8f8
9000d84c:	64660408 	bslli	r3, r6, 8
9000d850:	10633000 	addk	r3, r3, r6
9000d854:	64630408 	bslli	r3, r3, 8
9000d858:	10633000 	addk	r3, r3, r6
9000d85c:	64630408 	bslli	r3, r3, 8
9000d860:	b8100048 	brid	72		// 9000d8a8
9000d864:	11233000 	addk	r9, r3, r6
9000d868:	e0650001 	lbui	r3, r5, 1
9000d86c:	16433000 	rsubk	r18, r3, r6
9000d870:	be120070 	beqid	r18, 112		// 9000d8e0
9000d874:	31050001 	addik	r8, r5, 1
9000d878:	e0650002 	lbui	r3, r5, 2
9000d87c:	16433000 	rsubk	r18, r3, r6
9000d880:	be120060 	beqid	r18, 96		// 9000d8e0
9000d884:	31050002 	addik	r8, r5, 2
9000d888:	e0650003 	lbui	r3, r5, 3
9000d88c:	16433000 	rsubk	r18, r3, r6
9000d890:	be120050 	beqid	r18, 80		// 9000d8e0
9000d894:	31050003 	addik	r8, r5, 3
9000d898:	22400003 	addi	r18, r0, 3
9000d89c:	16479003 	cmpu	r18, r7, r18
9000d8a0:	beb20058 	bgeid	r18, 88		// 9000d8f8
9000d8a4:	30a50004 	addik	r5, r5, 4
9000d8a8:	e8650000 	lwi	r3, r5, 0
9000d8ac:	30e7fffc 	addik	r7, r7, -4
9000d8b0:	88634800 	xor	r3, r3, r9
9000d8b4:	b000fefe 	imm	-258
9000d8b8:	3083feff 	addik	r4, r3, -257
9000d8bc:	b0008080 	imm	-32640
9000d8c0:	a4848080 	andi	r4, r4, -32640
9000d8c4:	a863ffff 	xori	r3, r3, -1
9000d8c8:	84632000 	and	r3, r3, r4
9000d8cc:	be03ffcc 	beqid	r3, -52		// 9000d898
9000d8d0:	11050000 	addk	r8, r5, r0
9000d8d4:	e0650000 	lbui	r3, r5, 0
9000d8d8:	16433000 	rsubk	r18, r3, r6
9000d8dc:	bc32ff8c 	bnei	r18, -116		// 9000d868
9000d8e0:	b60f0008 	rtsd	r15, 8
9000d8e4:	10680000 	addk	r3, r8, r0
9000d8e8:	e0650000 	lbui	r3, r5, 0
9000d8ec:	16433000 	rsubk	r18, r3, r6
9000d8f0:	bc120020 	beqi	r18, 32		// 9000d910
9000d8f4:	30a50001 	addik	r5, r5, 1
9000d8f8:	30e7ffff 	addik	r7, r7, -1
9000d8fc:	aa47ffff 	xori	r18, r7, -1
9000d900:	be32ffe8 	bneid	r18, -24		// 9000d8e8
9000d904:	10600000 	addk	r3, r0, r0
9000d908:	b60f0008 	rtsd	r15, 8
9000d90c:	80000000 	or	r0, r0, r0
9000d910:	b60f0008 	rtsd	r15, 8
9000d914:	10650000 	addk	r3, r5, r0

9000d918 <memcpy>:
9000d918:	2240000f 	addi	r18, r0, 15
9000d91c:	16479003 	cmpu	r18, r7, r18
9000d920:	beb20018 	bgeid	r18, 24		// 9000d938
9000d924:	10850000 	addk	r4, r5, r0
9000d928:	80662800 	or	r3, r6, r5
9000d92c:	a4630003 	andi	r3, r3, 3
9000d930:	be030034 	beqid	r3, 52		// 9000d964
9000d934:	11050000 	addk	r8, r5, r0
9000d938:	bc070024 	beqi	r7, 36		// 9000d95c
9000d93c:	10640000 	addk	r3, r4, r0
9000d940:	10e72000 	addk	r7, r7, r4
9000d944:	e0860000 	lbui	r4, r6, 0
9000d948:	f0830000 	sbi	r4, r3, 0
9000d94c:	30630001 	addik	r3, r3, 1
9000d950:	16433800 	rsubk	r18, r3, r7
9000d954:	be32fff0 	bneid	r18, -16		// 9000d944
9000d958:	30c60001 	addik	r6, r6, 1
9000d95c:	b60f0008 	rtsd	r15, 8
9000d960:	10650000 	addk	r3, r5, r0
9000d964:	e8860000 	lwi	r4, r6, 0
9000d968:	30e7fff0 	addik	r7, r7, -16
9000d96c:	f8880000 	swi	r4, r8, 0
9000d970:	e8660004 	lwi	r3, r6, 4
9000d974:	f8680004 	swi	r3, r8, 4
9000d978:	e8860008 	lwi	r4, r6, 8
9000d97c:	f8880008 	swi	r4, r8, 8
9000d980:	e866000c 	lwi	r3, r6, 12
9000d984:	30c60010 	addik	r6, r6, 16
9000d988:	f868000c 	swi	r3, r8, 12
9000d98c:	2240000f 	addi	r18, r0, 15
9000d990:	16479003 	cmpu	r18, r7, r18
9000d994:	be52ffd0 	bltid	r18, -48		// 9000d964
9000d998:	31080010 	addik	r8, r8, 16
9000d99c:	22400003 	addi	r18, r0, 3
9000d9a0:	16479003 	cmpu	r18, r7, r18
9000d9a4:	bcb2002c 	bgei	r18, 44		// 9000d9d0
9000d9a8:	10800000 	addk	r4, r0, r0
9000d9ac:	c8662000 	lw	r3, r6, r4
9000d9b0:	30e7fffc 	addik	r7, r7, -4
9000d9b4:	d8682000 	sw	r3, r8, r4
9000d9b8:	22400003 	addi	r18, r0, 3
9000d9bc:	16479003 	cmpu	r18, r7, r18
9000d9c0:	be52ffec 	bltid	r18, -20		// 9000d9ac
9000d9c4:	30840004 	addik	r4, r4, 4
9000d9c8:	10c62000 	addk	r6, r6, r4
9000d9cc:	11044000 	addk	r8, r4, r8
9000d9d0:	b810ff68 	brid	-152		// 9000d938
9000d9d4:	10880000 	addk	r4, r8, r0

9000d9d8 <memmove>:
9000d9d8:	10860000 	addk	r4, r6, r0
9000d9dc:	16453003 	cmpu	r18, r5, r6
9000d9e0:	beb20040 	bgeid	r18, 64		// 9000da20
9000d9e4:	11250000 	addk	r9, r5, r0
9000d9e8:	11063800 	addk	r8, r6, r7
9000d9ec:	16482803 	cmpu	r18, r8, r5
9000d9f0:	bcb20030 	bgei	r18, 48		// 9000da20
9000d9f4:	bc070024 	beqi	r7, 36		// 9000da18
9000d9f8:	10653800 	addk	r3, r5, r7
9000d9fc:	14e71800 	rsubk	r7, r7, r3
9000da00:	3108ffff 	addik	r8, r8, -1
9000da04:	e0880000 	lbui	r4, r8, 0
9000da08:	3063ffff 	addik	r3, r3, -1
9000da0c:	16471800 	rsubk	r18, r7, r3
9000da10:	be32fff0 	bneid	r18, -16		// 9000da00
9000da14:	f0830000 	sbi	r4, r3, 0
9000da18:	b60f0008 	rtsd	r15, 8
9000da1c:	10650000 	addk	r3, r5, r0
9000da20:	2240000f 	addi	r18, r0, 15
9000da24:	16479003 	cmpu	r18, r7, r18
9000da28:	be520034 	bltid	r18, 52		// 9000da5c
9000da2c:	80642800 	or	r3, r4, r5
9000da30:	bc07ffe8 	beqi	r7, -24		// 9000da18
9000da34:	10690000 	addk	r3, r9, r0
9000da38:	10e74800 	addk	r7, r7, r9
9000da3c:	e0860000 	lbui	r4, r6, 0
9000da40:	f0830000 	sbi	r4, r3, 0
9000da44:	30630001 	addik	r3, r3, 1
9000da48:	16471800 	rsubk	r18, r7, r3
9000da4c:	be32fff0 	bneid	r18, -16		// 9000da3c
9000da50:	30c60001 	addik	r6, r6, 1
9000da54:	b60f0008 	rtsd	r15, 8
9000da58:	10650000 	addk	r3, r5, r0
9000da5c:	a4630003 	andi	r3, r3, 3
9000da60:	be23ffd0 	bneid	r3, -48		// 9000da30
9000da64:	11050000 	addk	r8, r5, r0
9000da68:	10c40000 	addk	r6, r4, r0
9000da6c:	e8860000 	lwi	r4, r6, 0
9000da70:	30e7fff0 	addik	r7, r7, -16
9000da74:	f8880000 	swi	r4, r8, 0
9000da78:	e8660004 	lwi	r3, r6, 4
9000da7c:	f8680004 	swi	r3, r8, 4
9000da80:	e8860008 	lwi	r4, r6, 8
9000da84:	f8880008 	swi	r4, r8, 8
9000da88:	e866000c 	lwi	r3, r6, 12
9000da8c:	30c60010 	addik	r6, r6, 16
9000da90:	f868000c 	swi	r3, r8, 12
9000da94:	2240000f 	addi	r18, r0, 15
9000da98:	16479003 	cmpu	r18, r7, r18
9000da9c:	be52ffd0 	bltid	r18, -48		// 9000da6c
9000daa0:	31080010 	addik	r8, r8, 16
9000daa4:	22400003 	addi	r18, r0, 3
9000daa8:	16479003 	cmpu	r18, r7, r18
9000daac:	bcb2002c 	bgei	r18, 44		// 9000dad8
9000dab0:	10800000 	addk	r4, r0, r0
9000dab4:	c8662000 	lw	r3, r6, r4
9000dab8:	30e7fffc 	addik	r7, r7, -4
9000dabc:	d8682000 	sw	r3, r8, r4
9000dac0:	22400003 	addi	r18, r0, 3
9000dac4:	16479003 	cmpu	r18, r7, r18
9000dac8:	be52ffec 	bltid	r18, -20		// 9000dab4
9000dacc:	30840004 	addik	r4, r4, 4
9000dad0:	10c62000 	addk	r6, r6, r4
9000dad4:	11044000 	addk	r8, r4, r8
9000dad8:	b810ff58 	brid	-168		// 9000da30
9000dadc:	11280000 	addk	r9, r8, r0

9000dae0 <_hi0bits>:
9000dae0:	b000ffff 	imm	-1
9000dae4:	a4650000 	andi	r3, r5, 0
9000dae8:	be230010 	bneid	r3, 16		// 9000daf8
9000daec:	10800000 	addk	r4, r0, r0
9000daf0:	64a50410 	bslli	r5, r5, 16
9000daf4:	30800010 	addik	r4, r0, 16	// 10 <_vector_interrupt>
9000daf8:	b000ff00 	imm	-256
9000dafc:	a4650000 	andi	r3, r5, 0
9000db00:	bc23000c 	bnei	r3, 12		// 9000db0c
9000db04:	64a50408 	bslli	r5, r5, 8
9000db08:	30840008 	addik	r4, r4, 8
9000db0c:	b000f000 	imm	-4096
9000db10:	a4650000 	andi	r3, r5, 0
9000db14:	bc23000c 	bnei	r3, 12		// 9000db20
9000db18:	64a50404 	bslli	r5, r5, 4
9000db1c:	30840004 	addik	r4, r4, 4
9000db20:	b000c000 	imm	-16384
9000db24:	a4650000 	andi	r3, r5, 0
9000db28:	bc23000c 	bnei	r3, 12		// 9000db34
9000db2c:	64a50402 	bslli	r5, r5, 2
9000db30:	30840002 	addik	r4, r4, 2
9000db34:	bc450014 	blti	r5, 20		// 9000db48
9000db38:	b0004000 	imm	16384
9000db3c:	a4650000 	andi	r3, r5, 0
9000db40:	be030010 	beqid	r3, 16		// 9000db50
9000db44:	30840001 	addik	r4, r4, 1
9000db48:	b60f0008 	rtsd	r15, 8
9000db4c:	10640000 	addk	r3, r4, r0
9000db50:	30800020 	addik	r4, r0, 32	// 20 <_vector_hw_exception>
9000db54:	b60f0008 	rtsd	r15, 8
9000db58:	10640000 	addk	r3, r4, r0

9000db5c <_lo0bits>:
9000db5c:	e8850000 	lwi	r4, r5, 0
9000db60:	a4c40007 	andi	r6, r4, 7
9000db64:	be060030 	beqid	r6, 48		// 9000db94
9000db68:	a4640001 	andi	r3, r4, 1
9000db6c:	be230020 	bneid	r3, 32		// 9000db8c
9000db70:	10c00000 	addk	r6, r0, r0
9000db74:	a4640002 	andi	r3, r4, 2
9000db78:	be2300d0 	bneid	r3, 208		// 9000dc48
9000db7c:	30c00001 	addik	r6, r0, 1
9000db80:	64640002 	bsrli	r3, r4, 2
9000db84:	30c00002 	addik	r6, r0, 2
9000db88:	f8650000 	swi	r3, r5, 0
9000db8c:	b60f0008 	rtsd	r15, 8
9000db90:	10660000 	addk	r3, r6, r0
9000db94:	b0000000 	imm	0
9000db98:	a464ffff 	andi	r3, r4, -1
9000db9c:	be030058 	beqid	r3, 88		// 9000dbf4
9000dba0:	a46400ff 	andi	r3, r4, 255
9000dba4:	bc030080 	beqi	r3, 128		// 9000dc24
9000dba8:	a464000f 	andi	r3, r4, 15
9000dbac:	bc030060 	beqi	r3, 96		// 9000dc0c
9000dbb0:	a4640003 	andi	r3, r4, 3
9000dbb4:	bc030028 	beqi	r3, 40		// 9000dbdc
9000dbb8:	a4640001 	andi	r3, r4, 1
9000dbbc:	be230018 	bneid	r3, 24		// 9000dbd4
9000dbc0:	10660000 	addk	r3, r6, r0
9000dbc4:	90840041 	srl	r4, r4
9000dbc8:	be040074 	beqid	r4, 116		// 9000dc3c
9000dbcc:	30c60001 	addik	r6, r6, 1
9000dbd0:	10660000 	addk	r3, r6, r0
9000dbd4:	b60f0008 	rtsd	r15, 8
9000dbd8:	f8850000 	swi	r4, r5, 0
9000dbdc:	64840002 	bsrli	r4, r4, 2
9000dbe0:	a4640001 	andi	r3, r4, 1
9000dbe4:	be03ffe0 	beqid	r3, -32		// 9000dbc4
9000dbe8:	30c60002 	addik	r6, r6, 2
9000dbec:	b810ffe8 	brid	-24		// 9000dbd4
9000dbf0:	10660000 	addk	r3, r6, r0
9000dbf4:	64840010 	bsrli	r4, r4, 16
9000dbf8:	a46400ff 	andi	r3, r4, 255
9000dbfc:	be23ffac 	bneid	r3, -84		// 9000dba8
9000dc00:	30c00010 	addik	r6, r0, 16	// 10 <_vector_interrupt>
9000dc04:	b8100024 	brid	36		// 9000dc28
9000dc08:	64840008 	bsrli	r4, r4, 8
9000dc0c:	64840004 	bsrli	r4, r4, 4
9000dc10:	a4640003 	andi	r3, r4, 3
9000dc14:	be23ffa4 	bneid	r3, -92		// 9000dbb8
9000dc18:	30c60004 	addik	r6, r6, 4
9000dc1c:	b810ffc4 	brid	-60		// 9000dbe0
9000dc20:	64840002 	bsrli	r4, r4, 2
9000dc24:	64840008 	bsrli	r4, r4, 8
9000dc28:	a464000f 	andi	r3, r4, 15
9000dc2c:	be23ff84 	bneid	r3, -124		// 9000dbb0
9000dc30:	30c60008 	addik	r6, r6, 8
9000dc34:	b810ffdc 	brid	-36		// 9000dc10
9000dc38:	64840004 	bsrli	r4, r4, 4
9000dc3c:	30c00020 	addik	r6, r0, 32	// 20 <_vector_hw_exception>
9000dc40:	b60f0008 	rtsd	r15, 8
9000dc44:	10660000 	addk	r3, r6, r0
9000dc48:	90640041 	srl	r3, r4
9000dc4c:	b810ff40 	brid	-192		// 9000db8c
9000dc50:	f8650000 	swi	r3, r5, 0

9000dc54 <__mcmp>:
9000dc54:	e8650010 	lwi	r3, r5, 16
9000dc58:	e8860010 	lwi	r4, r6, 16
9000dc5c:	15041800 	rsubk	r8, r4, r3
9000dc60:	bc280038 	bnei	r8, 56		// 9000dc98
9000dc64:	64840402 	bslli	r4, r4, 2
9000dc68:	30a50014 	addik	r5, r5, 20
9000dc6c:	30640014 	addik	r3, r4, 20
9000dc70:	10c61800 	addk	r6, r6, r3
9000dc74:	10852000 	addk	r4, r5, r4
9000dc78:	3084fffc 	addik	r4, r4, -4
9000dc7c:	30c6fffc 	addik	r6, r6, -4
9000dc80:	e8e40000 	lwi	r7, r4, 0
9000dc84:	e8660000 	lwi	r3, r6, 0
9000dc88:	16433800 	rsubk	r18, r3, r7
9000dc8c:	bc320014 	bnei	r18, 20		// 9000dca0
9000dc90:	16442803 	cmpu	r18, r4, r5
9000dc94:	bc52ffe4 	blti	r18, -28		// 9000dc78
9000dc98:	b60f0008 	rtsd	r15, 8
9000dc9c:	10680000 	addk	r3, r8, r0
9000dca0:	16433803 	cmpu	r18, r3, r7
9000dca4:	be52fff4 	bltid	r18, -12		// 9000dc98
9000dca8:	3100ffff 	addik	r8, r0, -1
9000dcac:	31000001 	addik	r8, r0, 1
9000dcb0:	b60f0008 	rtsd	r15, 8
9000dcb4:	10680000 	addk	r3, r8, r0

9000dcb8 <_ulp>:
9000dcb8:	b0007ff0 	imm	32752
9000dcbc:	a4850000 	andi	r4, r5, 0
9000dcc0:	b000fcc0 	imm	-832
9000dcc4:	30840000 	addik	r4, r4, 0
9000dcc8:	14640000 	rsubk	r3, r4, r0
9000dccc:	be64001c 	bleid	r4, 28		// 9000dce8
9000dcd0:	64a30214 	bsrai	r5, r3, 20
9000dcd4:	10c40000 	addk	r6, r4, r0
9000dcd8:	10e00000 	addk	r7, r0, r0
9000dcdc:	10870000 	addk	r4, r7, r0
9000dce0:	b60f0008 	rtsd	r15, 8
9000dce4:	10660000 	addk	r3, r6, r0
9000dce8:	3085ffec 	addik	r4, r5, -20
9000dcec:	32400013 	addik	r18, r0, 19
9000dcf0:	16459001 	cmp	r18, r5, r18
9000dcf4:	beb20038 	bgeid	r18, 56		// 9000dd2c
9000dcf8:	30600001 	addik	r3, r0, 1
9000dcfc:	3240001e 	addik	r18, r0, 30
9000dd00:	16449001 	cmp	r18, r4, r18
9000dd04:	be520018 	bltid	r18, 24		// 9000dd1c
9000dd08:	10e30000 	addk	r7, r3, r0
9000dd0c:	3484001f 	rsubik	r4, r4, 31
9000dd10:	30600001 	addik	r3, r0, 1
9000dd14:	44632400 	bsll	r3, r3, r4
9000dd18:	10e30000 	addk	r7, r3, r0
9000dd1c:	10c00000 	addk	r6, r0, r0
9000dd20:	10660000 	addk	r3, r6, r0
9000dd24:	b60f0008 	rtsd	r15, 8
9000dd28:	10870000 	addk	r4, r7, r0
9000dd2c:	b0000008 	imm	8
9000dd30:	30600000 	addik	r3, r0, 0
9000dd34:	10e00000 	addk	r7, r0, r0
9000dd38:	10870000 	addk	r4, r7, r0
9000dd3c:	44c32a00 	bsra	r6, r3, r5
9000dd40:	b60f0008 	rtsd	r15, 8
9000dd44:	10660000 	addk	r3, r6, r0

9000dd48 <_mprec_log10>:
9000dd48:	3021ffe0 	addik	r1, r1, -32
9000dd4c:	fa61001c 	swi	r19, r1, 28
9000dd50:	12650000 	addk	r19, r5, r0
9000dd54:	b0003ff0 	imm	16368
9000dd58:	30800000 	addik	r4, r0, 0
9000dd5c:	30a00000 	addik	r5, r0, 0
9000dd60:	32400017 	addik	r18, r0, 23
9000dd64:	16539001 	cmp	r18, r19, r18
9000dd68:	be520034 	bltid	r18, 52		// 9000dd9c
9000dd6c:	f9e10000 	swi	r15, r1, 0
9000dd70:	64730403 	bslli	r3, r19, 3
9000dd74:	b0009001 	imm	-28671
9000dd78:	e88334c0 	lwi	r4, r3, 13504
9000dd7c:	b0009001 	imm	-28671
9000dd80:	e8a334c4 	lwi	r5, r3, 13508
9000dd84:	10640000 	addk	r3, r4, r0
9000dd88:	e9e10000 	lwi	r15, r1, 0
9000dd8c:	10850000 	addk	r4, r5, r0
9000dd90:	ea61001c 	lwi	r19, r1, 28
9000dd94:	b60f0008 	rtsd	r15, 8
9000dd98:	30210020 	addik	r1, r1, 32
9000dd9c:	10c50000 	addk	r6, r5, r0
9000dda0:	b0004024 	imm	16420
9000dda4:	30e00000 	addik	r7, r0, 0
9000dda8:	31000000 	addik	r8, r0, 0
9000ddac:	10a40000 	addk	r5, r4, r0
9000ddb0:	b9f43d6c 	brlid	r15, 15724	// 90011b1c <__muldf3>
9000ddb4:	3273ffff 	addik	r19, r19, -1
9000ddb8:	10a40000 	addk	r5, r4, r0
9000ddbc:	be33ffe0 	bneid	r19, -32		// 9000dd9c
9000ddc0:	10830000 	addk	r4, r3, r0
9000ddc4:	b810ffc4 	brid	-60		// 9000dd88
9000ddc8:	10640000 	addk	r3, r4, r0

9000ddcc <_Bfree>:
9000ddcc:	3021ffd8 	addik	r1, r1, -40
9000ddd0:	fae10024 	swi	r23, r1, 36
9000ddd4:	12e50000 	addk	r23, r5, r0
9000ddd8:	fac10020 	swi	r22, r1, 32
9000dddc:	f9e10000 	swi	r15, r1, 0
9000dde0:	fa61001c 	swi	r19, r1, 28
9000dde4:	ea770024 	lwi	r19, r23, 36
9000dde8:	30a00010 	addik	r5, r0, 16	// 10 <_vector_interrupt>
9000ddec:	be130044 	beqid	r19, 68		// 9000de30
9000ddf0:	12c60000 	addk	r22, r6, r0
9000ddf4:	be160028 	beqid	r22, 40		// 9000de1c
9000ddf8:	e9e10000 	lwi	r15, r1, 0
9000ddfc:	e8970024 	lwi	r4, r23, 36
9000de00:	e8760004 	lwi	r3, r22, 4
9000de04:	e8a4000c 	lwi	r5, r4, 12
9000de08:	64630402 	bslli	r3, r3, 2
9000de0c:	c8851800 	lw	r4, r5, r3
9000de10:	f8960000 	swi	r4, r22, 0
9000de14:	dac51800 	sw	r22, r5, r3
9000de18:	e9e10000 	lwi	r15, r1, 0
9000de1c:	ea61001c 	lwi	r19, r1, 28
9000de20:	eac10020 	lwi	r22, r1, 32
9000de24:	eae10024 	lwi	r23, r1, 36
9000de28:	b60f0008 	rtsd	r15, 8
9000de2c:	30210028 	addik	r1, r1, 40
9000de30:	b9f4938c 	brlid	r15, -27764	// 900071bc <malloc>
9000de34:	80000000 	or	r0, r0, r0
9000de38:	fa63000c 	swi	r19, r3, 12
9000de3c:	fa630008 	swi	r19, r3, 8
9000de40:	fa630000 	swi	r19, r3, 0
9000de44:	f8770024 	swi	r3, r23, 36
9000de48:	b810ffac 	brid	-84		// 9000ddf4
9000de4c:	fa630004 	swi	r19, r3, 4

9000de50 <_Balloc>:
9000de50:	3021ffd4 	addik	r1, r1, -44
9000de54:	fae10024 	swi	r23, r1, 36
9000de58:	12e50000 	addk	r23, r5, r0
9000de5c:	fb010028 	swi	r24, r1, 40
9000de60:	f9e10000 	swi	r15, r1, 0
9000de64:	fa61001c 	swi	r19, r1, 28
9000de68:	fac10020 	swi	r22, r1, 32
9000de6c:	ead70024 	lwi	r22, r23, 36
9000de70:	30a00010 	addik	r5, r0, 16	// 10 <_vector_interrupt>
9000de74:	be160060 	beqid	r22, 96		// 9000ded4
9000de78:	13060000 	addk	r24, r6, r0
9000de7c:	e876000c 	lwi	r3, r22, 12
9000de80:	be030078 	beqid	r3, 120		// 9000def8
9000de84:	10b70000 	addk	r5, r23, r0
9000de88:	e916000c 	lwi	r8, r22, 12
9000de8c:	64980402 	bslli	r4, r24, 2
9000de90:	30e00001 	addik	r7, r0, 1
9000de94:	ca682000 	lw	r19, r8, r4
9000de98:	10b70000 	addk	r5, r23, r0
9000de9c:	be130084 	beqid	r19, 132		// 9000df20
9000dea0:	10c70000 	addk	r6, r7, r0
9000dea4:	e8730000 	lwi	r3, r19, 0
9000dea8:	d8682000 	sw	r3, r8, r4
9000deac:	f8130010 	swi	r0, r19, 16
9000deb0:	f813000c 	swi	r0, r19, 12
9000deb4:	10730000 	addk	r3, r19, r0
9000deb8:	e9e10000 	lwi	r15, r1, 0
9000debc:	ea61001c 	lwi	r19, r1, 28
9000dec0:	eac10020 	lwi	r22, r1, 32
9000dec4:	eae10024 	lwi	r23, r1, 36
9000dec8:	eb010028 	lwi	r24, r1, 40
9000decc:	b60f0008 	rtsd	r15, 8
9000ded0:	3021002c 	addik	r1, r1, 44
9000ded4:	b9f492e8 	brlid	r15, -27928	// 900071bc <malloc>
9000ded8:	80000000 	or	r0, r0, r0
9000dedc:	12c30000 	addk	r22, r3, r0
9000dee0:	f8770024 	swi	r3, r23, 36
9000dee4:	f8030004 	swi	r0, r3, 4
9000dee8:	f8030008 	swi	r0, r3, 8
9000deec:	f8030000 	swi	r0, r3, 0
9000def0:	f803000c 	swi	r0, r3, 12
9000def4:	10b70000 	addk	r5, r23, r0
9000def8:	30c00004 	addik	r6, r0, 4
9000defc:	b9f42450 	brlid	r15, 9296	// 9001034c <_calloc_r>
9000df00:	30e00010 	addik	r7, r0, 16	// 10 <_vector_interrupt>
9000df04:	f876000c 	swi	r3, r22, 12
9000df08:	ead70024 	lwi	r22, r23, 36
9000df0c:	e876000c 	lwi	r3, r22, 12
9000df10:	be23ff78 	bneid	r3, -136		// 9000de88
9000df14:	12630000 	addk	r19, r3, r0
9000df18:	b810ffa0 	brid	-96		// 9000deb8
9000df1c:	10730000 	addk	r3, r19, r0
9000df20:	46c7c400 	bsll	r22, r7, r24
9000df24:	64f60402 	bslli	r7, r22, 2
9000df28:	b9f42424 	brlid	r15, 9252	// 9001034c <_calloc_r>
9000df2c:	30e70014 	addik	r7, r7, 20
9000df30:	bc03ff84 	beqi	r3, -124		// 9000deb4
9000df34:	12630000 	addk	r19, r3, r0
9000df38:	fb030004 	swi	r24, r3, 4
9000df3c:	b810ff70 	brid	-144		// 9000deac
9000df40:	fac30008 	swi	r22, r3, 8

9000df44 <_b2d>:
9000df44:	e8650010 	lwi	r3, r5, 16
9000df48:	31650014 	addik	r11, r5, 20
9000df4c:	11860000 	addk	r12, r6, r0
9000df50:	64630402 	bslli	r3, r3, 2
9000df54:	106b1800 	addk	r3, r11, r3
9000df58:	e923fffc 	lwi	r9, r3, -4
9000df5c:	b000ffff 	imm	-1
9000df60:	a4890000 	andi	r4, r9, 0
9000df64:	be0400e0 	beqid	r4, 224		// 9000e044
9000df68:	3143fffc 	addik	r10, r3, -4
9000df6c:	10890000 	addk	r4, r9, r0
9000df70:	11000000 	addk	r8, r0, r0
9000df74:	b000ff00 	imm	-256
9000df78:	a4640000 	andi	r3, r4, 0
9000df7c:	bc23000c 	bnei	r3, 12		// 9000df88
9000df80:	64840408 	bslli	r4, r4, 8
9000df84:	31080008 	addik	r8, r8, 8
9000df88:	b000f000 	imm	-4096
9000df8c:	a4640000 	andi	r3, r4, 0
9000df90:	bc23000c 	bnei	r3, 12		// 9000df9c
9000df94:	64840404 	bslli	r4, r4, 4
9000df98:	31080004 	addik	r8, r8, 4
9000df9c:	b000c000 	imm	-16384
9000dfa0:	a4640000 	andi	r3, r4, 0
9000dfa4:	bc23000c 	bnei	r3, 12		// 9000dfb0
9000dfa8:	64840402 	bslli	r4, r4, 2
9000dfac:	31080002 	addik	r8, r8, 2
9000dfb0:	be44004c 	bltid	r4, 76		// 9000dffc
9000dfb4:	34680020 	rsubik	r3, r8, 32
9000dfb8:	b0004000 	imm	16384
9000dfbc:	a4640000 	andi	r3, r4, 0
9000dfc0:	bc230034 	bnei	r3, 52		// 9000dff4
9000dfc4:	30a00015 	addik	r5, r0, 21
9000dfc8:	f86c0000 	swi	r3, r12, 0
9000dfcc:	164a5803 	cmpu	r18, r10, r11
9000dfd0:	be5200b8 	bltid	r18, 184		// 9000e088
9000dfd4:	11000000 	addk	r8, r0, r0
9000dfd8:	bc250078 	bnei	r5, 120		// 9000e050
9000dfdc:	10e80000 	addk	r7, r8, r0
9000dfe0:	b0003ff0 	imm	16368
9000dfe4:	a0c90000 	ori	r6, r9, 0
9000dfe8:	10660000 	addk	r3, r6, r0
9000dfec:	b60f0008 	rtsd	r15, 8
9000dff0:	10870000 	addk	r4, r7, r0
9000dff4:	31080001 	addik	r8, r8, 1
9000dff8:	34680020 	rsubik	r3, r8, 32
9000dffc:	f86c0000 	swi	r3, r12, 0
9000e000:	3240000a 	addik	r18, r0, 10
9000e004:	16489001 	cmp	r18, r8, r18
9000e008:	be52ffc4 	bltid	r18, -60		// 9000dfcc
9000e00c:	30a8fff5 	addik	r5, r8, -11
9000e010:	3488000b 	rsubik	r4, r8, 11
9000e014:	164a5803 	cmpu	r18, r10, r11
9000e018:	be520090 	bltid	r18, 144		// 9000e0a8
9000e01c:	10a00000 	addk	r5, r0, r0
9000e020:	30680015 	addik	r3, r8, 21
9000e024:	44892000 	bsrl	r4, r9, r4
9000e028:	44691c00 	bsll	r3, r9, r3
9000e02c:	b0003ff0 	imm	16368
9000e030:	a0c40000 	ori	r6, r4, 0
9000e034:	80e51800 	or	r7, r5, r3
9000e038:	10870000 	addk	r4, r7, r0
9000e03c:	b60f0008 	rtsd	r15, 8
9000e040:	10660000 	addk	r3, r6, r0
9000e044:	64890410 	bslli	r4, r9, 16
9000e048:	b810ff2c 	brid	-212		// 9000df74
9000e04c:	31000010 	addik	r8, r0, 16	// 10 <_vector_interrupt>
9000e050:	34850020 	rsubik	r4, r5, 32
9000e054:	164a5803 	cmpu	r18, r10, r11
9000e058:	be520044 	bltid	r18, 68		// 9000e09c
9000e05c:	11800000 	addk	r12, r0, r0
9000e060:	44692c00 	bsll	r3, r9, r5
9000e064:	44882000 	bsrl	r4, r8, r4
9000e068:	44a82c00 	bsll	r5, r8, r5
9000e06c:	b0003ff0 	imm	16368
9000e070:	a0630000 	ori	r3, r3, 0
9000e074:	80c41800 	or	r6, r4, r3
9000e078:	80e56000 	or	r7, r5, r12
9000e07c:	10660000 	addk	r3, r6, r0
9000e080:	b60f0008 	rtsd	r15, 8
9000e084:	10870000 	addk	r4, r7, r0
9000e088:	314afffc 	addik	r10, r10, -4
9000e08c:	be05ff50 	beqid	r5, -176		// 9000dfdc
9000e090:	e90a0000 	lwi	r8, r10, 0
9000e094:	b810ffc0 	brid	-64		// 9000e054
9000e098:	34850020 	rsubik	r4, r5, 32
9000e09c:	e86afffc 	lwi	r3, r10, -4
9000e0a0:	b810ffc0 	brid	-64		// 9000e060
9000e0a4:	45832000 	bsrl	r12, r3, r4
9000e0a8:	e86afffc 	lwi	r3, r10, -4
9000e0ac:	b810ff74 	brid	-140		// 9000e020
9000e0b0:	44a32000 	bsrl	r5, r3, r4

9000e0b4 <_ratio>:
9000e0b4:	3021ffcc 	addik	r1, r1, -52
9000e0b8:	fa61001c 	swi	r19, r1, 28
9000e0bc:	f9e10000 	swi	r15, r1, 0
9000e0c0:	fac10020 	swi	r22, r1, 32
9000e0c4:	fae10024 	swi	r23, r1, 36
9000e0c8:	fb010028 	swi	r24, r1, 40
9000e0cc:	fb21002c 	swi	r25, r1, 44
9000e0d0:	fb410030 	swi	r26, r1, 48
9000e0d4:	eb250010 	lwi	r25, r5, 16
9000e0d8:	31850014 	addik	r12, r5, 20
9000e0dc:	12660000 	addk	r19, r6, r0
9000e0e0:	64790402 	bslli	r3, r25, 2
9000e0e4:	106c1800 	addk	r3, r12, r3
9000e0e8:	e923fffc 	lwi	r9, r3, -4
9000e0ec:	b000ffff 	imm	-1
9000e0f0:	a4890000 	andi	r4, r9, 0
9000e0f4:	be0401f0 	beqid	r4, 496		// 9000e2e4
9000e0f8:	3103fffc 	addik	r8, r3, -4
9000e0fc:	10890000 	addk	r4, r9, r0
9000e100:	10e00000 	addk	r7, r0, r0
9000e104:	b000ff00 	imm	-256
9000e108:	a4640000 	andi	r3, r4, 0
9000e10c:	bc23000c 	bnei	r3, 12		// 9000e118
9000e110:	64840408 	bslli	r4, r4, 8
9000e114:	30e70008 	addik	r7, r7, 8
9000e118:	b000f000 	imm	-4096
9000e11c:	a4640000 	andi	r3, r4, 0
9000e120:	bc23000c 	bnei	r3, 12		// 9000e12c
9000e124:	64840404 	bslli	r4, r4, 4
9000e128:	30e70004 	addik	r7, r7, 4
9000e12c:	b000c000 	imm	-16384
9000e130:	a4640000 	andi	r3, r4, 0
9000e134:	bc23000c 	bnei	r3, 12		// 9000e140
9000e138:	64840402 	bslli	r4, r4, 2
9000e13c:	30e70002 	addik	r7, r7, 2
9000e140:	be440168 	bltid	r4, 360		// 9000e2a8
9000e144:	37470020 	rsubik	r26, r7, 32
9000e148:	b0004000 	imm	16384
9000e14c:	a4640000 	andi	r3, r4, 0
9000e150:	be230150 	bneid	r3, 336		// 9000e2a0
9000e154:	13430000 	addk	r26, r3, r0
9000e158:	30a00015 	addik	r5, r0, 21
9000e15c:	16486003 	cmpu	r18, r8, r12
9000e160:	be5201bc 	bltid	r18, 444		// 9000e31c
9000e164:	10e00000 	addk	r7, r0, r0
9000e168:	be250188 	bneid	r5, 392		// 9000e2f0
9000e16c:	34850020 	rsubik	r4, r5, 32
9000e170:	11670000 	addk	r11, r7, r0
9000e174:	b0003ff0 	imm	16368
9000e178:	a1490000 	ori	r10, r9, 0
9000e17c:	eb130010 	lwi	r24, r19, 16
9000e180:	30d30014 	addik	r6, r19, 20
9000e184:	64780402 	bslli	r3, r24, 2
9000e188:	10661800 	addk	r3, r6, r3
9000e18c:	e923fffc 	lwi	r9, r3, -4
9000e190:	b000ffff 	imm	-1
9000e194:	a4890000 	andi	r4, r9, 0
9000e198:	be0401e4 	beqid	r4, 484		// 9000e37c
9000e19c:	3103fffc 	addik	r8, r3, -4
9000e1a0:	10890000 	addk	r4, r9, r0
9000e1a4:	10e00000 	addk	r7, r0, r0
9000e1a8:	b000ff00 	imm	-256
9000e1ac:	a4640000 	andi	r3, r4, 0
9000e1b0:	bc23000c 	bnei	r3, 12		// 9000e1bc
9000e1b4:	64840408 	bslli	r4, r4, 8
9000e1b8:	30e70008 	addik	r7, r7, 8
9000e1bc:	b000f000 	imm	-4096
9000e1c0:	a4640000 	andi	r3, r4, 0
9000e1c4:	bc23000c 	bnei	r3, 12		// 9000e1d0
9000e1c8:	64840404 	bslli	r4, r4, 4
9000e1cc:	30e70004 	addik	r7, r7, 4
9000e1d0:	b000c000 	imm	-16384
9000e1d4:	a4640000 	andi	r3, r4, 0
9000e1d8:	bc23000c 	bnei	r3, 12		// 9000e1e4
9000e1dc:	64840402 	bslli	r4, r4, 2
9000e1e0:	30e70002 	addik	r7, r7, 2
9000e1e4:	be440020 	bltid	r4, 32		// 9000e204
9000e1e8:	35870020 	rsubik	r12, r7, 32
9000e1ec:	b0004000 	imm	16384
9000e1f0:	a4640000 	andi	r3, r4, 0
9000e1f4:	be03013c 	beqid	r3, 316		// 9000e330
9000e1f8:	11830000 	addk	r12, r3, r0
9000e1fc:	30e70001 	addik	r7, r7, 1
9000e200:	35870020 	rsubik	r12, r7, 32
9000e204:	3240000a 	addik	r18, r0, 10
9000e208:	16479001 	cmp	r18, r7, r18
9000e20c:	be520128 	bltid	r18, 296		// 9000e334
9000e210:	30a7fff5 	addik	r5, r7, -11
9000e214:	3487000b 	rsubik	r4, r7, 11
9000e218:	16483003 	cmpu	r18, r8, r6
9000e21c:	be5201ac 	bltid	r18, 428		// 9000e3c8
9000e220:	10a00000 	addk	r5, r0, r0
9000e224:	30670015 	addik	r3, r7, 21
9000e228:	44892000 	bsrl	r4, r9, r4
9000e22c:	44691c00 	bsll	r3, r9, r3
9000e230:	b0003ff0 	imm	16368
9000e234:	a2c40000 	ori	r22, r4, 0
9000e238:	82e51800 	or	r23, r5, r3
9000e23c:	1478c800 	rsubk	r3, r24, r25
9000e240:	64630405 	bslli	r3, r3, 5
9000e244:	148cd000 	rsubk	r4, r12, r26
9000e248:	10641800 	addk	r3, r4, r3
9000e24c:	11160000 	addk	r8, r22, r0
9000e250:	be630148 	bleid	r3, 328		// 9000e398
9000e254:	11370000 	addk	r9, r23, r0
9000e258:	64630414 	bslli	r3, r3, 20
9000e25c:	11435000 	addk	r10, r3, r10
9000e260:	10cb0000 	addk	r6, r11, r0
9000e264:	10e80000 	addk	r7, r8, r0
9000e268:	10aa0000 	addk	r5, r10, r0
9000e26c:	b9f43cb4 	brlid	r15, 15540	// 90011f20 <__divdf3>
9000e270:	11090000 	addk	r8, r9, r0
9000e274:	10c30000 	addk	r6, r3, r0
9000e278:	e9e10000 	lwi	r15, r1, 0
9000e27c:	ea61001c 	lwi	r19, r1, 28
9000e280:	10660000 	addk	r3, r6, r0
9000e284:	eac10020 	lwi	r22, r1, 32
9000e288:	eae10024 	lwi	r23, r1, 36
9000e28c:	eb010028 	lwi	r24, r1, 40
9000e290:	eb21002c 	lwi	r25, r1, 44
9000e294:	eb410030 	lwi	r26, r1, 48
9000e298:	b60f0008 	rtsd	r15, 8
9000e29c:	30210034 	addik	r1, r1, 52
9000e2a0:	30e70001 	addik	r7, r7, 1
9000e2a4:	37470020 	rsubik	r26, r7, 32
9000e2a8:	3240000a 	addik	r18, r0, 10
9000e2ac:	16479001 	cmp	r18, r7, r18
9000e2b0:	be52feac 	bltid	r18, -340		// 9000e15c
9000e2b4:	30a7fff5 	addik	r5, r7, -11
9000e2b8:	3487000b 	rsubik	r4, r7, 11
9000e2bc:	16486003 	cmpu	r18, r8, r12
9000e2c0:	be5200fc 	bltid	r18, 252		// 9000e3bc
9000e2c4:	10a00000 	addk	r5, r0, r0
9000e2c8:	30670015 	addik	r3, r7, 21
9000e2cc:	44892000 	bsrl	r4, r9, r4
9000e2d0:	44691c00 	bsll	r3, r9, r3
9000e2d4:	b0003ff0 	imm	16368
9000e2d8:	a1440000 	ori	r10, r4, 0
9000e2dc:	b810fea0 	brid	-352		// 9000e17c
9000e2e0:	81651800 	or	r11, r5, r3
9000e2e4:	64890410 	bslli	r4, r9, 16
9000e2e8:	b810fe1c 	brid	-484		// 9000e104
9000e2ec:	30e00010 	addik	r7, r0, 16	// 10 <_vector_interrupt>
9000e2f0:	16486003 	cmpu	r18, r8, r12
9000e2f4:	be5200bc 	bltid	r18, 188		// 9000e3b0
9000e2f8:	10c00000 	addk	r6, r0, r0
9000e2fc:	44692c00 	bsll	r3, r9, r5
9000e300:	44872000 	bsrl	r4, r7, r4
9000e304:	44a72c00 	bsll	r5, r7, r5
9000e308:	b0003ff0 	imm	16368
9000e30c:	a0630000 	ori	r3, r3, 0
9000e310:	81441800 	or	r10, r4, r3
9000e314:	b810fe68 	brid	-408		// 9000e17c
9000e318:	81662800 	or	r11, r6, r5
9000e31c:	3108fffc 	addik	r8, r8, -4
9000e320:	be05fe50 	beqid	r5, -432		// 9000e170
9000e324:	e8e80000 	lwi	r7, r8, 0
9000e328:	b810ffc8 	brid	-56		// 9000e2f0
9000e32c:	34850020 	rsubik	r4, r5, 32
9000e330:	30a00015 	addik	r5, r0, 21
9000e334:	16483003 	cmpu	r18, r8, r6
9000e338:	beb20010 	bgeid	r18, 16		// 9000e348
9000e33c:	10e00000 	addk	r7, r0, r0
9000e340:	3108fffc 	addik	r8, r8, -4
9000e344:	e8e80000 	lwi	r7, r8, 0
9000e348:	be050040 	beqid	r5, 64		// 9000e388
9000e34c:	34850020 	rsubik	r4, r5, 32
9000e350:	16483003 	cmpu	r18, r8, r6
9000e354:	be520050 	bltid	r18, 80		// 9000e3a4
9000e358:	12600000 	addk	r19, r0, r0
9000e35c:	44692c00 	bsll	r3, r9, r5
9000e360:	44872000 	bsrl	r4, r7, r4
9000e364:	44a72c00 	bsll	r5, r7, r5
9000e368:	b0003ff0 	imm	16368
9000e36c:	a0630000 	ori	r3, r3, 0
9000e370:	82c41800 	or	r22, r4, r3
9000e374:	b810fec8 	brid	-312		// 9000e23c
9000e378:	82f32800 	or	r23, r19, r5
9000e37c:	64890410 	bslli	r4, r9, 16
9000e380:	b810fe28 	brid	-472		// 9000e1a8
9000e384:	30e00010 	addik	r7, r0, 16	// 10 <_vector_interrupt>
9000e388:	b0003ff0 	imm	16368
9000e38c:	a2c90000 	ori	r22, r9, 0
9000e390:	b810feac 	brid	-340		// 9000e23c
9000e394:	12e70000 	addk	r23, r7, r0
9000e398:	64630414 	bslli	r3, r3, 20
9000e39c:	b810fec4 	brid	-316		// 9000e260
9000e3a0:	1503b000 	rsubk	r8, r3, r22
9000e3a4:	e868fffc 	lwi	r3, r8, -4
9000e3a8:	b810ffb4 	brid	-76		// 9000e35c
9000e3ac:	46632000 	bsrl	r19, r3, r4
9000e3b0:	e868fffc 	lwi	r3, r8, -4
9000e3b4:	b810ff48 	brid	-184		// 9000e2fc
9000e3b8:	44c32000 	bsrl	r6, r3, r4
9000e3bc:	e868fffc 	lwi	r3, r8, -4
9000e3c0:	b810ff08 	brid	-248		// 9000e2c8
9000e3c4:	44a32000 	bsrl	r5, r3, r4
9000e3c8:	e868fffc 	lwi	r3, r8, -4
9000e3cc:	b810fe58 	brid	-424		// 9000e224
9000e3d0:	44a32000 	bsrl	r5, r3, r4

9000e3d4 <_d2b>:
9000e3d4:	3021ffc8 	addik	r1, r1, -56
9000e3d8:	fac10020 	swi	r22, r1, 32
9000e3dc:	fae10024 	swi	r23, r1, 36
9000e3e0:	fb21002c 	swi	r25, r1, 44
9000e3e4:	fb410030 	swi	r26, r1, 48
9000e3e8:	fb610034 	swi	r27, r1, 52
9000e3ec:	f9e10000 	swi	r15, r1, 0
9000e3f0:	fa61001c 	swi	r19, r1, 28
9000e3f4:	fb010028 	swi	r24, r1, 40
9000e3f8:	ea650024 	lwi	r19, r5, 36
9000e3fc:	13250000 	addk	r25, r5, r0
9000e400:	13480000 	addk	r26, r8, r0
9000e404:	13690000 	addk	r27, r9, r0
9000e408:	12c60000 	addk	r22, r6, r0
9000e40c:	be130300 	beqid	r19, 768		// 9000e70c
9000e410:	12e70000 	addk	r23, r7, r0
9000e414:	e873000c 	lwi	r3, r19, 12
9000e418:	be030318 	beqid	r3, 792		// 9000e730
9000e41c:	10b90000 	addk	r5, r25, r0
9000e420:	e893000c 	lwi	r4, r19, 12
9000e424:	eb040004 	lwi	r24, r4, 4
9000e428:	be180354 	beqid	r24, 852		// 9000e77c
9000e42c:	10b90000 	addk	r5, r25, r0
9000e430:	e8780000 	lwi	r3, r24, 0
9000e434:	f8640004 	swi	r3, r4, 4
9000e438:	f8180010 	swi	r0, r24, 16
9000e43c:	f818000c 	swi	r0, r24, 12
9000e440:	b0007fff 	imm	32767
9000e444:	a496ffff 	andi	r4, r22, -1
9000e448:	65040014 	bsrli	r8, r4, 20
9000e44c:	b000000f 	imm	15
9000e450:	a4f6ffff 	andi	r7, r22, -1
9000e454:	be080010 	beqid	r8, 16		// 9000e464
9000e458:	31380014 	addik	r9, r24, 20
9000e45c:	b0000010 	imm	16
9000e460:	a0e70000 	ori	r7, r7, 0
9000e464:	be170100 	beqid	r23, 256		// 9000e564
9000e468:	10b70000 	addk	r5, r23, r0
9000e46c:	a4970007 	andi	r4, r23, 7
9000e470:	be2401e4 	bneid	r4, 484		// 9000e654
9000e474:	a4770001 	andi	r3, r23, 1
9000e478:	b0000000 	imm	0
9000e47c:	a477ffff 	andi	r3, r23, -1
9000e480:	be030240 	beqid	r3, 576		// 9000e6c0
9000e484:	10d70000 	addk	r6, r23, r0
9000e488:	a46600ff 	andi	r3, r6, 255
9000e48c:	bc03021c 	beqi	r3, 540		// 9000e6a8
9000e490:	a466000f 	andi	r3, r6, 15
9000e494:	bc030244 	beqi	r3, 580		// 9000e6d8
9000e498:	a4660003 	andi	r3, r6, 3
9000e49c:	bc0301f4 	beqi	r3, 500		// 9000e690
9000e4a0:	a4660001 	andi	r3, r6, 1
9000e4a4:	bc0301dc 	beqi	r3, 476		// 9000e680
9000e4a8:	be0401bc 	beqid	r4, 444		// 9000e664
9000e4ac:	34640020 	rsubik	r3, r4, 32
9000e4b0:	44671c00 	bsll	r3, r7, r3
9000e4b4:	44e72000 	bsrl	r7, r7, r4
9000e4b8:	80633000 	or	r3, r3, r6
9000e4bc:	f8690000 	swi	r3, r9, 0
9000e4c0:	88670400 	pcmpeq	r3, r7, r0
9000e4c4:	34c30002 	rsubik	r6, r3, 2
9000e4c8:	f8e90004 	swi	r7, r9, 4
9000e4cc:	be28012c 	bneid	r8, 300		// 9000e5f8
9000e4d0:	f8d80010 	swi	r6, r24, 16
9000e4d4:	64660402 	bslli	r3, r6, 2
9000e4d8:	3084fbce 	addik	r4, r4, -1074
9000e4dc:	10634800 	addk	r3, r3, r9
9000e4e0:	e8a3fffc 	lwi	r5, r3, -4
9000e4e4:	f89a0000 	swi	r4, r26, 0
9000e4e8:	b000ffff 	imm	-1
9000e4ec:	a4650000 	andi	r3, r5, 0
9000e4f0:	be230010 	bneid	r3, 16		// 9000e500
9000e4f4:	10880000 	addk	r4, r8, r0
9000e4f8:	64a50410 	bslli	r5, r5, 16
9000e4fc:	30800010 	addik	r4, r0, 16	// 10 <_vector_interrupt>
9000e500:	b000ff00 	imm	-256
9000e504:	a4650000 	andi	r3, r5, 0
9000e508:	bc23000c 	bnei	r3, 12		// 9000e514
9000e50c:	64a50408 	bslli	r5, r5, 8
9000e510:	30840008 	addik	r4, r4, 8
9000e514:	b000f000 	imm	-4096
9000e518:	a4650000 	andi	r3, r5, 0
9000e51c:	bc23000c 	bnei	r3, 12		// 9000e528
9000e520:	64a50404 	bslli	r5, r5, 4
9000e524:	30840004 	addik	r4, r4, 4
9000e528:	b000c000 	imm	-16384
9000e52c:	a4650000 	andi	r3, r5, 0
9000e530:	bc23000c 	bnei	r3, 12		// 9000e53c
9000e534:	64a50402 	bslli	r5, r5, 2
9000e538:	30840002 	addik	r4, r4, 2
9000e53c:	be45001c 	bltid	r5, 28		// 9000e558
9000e540:	64660405 	bslli	r3, r6, 5
9000e544:	b0004000 	imm	16384
9000e548:	a4650000 	andi	r3, r5, 0
9000e54c:	be030120 	beqid	r3, 288		// 9000e66c
9000e550:	30840001 	addik	r4, r4, 1
9000e554:	64660405 	bslli	r3, r6, 5
9000e558:	14641800 	rsubk	r3, r4, r3
9000e55c:	b81000b0 	brid	176		// 9000e60c
9000e560:	f87b0000 	swi	r3, r27, 0
9000e564:	a4670007 	andi	r3, r7, 7
9000e568:	be2300d0 	bneid	r3, 208		// 9000e638
9000e56c:	a4670001 	andi	r3, r7, 1
9000e570:	b0000000 	imm	0
9000e574:	a467ffff 	andi	r3, r7, -1
9000e578:	be03018c 	beqid	r3, 396		// 9000e704
9000e57c:	64a70010 	bsrli	r5, r7, 16
9000e580:	10d70000 	addk	r6, r23, r0
9000e584:	10a70000 	addk	r5, r7, r0
9000e588:	a46500ff 	andi	r3, r5, 255
9000e58c:	be230014 	bneid	r3, 20		// 9000e5a0
9000e590:	a465000f 	andi	r3, r5, 15
9000e594:	64a50008 	bsrli	r5, r5, 8
9000e598:	30c60008 	addik	r6, r6, 8
9000e59c:	a465000f 	andi	r3, r5, 15
9000e5a0:	be230014 	bneid	r3, 20		// 9000e5b4
9000e5a4:	a4650003 	andi	r3, r5, 3
9000e5a8:	64a50004 	bsrli	r5, r5, 4
9000e5ac:	30c60004 	addik	r6, r6, 4
9000e5b0:	a4650003 	andi	r3, r5, 3
9000e5b4:	be230014 	bneid	r3, 20		// 9000e5c8
9000e5b8:	a4650001 	andi	r3, r5, 1
9000e5bc:	64a50002 	bsrli	r5, r5, 2
9000e5c0:	30c60002 	addik	r6, r6, 2
9000e5c4:	a4650001 	andi	r3, r5, 1
9000e5c8:	bc230014 	bnei	r3, 20		// 9000e5dc
9000e5cc:	90a50041 	srl	r5, r5
9000e5d0:	be050014 	beqid	r5, 20		// 9000e5e4
9000e5d4:	30800040 	addik	r4, r0, 64
9000e5d8:	30c60001 	addik	r6, r6, 1
9000e5dc:	10e50000 	addk	r7, r5, r0
9000e5e0:	30860020 	addik	r4, r6, 32
9000e5e4:	30600001 	addik	r3, r0, 1
9000e5e8:	10c30000 	addk	r6, r3, r0
9000e5ec:	f8e90000 	swi	r7, r9, 0
9000e5f0:	be08fee4 	beqid	r8, -284		// 9000e4d4
9000e5f4:	f8780010 	swi	r3, r24, 16
9000e5f8:	10644000 	addk	r3, r4, r8
9000e5fc:	3063fbcd 	addik	r3, r3, -1075
9000e600:	f87a0000 	swi	r3, r26, 0
9000e604:	34840035 	rsubik	r4, r4, 53
9000e608:	f89b0000 	swi	r4, r27, 0
9000e60c:	10780000 	addk	r3, r24, r0
9000e610:	e9e10000 	lwi	r15, r1, 0
9000e614:	ea61001c 	lwi	r19, r1, 28
9000e618:	eac10020 	lwi	r22, r1, 32
9000e61c:	eae10024 	lwi	r23, r1, 36
9000e620:	eb010028 	lwi	r24, r1, 40
9000e624:	eb21002c 	lwi	r25, r1, 44
9000e628:	eb410030 	lwi	r26, r1, 48
9000e62c:	eb610034 	lwi	r27, r1, 52
9000e630:	b60f0008 	rtsd	r15, 8
9000e634:	30210038 	addik	r1, r1, 56
9000e638:	be23ffac 	bneid	r3, -84		// 9000e5e4
9000e63c:	30800020 	addik	r4, r0, 32	// 20 <_vector_hw_exception>
9000e640:	a4670002 	andi	r3, r7, 2
9000e644:	bc03012c 	beqi	r3, 300		// 9000e770
9000e648:	90e70041 	srl	r7, r7
9000e64c:	b810ff98 	brid	-104		// 9000e5e4
9000e650:	30800021 	addik	r4, r0, 33
9000e654:	be03009c 	beqid	r3, 156		// 9000e6f0
9000e658:	a4770002 	andi	r3, r23, 2
9000e65c:	10d70000 	addk	r6, r23, r0
9000e660:	10800000 	addk	r4, r0, r0
9000e664:	b810fe5c 	brid	-420		// 9000e4c0
9000e668:	f8c90000 	swi	r6, r9, 0
9000e66c:	64660405 	bslli	r3, r6, 5
9000e670:	30800020 	addik	r4, r0, 32	// 20 <_vector_hw_exception>
9000e674:	14641800 	rsubk	r3, r4, r3
9000e678:	b810ff94 	brid	-108		// 9000e60c
9000e67c:	f87b0000 	swi	r3, r27, 0
9000e680:	90c60041 	srl	r6, r6
9000e684:	bc0600e0 	beqi	r6, 224		// 9000e764
9000e688:	b810fe20 	brid	-480		// 9000e4a8
9000e68c:	30840001 	addik	r4, r4, 1
9000e690:	64c60002 	bsrli	r6, r6, 2
9000e694:	a4660001 	andi	r3, r6, 1
9000e698:	be23fe10 	bneid	r3, -496		// 9000e4a8
9000e69c:	30840002 	addik	r4, r4, 2
9000e6a0:	b810ffe4 	brid	-28		// 9000e684
9000e6a4:	90c60041 	srl	r6, r6
9000e6a8:	64c60008 	bsrli	r6, r6, 8
9000e6ac:	a466000f 	andi	r3, r6, 15
9000e6b0:	be23fde8 	bneid	r3, -536		// 9000e498
9000e6b4:	30840008 	addik	r4, r4, 8
9000e6b8:	b8100024 	brid	36		// 9000e6dc
9000e6bc:	64c60004 	bsrli	r6, r6, 4
9000e6c0:	64d70010 	bsrli	r6, r23, 16
9000e6c4:	a46600ff 	andi	r3, r6, 255
9000e6c8:	be23fdc8 	bneid	r3, -568		// 9000e490
9000e6cc:	30800010 	addik	r4, r0, 16	// 10 <_vector_interrupt>
9000e6d0:	b810ffdc 	brid	-36		// 9000e6ac
9000e6d4:	64c60008 	bsrli	r6, r6, 8
9000e6d8:	64c60004 	bsrli	r6, r6, 4
9000e6dc:	a4660003 	andi	r3, r6, 3
9000e6e0:	be23fdc0 	bneid	r3, -576		// 9000e4a0
9000e6e4:	30840004 	addik	r4, r4, 4
9000e6e8:	b810ffac 	brid	-84		// 9000e694
9000e6ec:	64c60002 	bsrli	r6, r6, 2
9000e6f0:	bc030064 	beqi	r3, 100		// 9000e754
9000e6f4:	90d70041 	srl	r6, r23
9000e6f8:	30800001 	addik	r4, r0, 1
9000e6fc:	b810fdb4 	brid	-588		// 9000e4b0
9000e700:	3060001f 	addik	r3, r0, 31
9000e704:	b810fe84 	brid	-380		// 9000e588
9000e708:	30c00010 	addik	r6, r0, 16	// 10 <_vector_interrupt>
9000e70c:	b9f48ab0 	brlid	r15, -30032	// 900071bc <malloc>
9000e710:	30a00010 	addik	r5, r0, 16	// 10 <_vector_interrupt>
9000e714:	12630000 	addk	r19, r3, r0
9000e718:	f8790024 	swi	r3, r25, 36
9000e71c:	f8030004 	swi	r0, r3, 4
9000e720:	f8030008 	swi	r0, r3, 8
9000e724:	f8030000 	swi	r0, r3, 0
9000e728:	f803000c 	swi	r0, r3, 12
9000e72c:	10b90000 	addk	r5, r25, r0
9000e730:	30c00004 	addik	r6, r0, 4
9000e734:	b9f41c18 	brlid	r15, 7192	// 9001034c <_calloc_r>
9000e738:	30e00010 	addik	r7, r0, 16	// 10 <_vector_interrupt>
9000e73c:	f873000c 	swi	r3, r19, 12
9000e740:	ea790024 	lwi	r19, r25, 36
9000e744:	e873000c 	lwi	r3, r19, 12
9000e748:	be23fcd8 	bneid	r3, -808		// 9000e420
9000e74c:	13030000 	addk	r24, r3, r0
9000e750:	b800fcf0 	bri	-784		// 9000e440
9000e754:	64d70002 	bsrli	r6, r23, 2
9000e758:	30800002 	addik	r4, r0, 2
9000e75c:	b810fd54 	brid	-684		// 9000e4b0
9000e760:	3060001e 	addik	r3, r0, 30
9000e764:	10c50000 	addk	r6, r5, r0
9000e768:	b810fd48 	brid	-696		// 9000e4b0
9000e76c:	30800020 	addik	r4, r0, 32	// 20 <_vector_hw_exception>
9000e770:	64e70002 	bsrli	r7, r7, 2
9000e774:	b810fe70 	brid	-400		// 9000e5e4
9000e778:	30800022 	addik	r4, r0, 34
9000e77c:	30c00001 	addik	r6, r0, 1
9000e780:	b9f41bcc 	brlid	r15, 7116	// 9001034c <_calloc_r>
9000e784:	30e0001c 	addik	r7, r0, 28
9000e788:	be03fcb8 	beqid	r3, -840		// 9000e440
9000e78c:	30800002 	addik	r4, r0, 2
9000e790:	13030000 	addk	r24, r3, r0
9000e794:	30600001 	addik	r3, r0, 1
9000e798:	f8780004 	swi	r3, r24, 4
9000e79c:	b810fc9c 	brid	-868		// 9000e438
9000e7a0:	f8980008 	swi	r4, r24, 8

9000e7a4 <__mdiff>:
9000e7a4:	3021ffc4 	addik	r1, r1, -60
9000e7a8:	fae10024 	swi	r23, r1, 36
9000e7ac:	fb21002c 	swi	r25, r1, 44
9000e7b0:	fb410030 	swi	r26, r1, 48
9000e7b4:	fb810038 	swi	r28, r1, 56
9000e7b8:	f9e10000 	swi	r15, r1, 0
9000e7bc:	fa61001c 	swi	r19, r1, 28
9000e7c0:	fac10020 	swi	r22, r1, 32
9000e7c4:	fb010028 	swi	r24, r1, 40
9000e7c8:	fb610034 	swi	r27, r1, 52
9000e7cc:	e8660010 	lwi	r3, r6, 16
9000e7d0:	e8870010 	lwi	r4, r7, 16
9000e7d4:	12e60000 	addk	r23, r6, r0
9000e7d8:	13270000 	addk	r25, r7, r0
9000e7dc:	17441800 	rsubk	r26, r4, r3
9000e7e0:	be3a0078 	bneid	r26, 120		// 9000e858
9000e7e4:	13850000 	addk	r28, r5, r0
9000e7e8:	64840402 	bslli	r4, r4, 2
9000e7ec:	33060014 	addik	r24, r6, 20
9000e7f0:	30640014 	addik	r3, r4, 20
9000e7f4:	10a71800 	addk	r5, r7, r3
9000e7f8:	10982000 	addk	r4, r24, r4
9000e7fc:	3084fffc 	addik	r4, r4, -4
9000e800:	30a5fffc 	addik	r5, r5, -4
9000e804:	e8c40000 	lwi	r6, r4, 0
9000e808:	e8650000 	lwi	r3, r5, 0
9000e80c:	16433000 	rsubk	r18, r3, r6
9000e810:	bc3201a4 	bnei	r18, 420		// 9000e9b4
9000e814:	1644c003 	cmpu	r18, r4, r24
9000e818:	bc52ffe4 	blti	r18, -28		// 9000e7fc
9000e81c:	ea7c0024 	lwi	r19, r28, 36
9000e820:	bc130200 	beqi	r19, 512		// 9000ea20
9000e824:	e873000c 	lwi	r3, r19, 12
9000e828:	bc030218 	beqi	r3, 536		// 9000ea40
9000e82c:	e893000c 	lwi	r4, r19, 12
9000e830:	eac40000 	lwi	r22, r4, 0
9000e834:	bc160260 	beqi	r22, 608		// 9000ea94
9000e838:	e8760000 	lwi	r3, r22, 0
9000e83c:	f8640000 	swi	r3, r4, 0
9000e840:	f8160010 	swi	r0, r22, 16
9000e844:	f816000c 	swi	r0, r22, 12
9000e848:	30600001 	addik	r3, r0, 1
9000e84c:	f8760010 	swi	r3, r22, 16
9000e850:	b8100134 	brid	308		// 9000e984
9000e854:	f8160014 	swi	r0, r22, 20
9000e858:	be5a0168 	bltid	r26, 360		// 9000e9c0
9000e85c:	10790000 	addk	r3, r25, r0
9000e860:	13400000 	addk	r26, r0, r0
9000e864:	33060014 	addik	r24, r6, 20
9000e868:	ea7c0024 	lwi	r19, r28, 36
9000e86c:	be130168 	beqid	r19, 360		// 9000e9d4
9000e870:	eb770004 	lwi	r27, r23, 4
9000e874:	e873000c 	lwi	r3, r19, 12
9000e878:	be030180 	beqid	r3, 384		// 9000e9f8
9000e87c:	10bc0000 	addk	r5, r28, r0
9000e880:	e8b3000c 	lwi	r5, r19, 12
9000e884:	649b0402 	bslli	r4, r27, 2
9000e888:	cac52000 	lw	r22, r5, r4
9000e88c:	be1601e0 	beqid	r22, 480		// 9000ea6c
9000e890:	30c00001 	addik	r6, r0, 1
9000e894:	e8760000 	lwi	r3, r22, 0
9000e898:	d8652000 	sw	r3, r5, r4
9000e89c:	f8160010 	swi	r0, r22, 16
9000e8a0:	f816000c 	swi	r0, r22, 12
9000e8a4:	e9770010 	lwi	r11, r23, 16
9000e8a8:	e8790010 	lwi	r3, r25, 16
9000e8ac:	11380000 	addk	r9, r24, r0
9000e8b0:	648b0402 	bslli	r4, r11, 2
9000e8b4:	64630402 	bslli	r3, r3, 2
9000e8b8:	30f90014 	addik	r7, r25, 20
9000e8bc:	fb56000c 	swi	r26, r22, 12
9000e8c0:	12782000 	addk	r19, r24, r4
9000e8c4:	11871800 	addk	r12, r7, r3
9000e8c8:	31160014 	addik	r8, r22, 20
9000e8cc:	11400000 	addk	r10, r0, r0
9000e8d0:	e8890000 	lwi	r4, r9, 0
9000e8d4:	e8c70000 	lwi	r6, r7, 0
9000e8d8:	30e70004 	addik	r7, r7, 4
9000e8dc:	b0000000 	imm	0
9000e8e0:	a4a4ffff 	andi	r5, r4, -1
9000e8e4:	b0000000 	imm	0
9000e8e8:	a466ffff 	andi	r3, r6, -1
9000e8ec:	14a32800 	rsubk	r5, r3, r5
9000e8f0:	10a55000 	addk	r5, r5, r10
9000e8f4:	64840010 	bsrli	r4, r4, 16
9000e8f8:	64c60010 	bsrli	r6, r6, 16
9000e8fc:	64650210 	bsrai	r3, r5, 16
9000e900:	14862000 	rsubk	r4, r6, r4
9000e904:	10841800 	addk	r4, r4, r3
9000e908:	f4880000 	shi	r4, r8, 0
9000e90c:	f4a80002 	shi	r5, r8, 2
9000e910:	31290004 	addik	r9, r9, 4
9000e914:	31080004 	addik	r8, r8, 4
9000e918:	164c3803 	cmpu	r18, r12, r7
9000e91c:	be52ffb4 	bltid	r18, -76		// 9000e8d0
9000e920:	65440210 	bsrai	r10, r4, 16
9000e924:	16534803 	cmpu	r18, r19, r9
9000e928:	bcb2003c 	bgei	r18, 60		// 9000e964
9000e92c:	e8690000 	lwi	r3, r9, 0
9000e930:	31290004 	addik	r9, r9, 4
9000e934:	b0000000 	imm	0
9000e938:	a483ffff 	andi	r4, r3, -1
9000e93c:	10845000 	addk	r4, r4, r10
9000e940:	64630010 	bsrli	r3, r3, 16
9000e944:	64a40210 	bsrai	r5, r4, 16
9000e948:	f4880002 	shi	r4, r8, 2
9000e94c:	10632800 	addk	r3, r3, r5
9000e950:	f4680000 	shi	r3, r8, 0
9000e954:	65430210 	bsrai	r10, r3, 16
9000e958:	16534803 	cmpu	r18, r19, r9
9000e95c:	be52ffd0 	bltid	r18, -48		// 9000e92c
9000e960:	31080004 	addik	r8, r8, 4
9000e964:	e868fffc 	lwi	r3, r8, -4
9000e968:	be230018 	bneid	r3, 24		// 9000e980
9000e96c:	3088fffc 	addik	r4, r8, -4
9000e970:	3084fffc 	addik	r4, r4, -4
9000e974:	e8640000 	lwi	r3, r4, 0
9000e978:	be03fff8 	beqid	r3, -8		// 9000e970
9000e97c:	316bffff 	addik	r11, r11, -1
9000e980:	f9760010 	swi	r11, r22, 16
9000e984:	10760000 	addk	r3, r22, r0
9000e988:	e9e10000 	lwi	r15, r1, 0
9000e98c:	ea61001c 	lwi	r19, r1, 28
9000e990:	eac10020 	lwi	r22, r1, 32
9000e994:	eae10024 	lwi	r23, r1, 36
9000e998:	eb010028 	lwi	r24, r1, 40
9000e99c:	eb21002c 	lwi	r25, r1, 44
9000e9a0:	eb410030 	lwi	r26, r1, 48
9000e9a4:	eb610034 	lwi	r27, r1, 52
9000e9a8:	eb810038 	lwi	r28, r1, 56
9000e9ac:	b60f0008 	rtsd	r15, 8
9000e9b0:	3021003c 	addik	r1, r1, 60
9000e9b4:	16433003 	cmpu	r18, r3, r6
9000e9b8:	beb2feb0 	bgeid	r18, -336		// 9000e868
9000e9bc:	10790000 	addk	r3, r25, r0
9000e9c0:	13370000 	addk	r25, r23, r0
9000e9c4:	33400001 	addik	r26, r0, 1
9000e9c8:	12e30000 	addk	r23, r3, r0
9000e9cc:	b810fe9c 	brid	-356		// 9000e868
9000e9d0:	33030014 	addik	r24, r3, 20
9000e9d4:	b9f487e8 	brlid	r15, -30744	// 900071bc <malloc>
9000e9d8:	30a00010 	addik	r5, r0, 16	// 10 <_vector_interrupt>
9000e9dc:	12630000 	addk	r19, r3, r0
9000e9e0:	f87c0024 	swi	r3, r28, 36
9000e9e4:	f8030004 	swi	r0, r3, 4
9000e9e8:	f8030008 	swi	r0, r3, 8
9000e9ec:	f8030000 	swi	r0, r3, 0
9000e9f0:	f803000c 	swi	r0, r3, 12
9000e9f4:	10bc0000 	addk	r5, r28, r0
9000e9f8:	30c00004 	addik	r6, r0, 4
9000e9fc:	b9f41950 	brlid	r15, 6480	// 9001034c <_calloc_r>
9000ea00:	30e00010 	addik	r7, r0, 16	// 10 <_vector_interrupt>
9000ea04:	f873000c 	swi	r3, r19, 12
9000ea08:	ea7c0024 	lwi	r19, r28, 36
9000ea0c:	e873000c 	lwi	r3, r19, 12
9000ea10:	be23fe70 	bneid	r3, -400		// 9000e880
9000ea14:	12c30000 	addk	r22, r3, r0
9000ea18:	b810fe90 	brid	-368		// 9000e8a8
9000ea1c:	e9770010 	lwi	r11, r23, 16
9000ea20:	b9f4879c 	brlid	r15, -30820	// 900071bc <malloc>
9000ea24:	30a00010 	addik	r5, r0, 16	// 10 <_vector_interrupt>
9000ea28:	12630000 	addk	r19, r3, r0
9000ea2c:	f87c0024 	swi	r3, r28, 36
9000ea30:	f8030004 	swi	r0, r3, 4
9000ea34:	f8030008 	swi	r0, r3, 8
9000ea38:	f8030000 	swi	r0, r3, 0
9000ea3c:	f803000c 	swi	r0, r3, 12
9000ea40:	10bc0000 	addk	r5, r28, r0
9000ea44:	30c00004 	addik	r6, r0, 4
9000ea48:	b9f41904 	brlid	r15, 6404	// 9001034c <_calloc_r>
9000ea4c:	30e00010 	addik	r7, r0, 16	// 10 <_vector_interrupt>
9000ea50:	f873000c 	swi	r3, r19, 12
9000ea54:	ea7c0024 	lwi	r19, r28, 36
9000ea58:	e873000c 	lwi	r3, r19, 12
9000ea5c:	be23fdd0 	bneid	r3, -560		// 9000e82c
9000ea60:	12c30000 	addk	r22, r3, r0
9000ea64:	b810fde8 	brid	-536		// 9000e84c
9000ea68:	30600001 	addik	r3, r0, 1
9000ea6c:	4666dc00 	bsll	r19, r6, r27
9000ea70:	10bc0000 	addk	r5, r28, r0
9000ea74:	64f30402 	bslli	r7, r19, 2
9000ea78:	b9f418d4 	brlid	r15, 6356	// 9001034c <_calloc_r>
9000ea7c:	30e70014 	addik	r7, r7, 20
9000ea80:	bc03fe24 	beqi	r3, -476		// 9000e8a4
9000ea84:	12c30000 	addk	r22, r3, r0
9000ea88:	fb630004 	swi	r27, r3, 4
9000ea8c:	b810fe10 	brid	-496		// 9000e89c
9000ea90:	fa630008 	swi	r19, r3, 8
9000ea94:	10bc0000 	addk	r5, r28, r0
9000ea98:	30c00001 	addik	r6, r0, 1
9000ea9c:	b9f418b0 	brlid	r15, 6320	// 9001034c <_calloc_r>
9000eaa0:	30e00018 	addik	r7, r0, 24
9000eaa4:	bc03fda4 	beqi	r3, -604		// 9000e848
9000eaa8:	12c30000 	addk	r22, r3, r0
9000eaac:	30600001 	addik	r3, r0, 1
9000eab0:	f8760008 	swi	r3, r22, 8
9000eab4:	b810fd8c 	brid	-628		// 9000e840
9000eab8:	f8160004 	swi	r0, r22, 4

9000eabc <_multadd>:
9000eabc:	3021ffc8 	addik	r1, r1, -56
9000eac0:	fa61001c 	swi	r19, r1, 28
9000eac4:	fb010028 	swi	r24, r1, 40
9000eac8:	fb610034 	swi	r27, r1, 52
9000eacc:	f9e10000 	swi	r15, r1, 0
9000ead0:	fac10020 	swi	r22, r1, 32
9000ead4:	fae10024 	swi	r23, r1, 36
9000ead8:	fb21002c 	swi	r25, r1, 44
9000eadc:	fb410030 	swi	r26, r1, 48
9000eae0:	13060000 	addk	r24, r6, r0
9000eae4:	13650000 	addk	r27, r5, r0
9000eae8:	eae60010 	lwi	r23, r6, 16
9000eaec:	12680000 	addk	r19, r8, r0
9000eaf0:	31260014 	addik	r9, r6, 20
9000eaf4:	11000000 	addk	r8, r0, r0
9000eaf8:	e8690000 	lwi	r3, r9, 0
9000eafc:	31080001 	addik	r8, r8, 1
9000eb00:	b0000000 	imm	0
9000eb04:	a483ffff 	andi	r4, r3, -1
9000eb08:	40843800 	mul	r4, r4, r7
9000eb0c:	64630010 	bsrli	r3, r3, 16
9000eb10:	10849800 	addk	r4, r4, r19
9000eb14:	40633800 	mul	r3, r3, r7
9000eb18:	64c40010 	bsrli	r6, r4, 16
9000eb1c:	b0000000 	imm	0
9000eb20:	a484ffff 	andi	r4, r4, -1
9000eb24:	10633000 	addk	r3, r3, r6
9000eb28:	64a30410 	bslli	r5, r3, 16
9000eb2c:	66630010 	bsrli	r19, r3, 16
9000eb30:	10a52000 	addk	r5, r5, r4
9000eb34:	f8a90000 	swi	r5, r9, 0
9000eb38:	16574001 	cmp	r18, r23, r8
9000eb3c:	be52ffbc 	bltid	r18, -68		// 9000eaf8
9000eb40:	31290004 	addik	r9, r9, 4
9000eb44:	be1300b4 	beqid	r19, 180		// 9000ebf8
9000eb48:	10780000 	addk	r3, r24, r0
9000eb4c:	e8780008 	lwi	r3, r24, 8
9000eb50:	1643b801 	cmp	r18, r3, r23
9000eb54:	be520090 	bltid	r18, 144		// 9000ebe4
9000eb58:	64770402 	bslli	r3, r23, 2
9000eb5c:	eadb0024 	lwi	r22, r27, 36
9000eb60:	eb580004 	lwi	r26, r24, 4
9000eb64:	be1600bc 	beqid	r22, 188		// 9000ec20
9000eb68:	13360000 	addk	r25, r22, r0
9000eb6c:	e876000c 	lwi	r3, r22, 12
9000eb70:	be0300d8 	beqid	r3, 216		// 9000ec48
9000eb74:	10bb0000 	addk	r5, r27, r0
9000eb78:	335a0001 	addik	r26, r26, 1
9000eb7c:	e8b6000c 	lwi	r5, r22, 12
9000eb80:	649a0402 	bslli	r4, r26, 2
9000eb84:	cb252000 	lw	r25, r5, r4
9000eb88:	be190110 	beqid	r25, 272		// 9000ec98
9000eb8c:	30c00001 	addik	r6, r0, 1
9000eb90:	e8790000 	lwi	r3, r25, 0
9000eb94:	d8652000 	sw	r3, r5, r4
9000eb98:	f8190010 	swi	r0, r25, 16
9000eb9c:	f819000c 	swi	r0, r25, 12
9000eba0:	e8f80010 	lwi	r7, r24, 16
9000eba4:	30b9000c 	addik	r5, r25, 12
9000eba8:	30d8000c 	addik	r6, r24, 12
9000ebac:	64e70402 	bslli	r7, r7, 2
9000ebb0:	b9f4ed68 	brlid	r15, -4760	// 9000d918 <memcpy>
9000ebb4:	30e70008 	addik	r7, r7, 8
9000ebb8:	eadb0024 	lwi	r22, r27, 36
9000ebbc:	be1600b4 	beqid	r22, 180		// 9000ec70
9000ebc0:	13560000 	addk	r26, r22, r0
9000ebc4:	e8780004 	lwi	r3, r24, 4
9000ebc8:	e8b6000c 	lwi	r5, r22, 12
9000ebcc:	64630402 	bslli	r3, r3, 2
9000ebd0:	c8851800 	lw	r4, r5, r3
9000ebd4:	f8980000 	swi	r4, r24, 0
9000ebd8:	db051800 	sw	r24, r5, r3
9000ebdc:	13190000 	addk	r24, r25, r0
9000ebe0:	64770402 	bslli	r3, r23, 2
9000ebe4:	30970001 	addik	r4, r23, 1
9000ebe8:	1063c000 	addk	r3, r3, r24
9000ebec:	fa630014 	swi	r19, r3, 20
9000ebf0:	f8980010 	swi	r4, r24, 16
9000ebf4:	10780000 	addk	r3, r24, r0
9000ebf8:	e9e10000 	lwi	r15, r1, 0
9000ebfc:	ea61001c 	lwi	r19, r1, 28
9000ec00:	eac10020 	lwi	r22, r1, 32
9000ec04:	eae10024 	lwi	r23, r1, 36
9000ec08:	eb010028 	lwi	r24, r1, 40
9000ec0c:	eb21002c 	lwi	r25, r1, 44
9000ec10:	eb410030 	lwi	r26, r1, 48
9000ec14:	eb610034 	lwi	r27, r1, 52
9000ec18:	b60f0008 	rtsd	r15, 8
9000ec1c:	30210038 	addik	r1, r1, 56
9000ec20:	b000ffff 	imm	-1
9000ec24:	b9f48598 	brlid	r15, -31336	// 900071bc <malloc>
9000ec28:	30a00010 	addik	r5, r0, 16	// 10 <_vector_interrupt>
9000ec2c:	12c30000 	addk	r22, r3, r0
9000ec30:	fb23000c 	swi	r25, r3, 12
9000ec34:	f87b0024 	swi	r3, r27, 36
9000ec38:	fb230004 	swi	r25, r3, 4
9000ec3c:	fb230008 	swi	r25, r3, 8
9000ec40:	b810ff2c 	brid	-212		// 9000eb6c
9000ec44:	fb230000 	swi	r25, r3, 0
9000ec48:	30c00004 	addik	r6, r0, 4
9000ec4c:	b9f41700 	brlid	r15, 5888	// 9001034c <_calloc_r>
9000ec50:	30e00010 	addik	r7, r0, 16	// 10 <_vector_interrupt>
9000ec54:	f876000c 	swi	r3, r22, 12
9000ec58:	eadb0024 	lwi	r22, r27, 36
9000ec5c:	e876000c 	lwi	r3, r22, 12
9000ec60:	be23ff18 	bneid	r3, -232		// 9000eb78
9000ec64:	13230000 	addk	r25, r3, r0
9000ec68:	b810ff3c 	brid	-196		// 9000eba4
9000ec6c:	e8f80010 	lwi	r7, r24, 16
9000ec70:	b000ffff 	imm	-1
9000ec74:	b9f48548 	brlid	r15, -31416	// 900071bc <malloc>
9000ec78:	30a00010 	addik	r5, r0, 16	// 10 <_vector_interrupt>
9000ec7c:	12c30000 	addk	r22, r3, r0
9000ec80:	f87b0024 	swi	r3, r27, 36
9000ec84:	fb43000c 	swi	r26, r3, 12
9000ec88:	fb430004 	swi	r26, r3, 4
9000ec8c:	fb430008 	swi	r26, r3, 8
9000ec90:	b810ff34 	brid	-204		// 9000ebc4
9000ec94:	fb430000 	swi	r26, r3, 0
9000ec98:	46c6d400 	bsll	r22, r6, r26
9000ec9c:	10bb0000 	addk	r5, r27, r0
9000eca0:	64f60402 	bslli	r7, r22, 2
9000eca4:	b9f416a8 	brlid	r15, 5800	// 9001034c <_calloc_r>
9000eca8:	30e70014 	addik	r7, r7, 20
9000ecac:	bc03fef4 	beqi	r3, -268		// 9000eba0
9000ecb0:	13230000 	addk	r25, r3, r0
9000ecb4:	fb430004 	swi	r26, r3, 4
9000ecb8:	b810fee0 	brid	-288		// 9000eb98
9000ecbc:	fac30008 	swi	r22, r3, 8

9000ecc0 <_lshift>:
9000ecc0:	3021ffc0 	addik	r1, r1, -64
9000ecc4:	fae10024 	swi	r23, r1, 36
9000ecc8:	fb21002c 	swi	r25, r1, 44
9000eccc:	fb410030 	swi	r26, r1, 48
9000ecd0:	fb610034 	swi	r27, r1, 52
9000ecd4:	fb810038 	swi	r28, r1, 56
9000ecd8:	f9e10000 	swi	r15, r1, 0
9000ecdc:	fa61001c 	swi	r19, r1, 28
9000ece0:	fac10020 	swi	r22, r1, 32
9000ece4:	fb010028 	swi	r24, r1, 40
9000ece8:	fba1003c 	swi	r29, r1, 60
9000ecec:	e8660010 	lwi	r3, r6, 16
9000ecf0:	66e70205 	bsrai	r23, r7, 5
9000ecf4:	e8860008 	lwi	r4, r6, 8
9000ecf8:	30630001 	addik	r3, r3, 1
9000ecfc:	13371800 	addk	r25, r23, r3
9000ed00:	13460000 	addk	r26, r6, r0
9000ed04:	13870000 	addk	r28, r7, r0
9000ed08:	13650000 	addk	r27, r5, r0
9000ed0c:	16592001 	cmp	r18, r25, r4
9000ed10:	beb20018 	bgeid	r18, 24		// 9000ed28
9000ed14:	ea660004 	lwi	r19, r6, 4
9000ed18:	10842000 	addk	r4, r4, r4
9000ed1c:	16592001 	cmp	r18, r25, r4
9000ed20:	be52fff8 	bltid	r18, -8		// 9000ed18
9000ed24:	32730001 	addik	r19, r19, 1
9000ed28:	eadb0024 	lwi	r22, r27, 36
9000ed2c:	bc160168 	beqi	r22, 360		// 9000ee94
9000ed30:	e876000c 	lwi	r3, r22, 12
9000ed34:	be030188 	beqid	r3, 392		// 9000eebc
9000ed38:	10bb0000 	addk	r5, r27, r0
9000ed3c:	e8b6000c 	lwi	r5, r22, 12
9000ed40:	64930402 	bslli	r4, r19, 2
9000ed44:	cb052000 	lw	r24, r5, r4
9000ed48:	be180198 	beqid	r24, 408		// 9000eee0
9000ed4c:	30c00001 	addik	r6, r0, 1
9000ed50:	e8780000 	lwi	r3, r24, 0
9000ed54:	d8652000 	sw	r3, r5, r4
9000ed58:	f8180010 	swi	r0, r24, 16
9000ed5c:	f818000c 	swi	r0, r24, 12
9000ed60:	be77002c 	bleid	r23, 44		// 9000ed8c
9000ed64:	30d80014 	addik	r6, r24, 20
9000ed68:	10660000 	addk	r3, r6, r0
9000ed6c:	10800000 	addk	r4, r0, r0
9000ed70:	30840001 	addik	r4, r4, 1
9000ed74:	f8030000 	swi	r0, r3, 0
9000ed78:	1644b800 	rsubk	r18, r4, r23
9000ed7c:	be32fff4 	bneid	r18, -12		// 9000ed70
9000ed80:	30630004 	addik	r3, r3, 4
9000ed84:	64770402 	bslli	r3, r23, 2
9000ed88:	10c61800 	addk	r6, r6, r3
9000ed8c:	e87a0010 	lwi	r3, r26, 16
9000ed90:	30ba0014 	addik	r5, r26, 20
9000ed94:	a4fc001f 	andi	r7, r28, 31
9000ed98:	64630402 	bslli	r3, r3, 2
9000ed9c:	be07009c 	beqid	r7, 156		// 9000ee38
9000eda0:	11051800 	addk	r8, r5, r3
9000eda4:	35270020 	rsubik	r9, r7, 32
9000eda8:	10800000 	addk	r4, r0, r0
9000edac:	e8650000 	lwi	r3, r5, 0
9000edb0:	44633c00 	bsll	r3, r3, r7
9000edb4:	80641800 	or	r3, r4, r3
9000edb8:	f8660000 	swi	r3, r6, 0
9000edbc:	e8850000 	lwi	r4, r5, 0
9000edc0:	30a50004 	addik	r5, r5, 4
9000edc4:	30c60004 	addik	r6, r6, 4
9000edc8:	16482803 	cmpu	r18, r8, r5
9000edcc:	be52ffe0 	bltid	r18, -32		// 9000edac
9000edd0:	44844800 	bsrl	r4, r4, r9
9000edd4:	be240084 	bneid	r4, 132		// 9000ee58
9000edd8:	f8860000 	swi	r4, r6, 0
9000eddc:	3079ffff 	addik	r3, r25, -1
9000ede0:	f8780010 	swi	r3, r24, 16
9000ede4:	be160088 	beqid	r22, 136		// 9000ee6c
9000ede8:	12760000 	addk	r19, r22, r0
9000edec:	e89a0004 	lwi	r4, r26, 4
9000edf0:	e8d6000c 	lwi	r6, r22, 12
9000edf4:	10780000 	addk	r3, r24, r0
9000edf8:	64840402 	bslli	r4, r4, 2
9000edfc:	c8a62000 	lw	r5, r6, r4
9000ee00:	f8ba0000 	swi	r5, r26, 0
9000ee04:	db462000 	sw	r26, r6, r4
9000ee08:	e9e10000 	lwi	r15, r1, 0
9000ee0c:	ea61001c 	lwi	r19, r1, 28
9000ee10:	eac10020 	lwi	r22, r1, 32
9000ee14:	eae10024 	lwi	r23, r1, 36
9000ee18:	eb010028 	lwi	r24, r1, 40
9000ee1c:	eb21002c 	lwi	r25, r1, 44
9000ee20:	eb410030 	lwi	r26, r1, 48
9000ee24:	eb610034 	lwi	r27, r1, 52
9000ee28:	eb810038 	lwi	r28, r1, 56
9000ee2c:	eba1003c 	lwi	r29, r1, 60
9000ee30:	b60f0008 	rtsd	r15, 8
9000ee34:	30210040 	addik	r1, r1, 64
9000ee38:	e8650000 	lwi	r3, r5, 0
9000ee3c:	30a50004 	addik	r5, r5, 4
9000ee40:	f8660000 	swi	r3, r6, 0
9000ee44:	16482803 	cmpu	r18, r8, r5
9000ee48:	be52fff0 	bltid	r18, -16		// 9000ee38
9000ee4c:	30c60004 	addik	r6, r6, 4
9000ee50:	b810ff90 	brid	-112		// 9000ede0
9000ee54:	3079ffff 	addik	r3, r25, -1
9000ee58:	33390001 	addik	r25, r25, 1
9000ee5c:	3079ffff 	addik	r3, r25, -1
9000ee60:	f8780010 	swi	r3, r24, 16
9000ee64:	be36ff88 	bneid	r22, -120		// 9000edec
9000ee68:	12760000 	addk	r19, r22, r0
9000ee6c:	b000ffff 	imm	-1
9000ee70:	b9f4834c 	brlid	r15, -31924	// 900071bc <malloc>
9000ee74:	30a00010 	addik	r5, r0, 16	// 10 <_vector_interrupt>
9000ee78:	12c30000 	addk	r22, r3, r0
9000ee7c:	f87b0024 	swi	r3, r27, 36
9000ee80:	fa63000c 	swi	r19, r3, 12
9000ee84:	fa630004 	swi	r19, r3, 4
9000ee88:	fa630008 	swi	r19, r3, 8
9000ee8c:	b810ff60 	brid	-160		// 9000edec
9000ee90:	fa630000 	swi	r19, r3, 0
9000ee94:	b000ffff 	imm	-1
9000ee98:	b9f48324 	brlid	r15, -31964	// 900071bc <malloc>
9000ee9c:	30a00010 	addik	r5, r0, 16	// 10 <_vector_interrupt>
9000eea0:	12c30000 	addk	r22, r3, r0
9000eea4:	f87b0024 	swi	r3, r27, 36
9000eea8:	f8030004 	swi	r0, r3, 4
9000eeac:	f8030008 	swi	r0, r3, 8
9000eeb0:	f8030000 	swi	r0, r3, 0
9000eeb4:	f803000c 	swi	r0, r3, 12
9000eeb8:	10bb0000 	addk	r5, r27, r0
9000eebc:	30c00004 	addik	r6, r0, 4
9000eec0:	b9f4148c 	brlid	r15, 5260	// 9001034c <_calloc_r>
9000eec4:	30e00010 	addik	r7, r0, 16	// 10 <_vector_interrupt>
9000eec8:	f876000c 	swi	r3, r22, 12
9000eecc:	eadb0024 	lwi	r22, r27, 36
9000eed0:	e876000c 	lwi	r3, r22, 12
9000eed4:	be23fe68 	bneid	r3, -408		// 9000ed3c
9000eed8:	13030000 	addk	r24, r3, r0
9000eedc:	b800fe84 	bri	-380		// 9000ed60
9000eee0:	47a69c00 	bsll	r29, r6, r19
9000eee4:	10bb0000 	addk	r5, r27, r0
9000eee8:	64fd0402 	bslli	r7, r29, 2
9000eeec:	b9f41460 	brlid	r15, 5216	// 9001034c <_calloc_r>
9000eef0:	30e70014 	addik	r7, r7, 20
9000eef4:	bc030018 	beqi	r3, 24		// 9000ef0c
9000eef8:	13030000 	addk	r24, r3, r0
9000eefc:	eadb0024 	lwi	r22, r27, 36
9000ef00:	fa630004 	swi	r19, r3, 4
9000ef04:	b810fe54 	brid	-428		// 9000ed58
9000ef08:	fba30008 	swi	r29, r3, 8
9000ef0c:	b810fe54 	brid	-428		// 9000ed60
9000ef10:	eadb0024 	lwi	r22, r27, 36

9000ef14 <_multiply>:
9000ef14:	3021ffc0 	addik	r1, r1, -64
9000ef18:	fae10024 	swi	r23, r1, 36
9000ef1c:	fb810038 	swi	r28, r1, 56
9000ef20:	fba1003c 	swi	r29, r1, 60
9000ef24:	f9e10000 	swi	r15, r1, 0
9000ef28:	fa61001c 	swi	r19, r1, 28
9000ef2c:	fac10020 	swi	r22, r1, 32
9000ef30:	fb010028 	swi	r24, r1, 40
9000ef34:	fb21002c 	swi	r25, r1, 44
9000ef38:	fb410030 	swi	r26, r1, 48
9000ef3c:	fb610034 	swi	r27, r1, 52
9000ef40:	eb660010 	lwi	r27, r6, 16
9000ef44:	eb470010 	lwi	r26, r7, 16
9000ef48:	12e60000 	addk	r23, r6, r0
9000ef4c:	13870000 	addk	r28, r7, r0
9000ef50:	165ad801 	cmp	r18, r26, r27
9000ef54:	beb20018 	bgeid	r18, 24		// 9000ef6c
9000ef58:	13a50000 	addk	r29, r5, r0
9000ef5c:	135b0000 	addk	r26, r27, r0
9000ef60:	13860000 	addk	r28, r6, r0
9000ef64:	12e70000 	addk	r23, r7, r0
9000ef68:	eb670010 	lwi	r27, r7, 16
9000ef6c:	e8770008 	lwi	r3, r23, 8
9000ef70:	12dbd000 	addk	r22, r27, r26
9000ef74:	16561801 	cmp	r18, r22, r3
9000ef78:	beb2000c 	bgeid	r18, 12		// 9000ef84
9000ef7c:	eb170004 	lwi	r24, r23, 4
9000ef80:	33180001 	addik	r24, r24, 1
9000ef84:	ea7d0024 	lwi	r19, r29, 36
9000ef88:	bc1301e8 	beqi	r19, 488		// 9000f170
9000ef8c:	e873000c 	lwi	r3, r19, 12
9000ef90:	be030208 	beqid	r3, 520		// 9000f198
9000ef94:	10bd0000 	addk	r5, r29, r0
9000ef98:	e8b3000c 	lwi	r5, r19, 12
9000ef9c:	64980402 	bslli	r4, r24, 2
9000efa0:	cb252000 	lw	r25, r5, r4
9000efa4:	be19021c 	beqid	r25, 540		// 9000f1c0
9000efa8:	30c00001 	addik	r6, r0, 1
9000efac:	e8790000 	lwi	r3, r25, 0
9000efb0:	d8652000 	sw	r3, r5, r4
9000efb4:	f8190010 	swi	r0, r25, 16
9000efb8:	f819000c 	swi	r0, r25, 12
9000efbc:	64760402 	bslli	r3, r22, 2
9000efc0:	30b90014 	addik	r5, r25, 20
9000efc4:	13051800 	addk	r24, r5, r3
9000efc8:	16582803 	cmpu	r18, r24, r5
9000efcc:	beb20018 	bgeid	r18, 24		// 9000efe4
9000efd0:	10650000 	addk	r3, r5, r0
9000efd4:	f8030000 	swi	r0, r3, 0
9000efd8:	30630004 	addik	r3, r3, 4
9000efdc:	16581803 	cmpu	r18, r24, r3
9000efe0:	bc52fff4 	blti	r18, -12		// 9000efd4
9000efe4:	647a0402 	bslli	r3, r26, 2
9000efe8:	649b0402 	bslli	r4, r27, 2
9000efec:	30fc0014 	addik	r7, r28, 20
9000eff0:	32f70014 	addik	r23, r23, 20
9000eff4:	13471800 	addk	r26, r7, r3
9000eff8:	165a3803 	cmpu	r18, r26, r7
9000effc:	beb20110 	bgeid	r18, 272		// 9000f10c
9000f000:	11972000 	addk	r12, r23, r4
9000f004:	12650000 	addk	r19, r5, r0
9000f008:	e8670000 	lwi	r3, r7, 0
9000f00c:	b0000000 	imm	0
9000f010:	a543ffff 	andi	r10, r3, -1
9000f014:	be0a0070 	beqid	r10, 112		// 9000f084
9000f018:	11130000 	addk	r8, r19, r0
9000f01c:	11370000 	addk	r9, r23, r0
9000f020:	11600000 	addk	r11, r0, r0
9000f024:	e8890000 	lwi	r4, r9, 0
9000f028:	e8c80000 	lwi	r6, r8, 0
9000f02c:	31290004 	addik	r9, r9, 4
9000f030:	b0000000 	imm	0
9000f034:	a4a4ffff 	andi	r5, r4, -1
9000f038:	40aa2800 	mul	r5, r10, r5
9000f03c:	64840010 	bsrli	r4, r4, 16
9000f040:	b0000000 	imm	0
9000f044:	a466ffff 	andi	r3, r6, -1
9000f048:	106b1800 	addk	r3, r11, r3
9000f04c:	408a2000 	mul	r4, r10, r4
9000f050:	10a51800 	addk	r5, r5, r3
9000f054:	64c60010 	bsrli	r6, r6, 16
9000f058:	64650010 	bsrli	r3, r5, 16
9000f05c:	10843000 	addk	r4, r4, r6
9000f060:	10632000 	addk	r3, r3, r4
9000f064:	f4680000 	shi	r3, r8, 0
9000f068:	f4a80002 	shi	r5, r8, 2
9000f06c:	65630010 	bsrli	r11, r3, 16
9000f070:	164c4803 	cmpu	r18, r12, r9
9000f074:	be52ffb0 	bltid	r18, -80		// 9000f024
9000f078:	31080004 	addik	r8, r8, 4
9000f07c:	f9680000 	swi	r11, r8, 0
9000f080:	e8670000 	lwi	r3, r7, 0
9000f084:	65430010 	bsrli	r10, r3, 16
9000f088:	be0a0074 	beqid	r10, 116		// 9000f0fc
9000f08c:	11130000 	addk	r8, r19, r0
9000f090:	e8730000 	lwi	r3, r19, 0
9000f094:	11370000 	addk	r9, r23, r0
9000f098:	10c30000 	addk	r6, r3, r0
9000f09c:	11600000 	addk	r11, r0, r0
9000f0a0:	e8a90000 	lwi	r5, r9, 0
9000f0a4:	f4680002 	shi	r3, r8, 2
9000f0a8:	64860010 	bsrli	r4, r6, 16
9000f0ac:	b0000000 	imm	0
9000f0b0:	a465ffff 	andi	r3, r5, -1
9000f0b4:	406a1800 	mul	r3, r10, r3
9000f0b8:	108b2000 	addk	r4, r11, r4
9000f0bc:	64a50010 	bsrli	r5, r5, 16
9000f0c0:	10632000 	addk	r3, r3, r4
9000f0c4:	f4680000 	shi	r3, r8, 0
9000f0c8:	31080004 	addik	r8, r8, 4
9000f0cc:	e8c80000 	lwi	r6, r8, 0
9000f0d0:	40aa2800 	mul	r5, r10, r5
9000f0d4:	64630010 	bsrli	r3, r3, 16
9000f0d8:	b0000000 	imm	0
9000f0dc:	a486ffff 	andi	r4, r6, -1
9000f0e0:	10a52000 	addk	r5, r5, r4
9000f0e4:	10632800 	addk	r3, r3, r5
9000f0e8:	31290004 	addik	r9, r9, 4
9000f0ec:	164c4803 	cmpu	r18, r12, r9
9000f0f0:	be52ffb0 	bltid	r18, -80		// 9000f0a0
9000f0f4:	65630010 	bsrli	r11, r3, 16
9000f0f8:	f8680000 	swi	r3, r8, 0
9000f0fc:	30e70004 	addik	r7, r7, 4
9000f100:	165a3803 	cmpu	r18, r26, r7
9000f104:	be52ff04 	bltid	r18, -252		// 9000f008
9000f108:	32730004 	addik	r19, r19, 4
9000f10c:	bc76002c 	blei	r22, 44		// 9000f138
9000f110:	e878fffc 	lwi	r3, r24, -4
9000f114:	be030018 	beqid	r3, 24		// 9000f12c
9000f118:	3098fffc 	addik	r4, r24, -4
9000f11c:	b8100020 	brid	32		// 9000f13c
9000f120:	fad90010 	swi	r22, r25, 16
9000f124:	e8640000 	lwi	r3, r4, 0
9000f128:	bc230010 	bnei	r3, 16		// 9000f138
9000f12c:	32d6ffff 	addik	r22, r22, -1
9000f130:	be36fff4 	bneid	r22, -12		// 9000f124
9000f134:	3084fffc 	addik	r4, r4, -4
9000f138:	fad90010 	swi	r22, r25, 16
9000f13c:	10790000 	addk	r3, r25, r0
9000f140:	e9e10000 	lwi	r15, r1, 0
9000f144:	ea61001c 	lwi	r19, r1, 28
9000f148:	eac10020 	lwi	r22, r1, 32
9000f14c:	eae10024 	lwi	r23, r1, 36
9000f150:	eb010028 	lwi	r24, r1, 40
9000f154:	eb21002c 	lwi	r25, r1, 44
9000f158:	eb410030 	lwi	r26, r1, 48
9000f15c:	eb610034 	lwi	r27, r1, 52
9000f160:	eb810038 	lwi	r28, r1, 56
9000f164:	eba1003c 	lwi	r29, r1, 60
9000f168:	b60f0008 	rtsd	r15, 8
9000f16c:	30210040 	addik	r1, r1, 64
9000f170:	b000ffff 	imm	-1
9000f174:	b9f48048 	brlid	r15, -32696	// 900071bc <malloc>
9000f178:	30a00010 	addik	r5, r0, 16	// 10 <_vector_interrupt>
9000f17c:	12630000 	addk	r19, r3, r0
9000f180:	f87d0024 	swi	r3, r29, 36
9000f184:	f8030004 	swi	r0, r3, 4
9000f188:	f8030008 	swi	r0, r3, 8
9000f18c:	f8030000 	swi	r0, r3, 0
9000f190:	f803000c 	swi	r0, r3, 12
9000f194:	10bd0000 	addk	r5, r29, r0
9000f198:	30c00004 	addik	r6, r0, 4
9000f19c:	b9f411b0 	brlid	r15, 4528	// 9001034c <_calloc_r>
9000f1a0:	30e00010 	addik	r7, r0, 16	// 10 <_vector_interrupt>
9000f1a4:	f873000c 	swi	r3, r19, 12
9000f1a8:	ea7d0024 	lwi	r19, r29, 36
9000f1ac:	e873000c 	lwi	r3, r19, 12
9000f1b0:	be23fde8 	bneid	r3, -536		// 9000ef98
9000f1b4:	13230000 	addk	r25, r3, r0
9000f1b8:	b810fe08 	brid	-504		// 9000efc0
9000f1bc:	64760402 	bslli	r3, r22, 2
9000f1c0:	4666c400 	bsll	r19, r6, r24
9000f1c4:	10bd0000 	addk	r5, r29, r0
9000f1c8:	64f30402 	bslli	r7, r19, 2
9000f1cc:	b9f41180 	brlid	r15, 4480	// 9001034c <_calloc_r>
9000f1d0:	30e70014 	addik	r7, r7, 20
9000f1d4:	bc03fde8 	beqi	r3, -536		// 9000efbc
9000f1d8:	13230000 	addk	r25, r3, r0
9000f1dc:	fb030004 	swi	r24, r3, 4
9000f1e0:	b810fdd4 	brid	-556		// 9000efb4
9000f1e4:	fa630008 	swi	r19, r3, 8

9000f1e8 <_i2b>:
9000f1e8:	3021ffd4 	addik	r1, r1, -44
9000f1ec:	fae10024 	swi	r23, r1, 36
9000f1f0:	12e50000 	addk	r23, r5, r0
9000f1f4:	fb010028 	swi	r24, r1, 40
9000f1f8:	f9e10000 	swi	r15, r1, 0
9000f1fc:	fa61001c 	swi	r19, r1, 28
9000f200:	fac10020 	swi	r22, r1, 32
9000f204:	ead70024 	lwi	r22, r23, 36
9000f208:	30a00010 	addik	r5, r0, 16	// 10 <_vector_interrupt>
9000f20c:	be160068 	beqid	r22, 104		// 9000f274
9000f210:	13060000 	addk	r24, r6, r0
9000f214:	e876000c 	lwi	r3, r22, 12
9000f218:	be030084 	beqid	r3, 132		// 9000f29c
9000f21c:	10b70000 	addk	r5, r23, r0
9000f220:	e896000c 	lwi	r4, r22, 12
9000f224:	10b70000 	addk	r5, r23, r0
9000f228:	30c00001 	addik	r6, r0, 1
9000f22c:	ea640004 	lwi	r19, r4, 4
9000f230:	be130094 	beqid	r19, 148		// 9000f2c4
9000f234:	30e0001c 	addik	r7, r0, 28
9000f238:	e8730000 	lwi	r3, r19, 0
9000f23c:	f8640004 	swi	r3, r4, 4
9000f240:	f813000c 	swi	r0, r19, 12
9000f244:	f8130010 	swi	r0, r19, 16
9000f248:	30600001 	addik	r3, r0, 1
9000f24c:	f8730010 	swi	r3, r19, 16
9000f250:	fb130014 	swi	r24, r19, 20
9000f254:	10730000 	addk	r3, r19, r0
9000f258:	e9e10000 	lwi	r15, r1, 0
9000f25c:	ea61001c 	lwi	r19, r1, 28
9000f260:	eac10020 	lwi	r22, r1, 32
9000f264:	eae10024 	lwi	r23, r1, 36
9000f268:	eb010028 	lwi	r24, r1, 40
9000f26c:	b60f0008 	rtsd	r15, 8
9000f270:	3021002c 	addik	r1, r1, 44
9000f274:	b000ffff 	imm	-1
9000f278:	b9f47f44 	brlid	r15, 32580	// 900071bc <malloc>
9000f27c:	80000000 	or	r0, r0, r0
9000f280:	12c30000 	addk	r22, r3, r0
9000f284:	f8770024 	swi	r3, r23, 36
9000f288:	f8030004 	swi	r0, r3, 4
9000f28c:	f8030008 	swi	r0, r3, 8
9000f290:	f8030000 	swi	r0, r3, 0
9000f294:	f803000c 	swi	r0, r3, 12
9000f298:	10b70000 	addk	r5, r23, r0
9000f29c:	30c00004 	addik	r6, r0, 4
9000f2a0:	b9f410ac 	brlid	r15, 4268	// 9001034c <_calloc_r>
9000f2a4:	30e00010 	addik	r7, r0, 16	// 10 <_vector_interrupt>
9000f2a8:	f876000c 	swi	r3, r22, 12
9000f2ac:	ead70024 	lwi	r22, r23, 36
9000f2b0:	e876000c 	lwi	r3, r22, 12
9000f2b4:	be23ff6c 	bneid	r3, -148		// 9000f220
9000f2b8:	12630000 	addk	r19, r3, r0
9000f2bc:	b810ff90 	brid	-112		// 9000f24c
9000f2c0:	30600001 	addik	r3, r0, 1
9000f2c4:	b9f41088 	brlid	r15, 4232	// 9001034c <_calloc_r>
9000f2c8:	80000000 	or	r0, r0, r0
9000f2cc:	be03ff7c 	beqid	r3, -132		// 9000f248
9000f2d0:	30800002 	addik	r4, r0, 2
9000f2d4:	12630000 	addk	r19, r3, r0
9000f2d8:	30600001 	addik	r3, r0, 1
9000f2dc:	f8730004 	swi	r3, r19, 4
9000f2e0:	b810ff60 	brid	-160		// 9000f240
9000f2e4:	f8930008 	swi	r4, r19, 8

9000f2e8 <_s2b>:
9000f2e8:	3021ffc4 	addik	r1, r1, -60
9000f2ec:	fb010028 	swi	r24, r1, 40
9000f2f0:	fb410030 	swi	r26, r1, 48
9000f2f4:	13050000 	addk	r24, r5, r0
9000f2f8:	13460000 	addk	r26, r6, r0
9000f2fc:	30a80008 	addik	r5, r8, 8
9000f300:	30c00009 	addik	r6, r0, 9
9000f304:	fae10024 	swi	r23, r1, 36
9000f308:	fb21002c 	swi	r25, r1, 44
9000f30c:	fb610034 	swi	r27, r1, 52
9000f310:	fb810038 	swi	r28, r1, 56
9000f314:	f9e10000 	swi	r15, r1, 0
9000f318:	fa61001c 	swi	r19, r1, 28
9000f31c:	fac10020 	swi	r22, r1, 32
9000f320:	13680000 	addk	r27, r8, r0
9000f324:	13270000 	addk	r25, r7, r0
9000f328:	b9f43474 	brlid	r15, 13428	// 9001279c <__divsi3>
9000f32c:	13890000 	addk	r28, r9, r0
9000f330:	32400001 	addik	r18, r0, 1
9000f334:	16439001 	cmp	r18, r3, r18
9000f338:	beb2001c 	bgeid	r18, 28		// 9000f354
9000f33c:	12e00000 	addk	r23, r0, r0
9000f340:	30800001 	addik	r4, r0, 1
9000f344:	10842000 	addk	r4, r4, r4
9000f348:	16432001 	cmp	r18, r3, r4
9000f34c:	be52fff8 	bltid	r18, -8		// 9000f344
9000f350:	32f70001 	addik	r23, r23, 1
9000f354:	ea780024 	lwi	r19, r24, 36
9000f358:	be13010c 	beqid	r19, 268		// 9000f464
9000f35c:	12d30000 	addk	r22, r19, r0
9000f360:	e873000c 	lwi	r3, r19, 12
9000f364:	be030128 	beqid	r3, 296		// 9000f48c
9000f368:	10b80000 	addk	r5, r24, r0
9000f36c:	e8b3000c 	lwi	r5, r19, 12
9000f370:	64970402 	bslli	r4, r23, 2
9000f374:	cac52000 	lw	r22, r5, r4
9000f378:	be16013c 	beqid	r22, 316		// 9000f4b4
9000f37c:	30c00001 	addik	r6, r0, 1
9000f380:	e8760000 	lwi	r3, r22, 0
9000f384:	d8652000 	sw	r3, r5, r4
9000f388:	f8160010 	swi	r0, r22, 16
9000f38c:	f816000c 	swi	r0, r22, 12
9000f390:	30600001 	addik	r3, r0, 1
9000f394:	fb960014 	swi	r28, r22, 20
9000f398:	32400009 	addik	r18, r0, 9
9000f39c:	16599001 	cmp	r18, r25, r18
9000f3a0:	beb200b8 	bgeid	r18, 184		// 9000f458
9000f3a4:	f8760010 	swi	r3, r22, 16
9000f3a8:	32fa0009 	addik	r23, r26, 9
9000f3ac:	32600009 	addik	r19, r0, 9
9000f3b0:	c11a9800 	lbu	r8, r26, r19
9000f3b4:	10d60000 	addk	r6, r22, r0
9000f3b8:	10b80000 	addk	r5, r24, r0
9000f3bc:	91080060 	sext8	r8, r8
9000f3c0:	3108ffd0 	addik	r8, r8, -48
9000f3c4:	b9f4f6f8 	brlid	r15, -2312	// 9000eabc <_multadd>
9000f3c8:	30e0000a 	addik	r7, r0, 10
9000f3cc:	32730001 	addik	r19, r19, 1
9000f3d0:	1653c800 	rsubk	r18, r19, r25
9000f3d4:	be32ffdc 	bneid	r18, -36		// 9000f3b0
9000f3d8:	12c30000 	addk	r22, r3, r0
9000f3dc:	10b90000 	addk	r5, r25, r0
9000f3e0:	1077c800 	addk	r3, r23, r25
9000f3e4:	3063fff8 	addik	r3, r3, -8
9000f3e8:	165b2801 	cmp	r18, r27, r5
9000f3ec:	beb2003c 	bgeid	r18, 60		// 9000f428
9000f3f0:	12630000 	addk	r19, r3, r0
9000f3f4:	1465d800 	rsubk	r3, r5, r27
9000f3f8:	12f31800 	addk	r23, r19, r3
9000f3fc:	e1130000 	lbui	r8, r19, 0
9000f400:	10d60000 	addk	r6, r22, r0
9000f404:	10b80000 	addk	r5, r24, r0
9000f408:	91080060 	sext8	r8, r8
9000f40c:	3108ffd0 	addik	r8, r8, -48
9000f410:	b9f4f6ac 	brlid	r15, -2388	// 9000eabc <_multadd>
9000f414:	30e0000a 	addik	r7, r0, 10
9000f418:	32730001 	addik	r19, r19, 1
9000f41c:	1653b800 	rsubk	r18, r19, r23
9000f420:	be32ffdc 	bneid	r18, -36		// 9000f3fc
9000f424:	12c30000 	addk	r22, r3, r0
9000f428:	10760000 	addk	r3, r22, r0
9000f42c:	e9e10000 	lwi	r15, r1, 0
9000f430:	ea61001c 	lwi	r19, r1, 28
9000f434:	eac10020 	lwi	r22, r1, 32
9000f438:	eae10024 	lwi	r23, r1, 36
9000f43c:	eb010028 	lwi	r24, r1, 40
9000f440:	eb21002c 	lwi	r25, r1, 44
9000f444:	eb410030 	lwi	r26, r1, 48
9000f448:	eb610034 	lwi	r27, r1, 52
9000f44c:	eb810038 	lwi	r28, r1, 56
9000f450:	b60f0008 	rtsd	r15, 8
9000f454:	3021003c 	addik	r1, r1, 60
9000f458:	307a000a 	addik	r3, r26, 10
9000f45c:	b810ff8c 	brid	-116		// 9000f3e8
9000f460:	30a00009 	addik	r5, r0, 9
9000f464:	b000ffff 	imm	-1
9000f468:	b9f47d54 	brlid	r15, 32084	// 900071bc <malloc>
9000f46c:	30a00010 	addik	r5, r0, 16	// 10 <_vector_interrupt>
9000f470:	12630000 	addk	r19, r3, r0
9000f474:	fac3000c 	swi	r22, r3, 12
9000f478:	f8780024 	swi	r3, r24, 36
9000f47c:	fac30004 	swi	r22, r3, 4
9000f480:	fac30008 	swi	r22, r3, 8
9000f484:	b810fedc 	brid	-292		// 9000f360
9000f488:	fac30000 	swi	r22, r3, 0
9000f48c:	30c00004 	addik	r6, r0, 4
9000f490:	b9f40ebc 	brlid	r15, 3772	// 9001034c <_calloc_r>
9000f494:	30e00010 	addik	r7, r0, 16	// 10 <_vector_interrupt>
9000f498:	f873000c 	swi	r3, r19, 12
9000f49c:	ea780024 	lwi	r19, r24, 36
9000f4a0:	e873000c 	lwi	r3, r19, 12
9000f4a4:	be23fec8 	bneid	r3, -312		// 9000f36c
9000f4a8:	12c30000 	addk	r22, r3, r0
9000f4ac:	b810fee8 	brid	-280		// 9000f394
9000f4b0:	30600001 	addik	r3, r0, 1
9000f4b4:	4666bc00 	bsll	r19, r6, r23
9000f4b8:	10b80000 	addk	r5, r24, r0
9000f4bc:	64f30402 	bslli	r7, r19, 2
9000f4c0:	b9f40e8c 	brlid	r15, 3724	// 9001034c <_calloc_r>
9000f4c4:	30e70014 	addik	r7, r7, 20
9000f4c8:	bc03fec8 	beqi	r3, -312		// 9000f390
9000f4cc:	12c30000 	addk	r22, r3, r0
9000f4d0:	fae30004 	swi	r23, r3, 4
9000f4d4:	b810feb4 	brid	-332		// 9000f388
9000f4d8:	fa630008 	swi	r19, r3, 8

9000f4dc <_pow5mult>:
9000f4dc:	3021ffcc 	addik	r1, r1, -52
9000f4e0:	a4670003 	andi	r3, r7, 3
9000f4e4:	fa61001c 	swi	r19, r1, 28
9000f4e8:	fb010028 	swi	r24, r1, 40
9000f4ec:	fb21002c 	swi	r25, r1, 44
9000f4f0:	f9e10000 	swi	r15, r1, 0
9000f4f4:	fac10020 	swi	r22, r1, 32
9000f4f8:	fae10024 	swi	r23, r1, 36
9000f4fc:	fb410030 	swi	r26, r1, 48
9000f500:	12670000 	addk	r19, r7, r0
9000f504:	13250000 	addk	r25, r5, r0
9000f508:	be2300e4 	bneid	r3, 228		// 9000f5ec
9000f50c:	13060000 	addk	r24, r6, r0
9000f510:	66f30202 	bsrai	r23, r19, 2
9000f514:	bc170098 	beqi	r23, 152		// 9000f5ac
9000f518:	ea790024 	lwi	r19, r25, 36
9000f51c:	be130154 	beqid	r19, 340		// 9000f670
9000f520:	12d30000 	addk	r22, r19, r0
9000f524:	ead30008 	lwi	r22, r19, 8
9000f528:	be360030 	bneid	r22, 48		// 9000f558
9000f52c:	13530000 	addk	r26, r19, r0
9000f530:	b81000fc 	brid	252		// 9000f62c
9000f534:	e873000c 	lwi	r3, r19, 12
9000f538:	92f70001 	sra	r23, r23
9000f53c:	10d60000 	addk	r6, r22, r0
9000f540:	10f60000 	addk	r7, r22, r0
9000f544:	be170068 	beqid	r23, 104		// 9000f5ac
9000f548:	10b90000 	addk	r5, r25, r0
9000f54c:	ea760000 	lwi	r19, r22, 0
9000f550:	bc130084 	beqi	r19, 132		// 9000f5d4
9000f554:	12d30000 	addk	r22, r19, r0
9000f558:	a4770001 	andi	r3, r23, 1
9000f55c:	10d80000 	addk	r6, r24, r0
9000f560:	10f60000 	addk	r7, r22, r0
9000f564:	be03ffd4 	beqid	r3, -44		// 9000f538
9000f568:	10b90000 	addk	r5, r25, r0
9000f56c:	b9f4f9a8 	brlid	r15, -1624	// 9000ef14 <_multiply>
9000f570:	80000000 	or	r0, r0, r0
9000f574:	ea790024 	lwi	r19, r25, 36
9000f578:	13430000 	addk	r26, r3, r0
9000f57c:	be13008c 	beqid	r19, 140		// 9000f608
9000f580:	30a00010 	addik	r5, r0, 16	// 10 <_vector_interrupt>
9000f584:	bc180020 	beqi	r24, 32		// 9000f5a4
9000f588:	e8990024 	lwi	r4, r25, 36
9000f58c:	e8780004 	lwi	r3, r24, 4
9000f590:	e8a4000c 	lwi	r5, r4, 12
9000f594:	64630402 	bslli	r3, r3, 2
9000f598:	c8851800 	lw	r4, r5, r3
9000f59c:	f8980000 	swi	r4, r24, 0
9000f5a0:	db051800 	sw	r24, r5, r3
9000f5a4:	b810ff94 	brid	-108		// 9000f538
9000f5a8:	131a0000 	addk	r24, r26, r0
9000f5ac:	10780000 	addk	r3, r24, r0
9000f5b0:	e9e10000 	lwi	r15, r1, 0
9000f5b4:	ea61001c 	lwi	r19, r1, 28
9000f5b8:	eac10020 	lwi	r22, r1, 32
9000f5bc:	eae10024 	lwi	r23, r1, 36
9000f5c0:	eb010028 	lwi	r24, r1, 40
9000f5c4:	eb21002c 	lwi	r25, r1, 44
9000f5c8:	eb410030 	lwi	r26, r1, 48
9000f5cc:	b60f0008 	rtsd	r15, 8
9000f5d0:	30210034 	addik	r1, r1, 52
9000f5d4:	b9f4f940 	brlid	r15, -1728	// 9000ef14 <_multiply>
9000f5d8:	80000000 	or	r0, r0, r0
9000f5dc:	f8760000 	swi	r3, r22, 0
9000f5e0:	12c30000 	addk	r22, r3, r0
9000f5e4:	b810ff74 	brid	-140		// 9000f558
9000f5e8:	fa630000 	swi	r19, r3, 0
9000f5ec:	64630402 	bslli	r3, r3, 2
9000f5f0:	b0009001 	imm	-28671
9000f5f4:	e8e335d4 	lwi	r7, r3, 13780
9000f5f8:	b9f4f4c4 	brlid	r15, -2876	// 9000eabc <_multadd>
9000f5fc:	11000000 	addk	r8, r0, r0
9000f600:	b810ff10 	brid	-240		// 9000f510
9000f604:	13030000 	addk	r24, r3, r0
9000f608:	b000ffff 	imm	-1
9000f60c:	b9f47bb0 	brlid	r15, 31664	// 900071bc <malloc>
9000f610:	80000000 	or	r0, r0, r0
9000f614:	fa63000c 	swi	r19, r3, 12
9000f618:	fa630008 	swi	r19, r3, 8
9000f61c:	fa630000 	swi	r19, r3, 0
9000f620:	f8790024 	swi	r3, r25, 36
9000f624:	b810ff60 	brid	-160		// 9000f584
9000f628:	fa630004 	swi	r19, r3, 4
9000f62c:	be03006c 	beqid	r3, 108		// 9000f698
9000f630:	10b90000 	addk	r5, r25, r0
9000f634:	e893000c 	lwi	r4, r19, 12
9000f638:	eac40004 	lwi	r22, r4, 4
9000f63c:	be160080 	beqid	r22, 128		// 9000f6bc
9000f640:	30c00001 	addik	r6, r0, 1
9000f644:	e8760000 	lwi	r3, r22, 0
9000f648:	f8640004 	swi	r3, r4, 4
9000f64c:	f8160010 	swi	r0, r22, 16
9000f650:	f816000c 	swi	r0, r22, 12
9000f654:	fada0008 	swi	r22, r26, 8
9000f658:	30600271 	addik	r3, r0, 625
9000f65c:	30800001 	addik	r4, r0, 1
9000f660:	f8760014 	swi	r3, r22, 20
9000f664:	f8960010 	swi	r4, r22, 16
9000f668:	b810fef0 	brid	-272		// 9000f558
9000f66c:	f8160000 	swi	r0, r22, 0
9000f670:	b000ffff 	imm	-1
9000f674:	b9f47b48 	brlid	r15, 31560	// 900071bc <malloc>
9000f678:	30a00010 	addik	r5, r0, 16	// 10 <_vector_interrupt>
9000f67c:	12630000 	addk	r19, r3, r0
9000f680:	fac3000c 	swi	r22, r3, 12
9000f684:	f8790024 	swi	r3, r25, 36
9000f688:	fac30004 	swi	r22, r3, 4
9000f68c:	fac30008 	swi	r22, r3, 8
9000f690:	b810fe94 	brid	-364		// 9000f524
9000f694:	fac30000 	swi	r22, r3, 0
9000f698:	30c00004 	addik	r6, r0, 4
9000f69c:	b9f40cb0 	brlid	r15, 3248	// 9001034c <_calloc_r>
9000f6a0:	30e00010 	addik	r7, r0, 16	// 10 <_vector_interrupt>
9000f6a4:	f873000c 	swi	r3, r19, 12
9000f6a8:	ea790024 	lwi	r19, r25, 36
9000f6ac:	e873000c 	lwi	r3, r19, 12
9000f6b0:	bc23ff84 	bnei	r3, -124		// 9000f634
9000f6b4:	b810ffa4 	brid	-92		// 9000f658
9000f6b8:	fada0008 	swi	r22, r26, 8
9000f6bc:	10b90000 	addk	r5, r25, r0
9000f6c0:	b9f40c8c 	brlid	r15, 3212	// 9001034c <_calloc_r>
9000f6c4:	30e0001c 	addik	r7, r0, 28
9000f6c8:	be03ff8c 	beqid	r3, -116		// 9000f654
9000f6cc:	30800002 	addik	r4, r0, 2
9000f6d0:	12c30000 	addk	r22, r3, r0
9000f6d4:	30600001 	addik	r3, r0, 1
9000f6d8:	f8760004 	swi	r3, r22, 4
9000f6dc:	b810ff70 	brid	-144		// 9000f64c
9000f6e0:	f8960008 	swi	r4, r22, 8

9000f6e4 <_realloc_r>:
9000f6e4:	3021ffbc 	addik	r1, r1, -68
9000f6e8:	fac10020 	swi	r22, r1, 32
9000f6ec:	fae10024 	swi	r23, r1, 36
9000f6f0:	fb810038 	swi	r28, r1, 56
9000f6f4:	f9e10000 	swi	r15, r1, 0
9000f6f8:	fa61001c 	swi	r19, r1, 28
9000f6fc:	fb010028 	swi	r24, r1, 40
9000f700:	fb21002c 	swi	r25, r1, 44
9000f704:	fb410030 	swi	r26, r1, 48
9000f708:	fb610034 	swi	r27, r1, 52
9000f70c:	fba1003c 	swi	r29, r1, 60
9000f710:	fbc10040 	swi	r30, r1, 64
9000f714:	12e60000 	addk	r23, r6, r0
9000f718:	12c70000 	addk	r22, r7, r0
9000f71c:	be06022c 	beqid	r6, 556		// 9000f948
9000f720:	13850000 	addk	r28, r5, r0
9000f724:	b000ffff 	imm	-1
9000f728:	b9f48408 	brlid	r15, -31736	// 90007b30 <__malloc_lock>
9000f72c:	3277fff8 	addik	r19, r23, -8
9000f730:	3076000b 	addik	r3, r22, 11
9000f734:	22400016 	addi	r18, r0, 22
9000f738:	16439003 	cmpu	r18, r3, r18
9000f73c:	be520088 	bltid	r18, 136		// 9000f7c4
9000f740:	e8d30004 	lwi	r6, r19, 4
9000f744:	30a00010 	addik	r5, r0, 16	// 10 <_vector_interrupt>
9000f748:	13650000 	addk	r27, r5, r0
9000f74c:	1656d803 	cmpu	r18, r22, r27
9000f750:	be520088 	bltid	r18, 136		// 9000f7d8
9000f754:	10600000 	addk	r3, r0, r0
9000f758:	be230080 	bneid	r3, 128		// 9000f7d8
9000f75c:	a706fffc 	andi	r24, r6, -4
9000f760:	1645c001 	cmp	r18, r5, r24
9000f764:	be5200b8 	bltid	r18, 184		// 9000f81c
9000f768:	10f3c000 	addk	r7, r19, r24
9000f76c:	13380000 	addk	r25, r24, r0
9000f770:	13530000 	addk	r26, r19, r0
9000f774:	11130000 	addk	r8, r19, r0
9000f778:	32730008 	addik	r19, r19, 8
9000f77c:	14fbc800 	rsubk	r7, r27, r25
9000f780:	2240000f 	addi	r18, r0, 15
9000f784:	16479003 	cmpu	r18, r7, r18
9000f788:	bc520200 	blti	r18, 512		// 9000f988
9000f78c:	e8680004 	lwi	r3, r8, 4
9000f790:	10b9d000 	addk	r5, r25, r26
9000f794:	a4630001 	andi	r3, r3, 1
9000f798:	80791800 	or	r3, r25, r3
9000f79c:	f8680004 	swi	r3, r8, 4
9000f7a0:	e8850004 	lwi	r4, r5, 4
9000f7a4:	a0840001 	ori	r4, r4, 1
9000f7a8:	f8850004 	swi	r4, r5, 4
9000f7ac:	10bc0000 	addk	r5, r28, r0
9000f7b0:	b000ffff 	imm	-1
9000f7b4:	b9f48384 	brlid	r15, -31868	// 90007b38 <__malloc_unlock>
9000f7b8:	12d30000 	addk	r22, r19, r0
9000f7bc:	b810002c 	brid	44		// 9000f7e8
9000f7c0:	10760000 	addk	r3, r22, r0
9000f7c4:	a4a3fff8 	andi	r5, r3, -8
9000f7c8:	13650000 	addk	r27, r5, r0
9000f7cc:	1656d803 	cmpu	r18, r22, r27
9000f7d0:	beb2ff88 	bgeid	r18, -120		// 9000f758
9000f7d4:	6465001f 	bsrli	r3, r5, 31
9000f7d8:	3060000c 	addik	r3, r0, 12
9000f7dc:	12c00000 	addk	r22, r0, r0
9000f7e0:	f87c000c 	swi	r3, r28, 12
9000f7e4:	10760000 	addk	r3, r22, r0
9000f7e8:	e9e10000 	lwi	r15, r1, 0
9000f7ec:	ea61001c 	lwi	r19, r1, 28
9000f7f0:	eac10020 	lwi	r22, r1, 32
9000f7f4:	eae10024 	lwi	r23, r1, 36
9000f7f8:	eb010028 	lwi	r24, r1, 40
9000f7fc:	eb21002c 	lwi	r25, r1, 44
9000f800:	eb410030 	lwi	r26, r1, 48
9000f804:	eb610034 	lwi	r27, r1, 52
9000f808:	eb810038 	lwi	r28, r1, 56
9000f80c:	eba1003c 	lwi	r29, r1, 60
9000f810:	ebc10040 	lwi	r30, r1, 64
9000f814:	b60f0008 	rtsd	r15, 8
9000f818:	30210044 	addik	r1, r1, 68
9000f81c:	b0009001 	imm	-28671
9000f820:	e92038a0 	lwi	r9, r0, 14496
9000f824:	b0009001 	imm	-28671
9000f828:	33c03898 	addik	r30, r0, 14488
9000f82c:	16493800 	rsubk	r18, r9, r7
9000f830:	be120320 	beqid	r18, 800		// 9000fb50
9000f834:	13530000 	addk	r26, r19, r0
9000f838:	e9070004 	lwi	r8, r7, 4
9000f83c:	a468fffe 	andi	r3, r8, -2
9000f840:	10633800 	addk	r3, r3, r7
9000f844:	e8830004 	lwi	r4, r3, 4
9000f848:	a4840001 	andi	r4, r4, 1
9000f84c:	be040110 	beqid	r4, 272		// 9000f95c
9000f850:	a508fffc 	andi	r8, r8, -4
9000f854:	11000000 	addk	r8, r0, r0
9000f858:	10e80000 	addk	r7, r8, r0
9000f85c:	a4660001 	andi	r3, r6, 1
9000f860:	be230168 	bneid	r3, 360		// 9000f9c8
9000f864:	10d60000 	addk	r6, r22, r0
9000f868:	e8730000 	lwi	r3, r19, 0
9000f86c:	17a39800 	rsubk	r29, r3, r19
9000f870:	e89d0004 	lwi	r4, r29, 4
9000f874:	be070224 	beqid	r7, 548		// 9000fa98
9000f878:	a484fffc 	andi	r4, r4, -4
9000f87c:	16493800 	rsubk	r18, r9, r7
9000f880:	be120330 	beqid	r18, 816		// 9000fbb0
9000f884:	11382000 	addk	r9, r24, r4
9000f888:	13284800 	addk	r25, r8, r9
9000f88c:	1645c801 	cmp	r18, r5, r25
9000f890:	be52020c 	bltid	r18, 524		// 9000fa9c
9000f894:	315d0008 	addik	r10, r29, 8
9000f898:	e867000c 	lwi	r3, r7, 12
9000f89c:	e8a70008 	lwi	r5, r7, 8
9000f8a0:	30f8fffc 	addik	r7, r24, -4
9000f8a4:	135d0000 	addk	r26, r29, r0
9000f8a8:	f865000c 	swi	r3, r5, 12
9000f8ac:	f8a30008 	swi	r5, r3, 8
9000f8b0:	e89d000c 	lwi	r4, r29, 12
9000f8b4:	e87d0008 	lwi	r3, r29, 8
9000f8b8:	f8640008 	swi	r3, r4, 8
9000f8bc:	22400024 	addi	r18, r0, 36
9000f8c0:	16479003 	cmpu	r18, r7, r18
9000f8c4:	be5203e0 	bltid	r18, 992		// 9000fca4
9000f8c8:	f883000c 	swi	r4, r3, 12
9000f8cc:	10b70000 	addk	r5, r23, r0
9000f8d0:	22400013 	addi	r18, r0, 19
9000f8d4:	16479003 	cmpu	r18, r7, r18
9000f8d8:	beb2004c 	bgeid	r18, 76		// 9000f924
9000f8dc:	112a0000 	addk	r9, r10, r0
9000f8e0:	e8970000 	lwi	r4, r23, 0
9000f8e4:	313d0010 	addik	r9, r29, 16
9000f8e8:	30b70008 	addik	r5, r23, 8
9000f8ec:	f89d0008 	swi	r4, r29, 8
9000f8f0:	e8770004 	lwi	r3, r23, 4
9000f8f4:	2240001b 	addi	r18, r0, 27
9000f8f8:	16479003 	cmpu	r18, r7, r18
9000f8fc:	beb20028 	bgeid	r18, 40		// 9000f924
9000f900:	f87d000c 	swi	r3, r29, 12
9000f904:	e8970008 	lwi	r4, r23, 8
9000f908:	313d0018 	addik	r9, r29, 24
9000f90c:	30b70010 	addik	r5, r23, 16
9000f910:	f89d0010 	swi	r4, r29, 16
9000f914:	e877000c 	lwi	r3, r23, 12
9000f918:	aa470024 	xori	r18, r7, 36
9000f91c:	be1203ec 	beqid	r18, 1004		// 9000fd08
9000f920:	f87d0014 	swi	r3, r29, 20
9000f924:	e8650000 	lwi	r3, r5, 0
9000f928:	111d0000 	addk	r8, r29, r0
9000f92c:	126a0000 	addk	r19, r10, r0
9000f930:	f8690000 	swi	r3, r9, 0
9000f934:	e8850004 	lwi	r4, r5, 4
9000f938:	f8890004 	swi	r4, r9, 4
9000f93c:	e8650008 	lwi	r3, r5, 8
9000f940:	b810fe3c 	brid	-452		// 9000f77c
9000f944:	f8690008 	swi	r3, r9, 8
9000f948:	b000ffff 	imm	-1
9000f94c:	b9f47898 	brlid	r15, 30872	// 900071e4 <_malloc_r>
9000f950:	10c70000 	addk	r6, r7, r0
9000f954:	b810fe90 	brid	-368		// 9000f7e4
9000f958:	12c30000 	addk	r22, r3, r0
9000f95c:	13384000 	addk	r25, r24, r8
9000f960:	1645c801 	cmp	r18, r5, r25
9000f964:	be52fefc 	bltid	r18, -260		// 9000f860
9000f968:	a4660001 	andi	r3, r6, 1
9000f96c:	e8870008 	lwi	r4, r7, 8
9000f970:	e867000c 	lwi	r3, r7, 12
9000f974:	11130000 	addk	r8, r19, r0
9000f978:	32730008 	addik	r19, r19, 8
9000f97c:	f8830008 	swi	r4, r3, 8
9000f980:	b810fdfc 	brid	-516		// 9000f77c
9000f984:	f864000c 	swi	r3, r4, 12
9000f988:	e8680004 	lwi	r3, r8, 4
9000f98c:	10dbd000 	addk	r6, r27, r26
9000f990:	a0a70001 	ori	r5, r7, 1
9000f994:	a4630001 	andi	r3, r3, 1
9000f998:	807b1800 	or	r3, r27, r3
9000f99c:	f8680004 	swi	r3, r8, 4
9000f9a0:	f8a60004 	swi	r5, r6, 4
9000f9a4:	10863800 	addk	r4, r6, r7
9000f9a8:	e8640004 	lwi	r3, r4, 4
9000f9ac:	10bc0000 	addk	r5, r28, r0
9000f9b0:	30c60008 	addik	r6, r6, 8
9000f9b4:	a0630001 	ori	r3, r3, 1
9000f9b8:	b9f4d35c 	brlid	r15, -11428	// 9000cd14 <_free_r>
9000f9bc:	f8640004 	swi	r3, r4, 4
9000f9c0:	b810fdf0 	brid	-528		// 9000f7b0
9000f9c4:	10bc0000 	addk	r5, r28, r0
9000f9c8:	b000ffff 	imm	-1
9000f9cc:	b9f47818 	brlid	r15, 30744	// 900071e4 <_malloc_r>
9000f9d0:	10bc0000 	addk	r5, r28, r0
9000f9d4:	be0300b0 	beqid	r3, 176		// 9000fa84
9000f9d8:	12c30000 	addk	r22, r3, r0
9000f9dc:	e8730004 	lwi	r3, r19, 4
9000f9e0:	3096fff8 	addik	r4, r22, -8
9000f9e4:	a463fffe 	andi	r3, r3, -2
9000f9e8:	10731800 	addk	r3, r19, r3
9000f9ec:	16432000 	rsubk	r18, r3, r4
9000f9f0:	be12029c 	beqid	r18, 668		// 9000fc8c
9000f9f4:	30f8fffc 	addik	r7, r24, -4
9000f9f8:	22400024 	addi	r18, r0, 36
9000f9fc:	16479003 	cmpu	r18, r7, r18
9000fa00:	be5201a0 	bltid	r18, 416		// 9000fba0
9000fa04:	10b60000 	addk	r5, r22, r0
9000fa08:	10b70000 	addk	r5, r23, r0
9000fa0c:	22400013 	addi	r18, r0, 19
9000fa10:	16479003 	cmpu	r18, r7, r18
9000fa14:	beb2004c 	bgeid	r18, 76		// 9000fa60
9000fa18:	10d60000 	addk	r6, r22, r0
9000fa1c:	e8970000 	lwi	r4, r23, 0
9000fa20:	30d60008 	addik	r6, r22, 8
9000fa24:	30b70008 	addik	r5, r23, 8
9000fa28:	f8960000 	swi	r4, r22, 0
9000fa2c:	e8770004 	lwi	r3, r23, 4
9000fa30:	2240001b 	addi	r18, r0, 27
9000fa34:	16479003 	cmpu	r18, r7, r18
9000fa38:	beb20028 	bgeid	r18, 40		// 9000fa60
9000fa3c:	f8760004 	swi	r3, r22, 4
9000fa40:	e8970008 	lwi	r4, r23, 8
9000fa44:	30d60010 	addik	r6, r22, 16
9000fa48:	30b70010 	addik	r5, r23, 16
9000fa4c:	f8960008 	swi	r4, r22, 8
9000fa50:	e877000c 	lwi	r3, r23, 12
9000fa54:	aa470024 	xori	r18, r7, 36
9000fa58:	be120280 	beqid	r18, 640		// 9000fcd8
9000fa5c:	f876000c 	swi	r3, r22, 12
9000fa60:	e8650000 	lwi	r3, r5, 0
9000fa64:	f8660000 	swi	r3, r6, 0
9000fa68:	e8850004 	lwi	r4, r5, 4
9000fa6c:	f8860004 	swi	r4, r6, 4
9000fa70:	e8650008 	lwi	r3, r5, 8
9000fa74:	f8660008 	swi	r3, r6, 8
9000fa78:	10d70000 	addk	r6, r23, r0
9000fa7c:	b9f4d298 	brlid	r15, -11624	// 9000cd14 <_free_r>
9000fa80:	10bc0000 	addk	r5, r28, r0
9000fa84:	b000ffff 	imm	-1
9000fa88:	b9f480b0 	brlid	r15, -32592	// 90007b38 <__malloc_unlock>
9000fa8c:	10bc0000 	addk	r5, r28, r0
9000fa90:	b810fd58 	brid	-680		// 9000f7e8
9000fa94:	10760000 	addk	r3, r22, r0
9000fa98:	11382000 	addk	r9, r24, r4
9000fa9c:	16454801 	cmp	r18, r5, r9
9000faa0:	be52ff28 	bltid	r18, -216		// 9000f9c8
9000faa4:	10d60000 	addk	r6, r22, r0
9000faa8:	e89d000c 	lwi	r4, r29, 12
9000faac:	e87d0008 	lwi	r3, r29, 8
9000fab0:	30f8fffc 	addik	r7, r24, -4
9000fab4:	135d0000 	addk	r26, r29, r0
9000fab8:	f8640008 	swi	r3, r4, 8
9000fabc:	f883000c 	swi	r4, r3, 12
9000fac0:	22400024 	addi	r18, r0, 36
9000fac4:	16479003 	cmpu	r18, r7, r18
9000fac8:	be5201f4 	bltid	r18, 500		// 9000fcbc
9000facc:	317d0008 	addik	r11, r29, 8
9000fad0:	10b70000 	addk	r5, r23, r0
9000fad4:	22400013 	addi	r18, r0, 19
9000fad8:	16479003 	cmpu	r18, r7, r18
9000fadc:	beb2004c 	bgeid	r18, 76		// 9000fb28
9000fae0:	114b0000 	addk	r10, r11, r0
9000fae4:	e8970000 	lwi	r4, r23, 0
9000fae8:	315d0010 	addik	r10, r29, 16
9000faec:	30b70008 	addik	r5, r23, 8
9000faf0:	f89d0008 	swi	r4, r29, 8
9000faf4:	e8770004 	lwi	r3, r23, 4
9000faf8:	2240001b 	addi	r18, r0, 27
9000fafc:	16479003 	cmpu	r18, r7, r18
9000fb00:	beb20028 	bgeid	r18, 40		// 9000fb28
9000fb04:	f87d000c 	swi	r3, r29, 12
9000fb08:	e8970008 	lwi	r4, r23, 8
9000fb0c:	315d0018 	addik	r10, r29, 24
9000fb10:	30b70010 	addik	r5, r23, 16
9000fb14:	f89d0010 	swi	r4, r29, 16
9000fb18:	e877000c 	lwi	r3, r23, 12
9000fb1c:	aa470024 	xori	r18, r7, 36
9000fb20:	be120204 	beqid	r18, 516		// 9000fd24
9000fb24:	f87d0014 	swi	r3, r29, 20
9000fb28:	e8650000 	lwi	r3, r5, 0
9000fb2c:	111d0000 	addk	r8, r29, r0
9000fb30:	13290000 	addk	r25, r9, r0
9000fb34:	f86a0000 	swi	r3, r10, 0
9000fb38:	e8850004 	lwi	r4, r5, 4
9000fb3c:	126b0000 	addk	r19, r11, r0
9000fb40:	f88a0004 	swi	r4, r10, 4
9000fb44:	e8650008 	lwi	r3, r5, 8
9000fb48:	b810fc34 	brid	-972		// 9000f77c
9000fb4c:	f86a0008 	swi	r3, r10, 8
9000fb50:	e8670004 	lwi	r3, r7, 4
9000fb54:	309b0010 	addik	r4, r27, 16
9000fb58:	a503fffc 	andi	r8, r3, -4
9000fb5c:	10784000 	addk	r3, r24, r8
9000fb60:	16441801 	cmp	r18, r4, r3
9000fb64:	be52fcf8 	bltid	r18, -776		// 9000f85c
9000fb68:	147b1800 	rsubk	r3, r27, r3
9000fb6c:	10d3d800 	addk	r6, r19, r27
9000fb70:	a0630001 	ori	r3, r3, 1
9000fb74:	f8660004 	swi	r3, r6, 4
9000fb78:	e8930004 	lwi	r4, r19, 4
9000fb7c:	10bc0000 	addk	r5, r28, r0
9000fb80:	f8de0008 	swi	r6, r30, 8
9000fb84:	a4840001 	andi	r4, r4, 1
9000fb88:	809b2000 	or	r4, r27, r4
9000fb8c:	b000ffff 	imm	-1
9000fb90:	b9f47fa8 	brlid	r15, 32680	// 90007b38 <__malloc_unlock>
9000fb94:	f8930004 	swi	r4, r19, 4
9000fb98:	b810fc4c 	brid	-948		// 9000f7e4
9000fb9c:	32d30008 	addik	r22, r19, 8
9000fba0:	b9f4de38 	brlid	r15, -8648	// 9000d9d8 <memmove>
9000fba4:	10d70000 	addk	r6, r23, r0
9000fba8:	b810fed4 	brid	-300		// 9000fa7c
9000fbac:	10d70000 	addk	r6, r23, r0
9000fbb0:	13284800 	addk	r25, r8, r9
9000fbb4:	307b0010 	addik	r3, r27, 16
9000fbb8:	1643c801 	cmp	r18, r3, r25
9000fbbc:	be52fee0 	bltid	r18, -288		// 9000fa9c
9000fbc0:	30f8fffc 	addik	r7, r24, -4
9000fbc4:	e89d000c 	lwi	r4, r29, 12
9000fbc8:	e87d0008 	lwi	r3, r29, 8
9000fbcc:	32dd0008 	addik	r22, r29, 8
9000fbd0:	f8640008 	swi	r3, r4, 8
9000fbd4:	22400024 	addi	r18, r0, 36
9000fbd8:	16479003 	cmpu	r18, r7, r18
9000fbdc:	be520118 	bltid	r18, 280		// 9000fcf4
9000fbe0:	f883000c 	swi	r4, r3, 12
9000fbe4:	10d70000 	addk	r6, r23, r0
9000fbe8:	22400013 	addi	r18, r0, 19
9000fbec:	16479003 	cmpu	r18, r7, r18
9000fbf0:	beb2004c 	bgeid	r18, 76		// 9000fc3c
9000fbf4:	10b60000 	addk	r5, r22, r0
9000fbf8:	e8970000 	lwi	r4, r23, 0
9000fbfc:	30bd0010 	addik	r5, r29, 16
9000fc00:	30d70008 	addik	r6, r23, 8
9000fc04:	f89d0008 	swi	r4, r29, 8
9000fc08:	e8770004 	lwi	r3, r23, 4
9000fc0c:	2240001b 	addi	r18, r0, 27
9000fc10:	16479003 	cmpu	r18, r7, r18
9000fc14:	beb20028 	bgeid	r18, 40		// 9000fc3c
9000fc18:	f87d000c 	swi	r3, r29, 12
9000fc1c:	e8970008 	lwi	r4, r23, 8
9000fc20:	30bd0018 	addik	r5, r29, 24
9000fc24:	30d70010 	addik	r6, r23, 16
9000fc28:	f89d0010 	swi	r4, r29, 16
9000fc2c:	e877000c 	lwi	r3, r23, 12
9000fc30:	aa470024 	xori	r18, r7, 36
9000fc34:	be12010c 	beqid	r18, 268		// 9000fd40
9000fc38:	f87d0014 	swi	r3, r29, 20
9000fc3c:	e8660000 	lwi	r3, r6, 0
9000fc40:	f8650000 	swi	r3, r5, 0
9000fc44:	e8860004 	lwi	r4, r6, 4
9000fc48:	f8850004 	swi	r4, r5, 4
9000fc4c:	e8660008 	lwi	r3, r6, 8
9000fc50:	f8650008 	swi	r3, r5, 8
9000fc54:	147bc800 	rsubk	r3, r27, r25
9000fc58:	10ddd800 	addk	r6, r29, r27
9000fc5c:	a0630001 	ori	r3, r3, 1
9000fc60:	f8660004 	swi	r3, r6, 4
9000fc64:	e89d0004 	lwi	r4, r29, 4
9000fc68:	10bc0000 	addk	r5, r28, r0
9000fc6c:	f8de0008 	swi	r6, r30, 8
9000fc70:	a4840001 	andi	r4, r4, 1
9000fc74:	809b2000 	or	r4, r27, r4
9000fc78:	b000ffff 	imm	-1
9000fc7c:	b9f47ebc 	brlid	r15, 32444	// 90007b38 <__malloc_unlock>
9000fc80:	f89d0004 	swi	r4, r29, 4
9000fc84:	b810fb64 	brid	-1180		// 9000f7e8
9000fc88:	10760000 	addk	r3, r22, r0
9000fc8c:	e8640004 	lwi	r3, r4, 4
9000fc90:	11130000 	addk	r8, r19, r0
9000fc94:	32730008 	addik	r19, r19, 8
9000fc98:	a463fffc 	andi	r3, r3, -4
9000fc9c:	b810fae0 	brid	-1312		// 9000f77c
9000fca0:	13381800 	addk	r25, r24, r3
9000fca4:	10d70000 	addk	r6, r23, r0
9000fca8:	10aa0000 	addk	r5, r10, r0
9000fcac:	b9f4dd2c 	brlid	r15, -8916	// 9000d9d8 <memmove>
9000fcb0:	126a0000 	addk	r19, r10, r0
9000fcb4:	b810fac8 	brid	-1336		// 9000f77c
9000fcb8:	111d0000 	addk	r8, r29, r0
9000fcbc:	10d70000 	addk	r6, r23, r0
9000fcc0:	10ab0000 	addk	r5, r11, r0
9000fcc4:	13290000 	addk	r25, r9, r0
9000fcc8:	b9f4dd10 	brlid	r15, -8944	// 9000d9d8 <memmove>
9000fccc:	126b0000 	addk	r19, r11, r0
9000fcd0:	b810faac 	brid	-1364		// 9000f77c
9000fcd4:	111d0000 	addk	r8, r29, r0
9000fcd8:	e8970010 	lwi	r4, r23, 16
9000fcdc:	30d60018 	addik	r6, r22, 24
9000fce0:	30b70018 	addik	r5, r23, 24
9000fce4:	f8960010 	swi	r4, r22, 16
9000fce8:	e8770014 	lwi	r3, r23, 20
9000fcec:	b810fd74 	brid	-652		// 9000fa60
9000fcf0:	f8760014 	swi	r3, r22, 20
9000fcf4:	10d70000 	addk	r6, r23, r0
9000fcf8:	b9f4dce0 	brlid	r15, -8992	// 9000d9d8 <memmove>
9000fcfc:	10b60000 	addk	r5, r22, r0
9000fd00:	b810ff58 	brid	-168		// 9000fc58
9000fd04:	147bc800 	rsubk	r3, r27, r25
9000fd08:	e8970010 	lwi	r4, r23, 16
9000fd0c:	30b70018 	addik	r5, r23, 24
9000fd10:	313d0020 	addik	r9, r29, 32
9000fd14:	f89d0018 	swi	r4, r29, 24
9000fd18:	e8770014 	lwi	r3, r23, 20
9000fd1c:	b810fc08 	brid	-1016		// 9000f924
9000fd20:	f87d001c 	swi	r3, r29, 28
9000fd24:	e8970010 	lwi	r4, r23, 16
9000fd28:	30b70018 	addik	r5, r23, 24
9000fd2c:	315d0020 	addik	r10, r29, 32
9000fd30:	f89d0018 	swi	r4, r29, 24
9000fd34:	e8770014 	lwi	r3, r23, 20
9000fd38:	b810fdf0 	brid	-528		// 9000fb28
9000fd3c:	f87d001c 	swi	r3, r29, 28
9000fd40:	e8970010 	lwi	r4, r23, 16
9000fd44:	30d70018 	addik	r6, r23, 24
9000fd48:	30bd0020 	addik	r5, r29, 32
9000fd4c:	f89d0018 	swi	r4, r29, 24
9000fd50:	e8770014 	lwi	r3, r23, 20
9000fd54:	b810fee8 	brid	-280		// 9000fc3c
9000fd58:	f87d001c 	swi	r3, r29, 28

9000fd5c <_wrapup_reent>:
9000fd5c:	3021ffd8 	addik	r1, r1, -40
9000fd60:	fae10024 	swi	r23, r1, 36
9000fd64:	f9e10000 	swi	r15, r1, 0
9000fd68:	fa61001c 	swi	r19, r1, 28
9000fd6c:	fac10020 	swi	r22, r1, 32
9000fd70:	be050068 	beqid	r5, 104		// 9000fdd8
9000fd74:	12e50000 	addk	r23, r5, r0
9000fd78:	30970048 	addik	r4, r23, 72
9000fd7c:	e8640004 	lwi	r3, r4, 4
9000fd80:	32c3ffff 	addik	r22, r3, -1
9000fd84:	be560028 	bltid	r22, 40		// 9000fdac
9000fd88:	64760402 	bslli	r3, r22, 2
9000fd8c:	10632000 	addk	r3, r3, r4
9000fd90:	32630008 	addik	r19, r3, 8
9000fd94:	e8730000 	lwi	r3, r19, 0
9000fd98:	32d6ffff 	addik	r22, r22, -1
9000fd9c:	99fc1800 	brald	r15, r3
9000fda0:	3273fffc 	addik	r19, r19, -4
9000fda4:	aa56ffff 	xori	r18, r22, -1
9000fda8:	bc32ffec 	bnei	r18, -20		// 9000fd94
9000fdac:	e8770028 	lwi	r3, r23, 40
9000fdb0:	be030014 	beqid	r3, 20		// 9000fdc4
9000fdb4:	e9e10000 	lwi	r15, r1, 0
9000fdb8:	99fc1800 	brald	r15, r3
9000fdbc:	10b70000 	addk	r5, r23, r0
9000fdc0:	e9e10000 	lwi	r15, r1, 0
9000fdc4:	ea61001c 	lwi	r19, r1, 28
9000fdc8:	eac10020 	lwi	r22, r1, 32
9000fdcc:	eae10024 	lwi	r23, r1, 36
9000fdd0:	b60f0008 	rtsd	r15, 8
9000fdd4:	30210028 	addik	r1, r1, 40
9000fdd8:	b0009001 	imm	-28671
9000fddc:	eae037a4 	lwi	r23, r0, 14244
9000fde0:	b810ff9c 	brid	-100		// 9000fd7c
9000fde4:	30970048 	addik	r4, r23, 72

9000fde8 <cleanup_glue>:
9000fde8:	3021ffbc 	addik	r1, r1, -68
9000fdec:	fac10020 	swi	r22, r1, 32
9000fdf0:	fbc10040 	swi	r30, r1, 64
9000fdf4:	f9e10000 	swi	r15, r1, 0
9000fdf8:	fa61001c 	swi	r19, r1, 28
9000fdfc:	fae10024 	swi	r23, r1, 36
9000fe00:	fb010028 	swi	r24, r1, 40
9000fe04:	fb21002c 	swi	r25, r1, 44
9000fe08:	fb410030 	swi	r26, r1, 48
9000fe0c:	fb610034 	swi	r27, r1, 52
9000fe10:	fb810038 	swi	r28, r1, 56
9000fe14:	fba1003c 	swi	r29, r1, 60
9000fe18:	eb060000 	lwi	r24, r6, 0
9000fe1c:	13c60000 	addk	r30, r6, r0
9000fe20:	be1800b4 	beqid	r24, 180		// 9000fed4
9000fe24:	12c50000 	addk	r22, r5, r0
9000fe28:	eb380000 	lwi	r25, r24, 0
9000fe2c:	bc19009c 	beqi	r25, 156		// 9000fec8
9000fe30:	eb590000 	lwi	r26, r25, 0
9000fe34:	bc1a0088 	beqi	r26, 136		// 9000febc
9000fe38:	eb9a0000 	lwi	r28, r26, 0
9000fe3c:	bc1c0074 	beqi	r28, 116		// 9000feb0
9000fe40:	ebbc0000 	lwi	r29, r28, 0
9000fe44:	bc1d0060 	beqi	r29, 96		// 9000fea4
9000fe48:	eb7d0000 	lwi	r27, r29, 0
9000fe4c:	bc1b004c 	beqi	r27, 76		// 9000fe98
9000fe50:	eafb0000 	lwi	r23, r27, 0
9000fe54:	bc170038 	beqi	r23, 56		// 9000fe8c
9000fe58:	ea770000 	lwi	r19, r23, 0
9000fe5c:	be130028 	beqid	r19, 40		// 9000fe84
9000fe60:	10d70000 	addk	r6, r23, r0
9000fe64:	e8d30000 	lwi	r6, r19, 0
9000fe68:	bc06000c 	beqi	r6, 12		// 9000fe74
9000fe6c:	b9f4ff7c 	brlid	r15, -132	// 9000fde8 <cleanup_glue>
9000fe70:	80000000 	or	r0, r0, r0
9000fe74:	10d30000 	addk	r6, r19, r0
9000fe78:	b9f4ce9c 	brlid	r15, -12644	// 9000cd14 <_free_r>
9000fe7c:	10b60000 	addk	r5, r22, r0
9000fe80:	10d70000 	addk	r6, r23, r0
9000fe84:	b9f4ce90 	brlid	r15, -12656	// 9000cd14 <_free_r>
9000fe88:	10b60000 	addk	r5, r22, r0
9000fe8c:	10db0000 	addk	r6, r27, r0
9000fe90:	b9f4ce84 	brlid	r15, -12668	// 9000cd14 <_free_r>
9000fe94:	10b60000 	addk	r5, r22, r0
9000fe98:	10dd0000 	addk	r6, r29, r0
9000fe9c:	b9f4ce78 	brlid	r15, -12680	// 9000cd14 <_free_r>
9000fea0:	10b60000 	addk	r5, r22, r0
9000fea4:	10dc0000 	addk	r6, r28, r0
9000fea8:	b9f4ce6c 	brlid	r15, -12692	// 9000cd14 <_free_r>
9000feac:	10b60000 	addk	r5, r22, r0
9000feb0:	10da0000 	addk	r6, r26, r0
9000feb4:	b9f4ce60 	brlid	r15, -12704	// 9000cd14 <_free_r>
9000feb8:	10b60000 	addk	r5, r22, r0
9000febc:	10d90000 	addk	r6, r25, r0
9000fec0:	b9f4ce54 	brlid	r15, -12716	// 9000cd14 <_free_r>
9000fec4:	10b60000 	addk	r5, r22, r0
9000fec8:	10d80000 	addk	r6, r24, r0
9000fecc:	b9f4ce48 	brlid	r15, -12728	// 9000cd14 <_free_r>
9000fed0:	10b60000 	addk	r5, r22, r0
9000fed4:	10b60000 	addk	r5, r22, r0
9000fed8:	b9f4ce3c 	brlid	r15, -12740	// 9000cd14 <_free_r>
9000fedc:	10de0000 	addk	r6, r30, r0
9000fee0:	e9e10000 	lwi	r15, r1, 0
9000fee4:	ea61001c 	lwi	r19, r1, 28
9000fee8:	eac10020 	lwi	r22, r1, 32
9000feec:	eae10024 	lwi	r23, r1, 36
9000fef0:	eb010028 	lwi	r24, r1, 40
9000fef4:	eb21002c 	lwi	r25, r1, 44
9000fef8:	eb410030 	lwi	r26, r1, 48
9000fefc:	eb610034 	lwi	r27, r1, 52
9000ff00:	eb810038 	lwi	r28, r1, 56
9000ff04:	eba1003c 	lwi	r29, r1, 60
9000ff08:	ebc10040 	lwi	r30, r1, 64
9000ff0c:	b60f0008 	rtsd	r15, 8
9000ff10:	30210044 	addik	r1, r1, 68

9000ff14 <_reclaim_reent>:
9000ff14:	b0009001 	imm	-28671
9000ff18:	e86037a4 	lwi	r3, r0, 14244
9000ff1c:	3021ffd8 	addik	r1, r1, -40
9000ff20:	fa61001c 	swi	r19, r1, 28
9000ff24:	f9e10000 	swi	r15, r1, 0
9000ff28:	fac10020 	swi	r22, r1, 32
9000ff2c:	fae10024 	swi	r23, r1, 36
9000ff30:	16451800 	rsubk	r18, r5, r3
9000ff34:	be1200d8 	beqid	r18, 216		// 9001000c
9000ff38:	12650000 	addk	r19, r5, r0
9000ff3c:	e8850024 	lwi	r4, r5, 36
9000ff40:	bc040050 	beqi	r4, 80		// 9000ff90
9000ff44:	e864000c 	lwi	r3, r4, 12
9000ff48:	bc030048 	beqi	r3, 72		// 9000ff90
9000ff4c:	12e00000 	addk	r23, r0, r0
9000ff50:	e864000c 	lwi	r3, r4, 12
9000ff54:	c863b800 	lw	r3, r3, r23
9000ff58:	bc030020 	beqi	r3, 32		// 9000ff78
9000ff5c:	10c30000 	addk	r6, r3, r0
9000ff60:	10b30000 	addk	r5, r19, r0
9000ff64:	b9f4cdb0 	brlid	r15, -12880	// 9000cd14 <_free_r>
9000ff68:	eac30000 	lwi	r22, r3, 0
9000ff6c:	be36fff0 	bneid	r22, -16		// 9000ff5c
9000ff70:	10760000 	addk	r3, r22, r0
9000ff74:	e8930024 	lwi	r4, r19, 36
9000ff78:	32f70004 	addik	r23, r23, 4
9000ff7c:	aa57003c 	xori	r18, r23, 60
9000ff80:	bc32ffd0 	bnei	r18, -48		// 9000ff50
9000ff84:	e8c4000c 	lwi	r6, r4, 12
9000ff88:	b9f4cd8c 	brlid	r15, -12916	// 9000cd14 <_free_r>
9000ff8c:	10b30000 	addk	r5, r19, r0
9000ff90:	e8d30014 	lwi	r6, r19, 20
9000ff94:	bc06000c 	beqi	r6, 12		// 9000ffa0
9000ff98:	b9f4cd7c 	brlid	r15, -12932	// 9000cd14 <_free_r>
9000ff9c:	10b30000 	addk	r5, r19, r0
9000ffa0:	e8d30024 	lwi	r6, r19, 36
9000ffa4:	bc06000c 	beqi	r6, 12		// 9000ffb0
9000ffa8:	b9f4cd6c 	brlid	r15, -12948	// 9000cd14 <_free_r>
9000ffac:	10b30000 	addk	r5, r19, r0
9000ffb0:	e8d30038 	lwi	r6, r19, 56
9000ffb4:	bc06000c 	beqi	r6, 12		// 9000ffc0
9000ffb8:	b9f4cd5c 	brlid	r15, -12964	// 9000cd14 <_free_r>
9000ffbc:	10b30000 	addk	r5, r19, r0
9000ffc0:	e8d3003c 	lwi	r6, r19, 60
9000ffc4:	bc06000c 	beqi	r6, 12		// 9000ffd0
9000ffc8:	b9f4cd4c 	brlid	r15, -12980	// 9000cd14 <_free_r>
9000ffcc:	10b30000 	addk	r5, r19, r0
9000ffd0:	e8d30040 	lwi	r6, r19, 64
9000ffd4:	bc06000c 	beqi	r6, 12		// 9000ffe0
9000ffd8:	b9f4cd3c 	brlid	r15, -12996	// 9000cd14 <_free_r>
9000ffdc:	10b30000 	addk	r5, r19, r0
9000ffe0:	e8730048 	lwi	r3, r19, 72
9000ffe4:	e8c30088 	lwi	r6, r3, 136
9000ffe8:	bc06000c 	beqi	r6, 12		// 9000fff4
9000ffec:	b9f4cd28 	brlid	r15, -13016	// 9000cd14 <_free_r>
9000fff0:	10b30000 	addk	r5, r19, r0
9000fff4:	e8d30034 	lwi	r6, r19, 52
9000fff8:	bc06000c 	beqi	r6, 12		// 90010004
9000fffc:	b9f4cd18 	brlid	r15, -13032	// 9000cd14 <_free_r>
90010000:	10b30000 	addk	r5, r19, r0
90010004:	e8730018 	lwi	r3, r19, 24
90010008:	bc23001c 	bnei	r3, 28		// 90010024
9001000c:	e9e10000 	lwi	r15, r1, 0
90010010:	ea61001c 	lwi	r19, r1, 28
90010014:	eac10020 	lwi	r22, r1, 32
90010018:	eae10024 	lwi	r23, r1, 36
9001001c:	b60f0008 	rtsd	r15, 8
90010020:	30210028 	addik	r1, r1, 40
90010024:	e8730028 	lwi	r3, r19, 40
90010028:	99fc1800 	brald	r15, r3
9001002c:	10b30000 	addk	r5, r19, r0
90010030:	ead300d8 	lwi	r22, r19, 216
90010034:	be16ffdc 	beqid	r22, -36		// 90010010
90010038:	e9e10000 	lwi	r15, r1, 0
9001003c:	e8d60000 	lwi	r6, r22, 0
90010040:	bc06000c 	beqi	r6, 12		// 9001004c
90010044:	b9f4fda4 	brlid	r15, -604	// 9000fde8 <cleanup_glue>
90010048:	10b30000 	addk	r5, r19, r0
9001004c:	10b30000 	addk	r5, r19, r0
90010050:	b9f4ccc4 	brlid	r15, -13116	// 9000cd14 <_free_r>
90010054:	10d60000 	addk	r6, r22, r0
90010058:	b810ffb8 	brid	-72		// 90010010
9001005c:	e9e10000 	lwi	r15, r1, 0

90010060 <__sclose>:
90010060:	3021ffe4 	addik	r1, r1, -28
90010064:	f9e10000 	swi	r15, r1, 0
90010068:	e4c5000e 	lhui	r6, r5, 14
9001006c:	b0009001 	imm	-28671
90010070:	e8a037a4 	lwi	r5, r0, 14244
90010074:	b9f4039c 	brlid	r15, 924	// 90010410 <_close_r>
90010078:	90c60061 	sext16	r6, r6
9001007c:	e9e10000 	lwi	r15, r1, 0
90010080:	b60f0008 	rtsd	r15, 8
90010084:	3021001c 	addik	r1, r1, 28

90010088 <__sseek>:
90010088:	3021ffe0 	addik	r1, r1, -32
9001008c:	fa61001c 	swi	r19, r1, 28
90010090:	f9e10000 	swi	r15, r1, 0
90010094:	e465000e 	lhui	r3, r5, 14
90010098:	11070000 	addk	r8, r7, r0
9001009c:	12650000 	addk	r19, r5, r0
900100a0:	10e60000 	addk	r7, r6, r0
900100a4:	b0009001 	imm	-28671
900100a8:	e8a037a4 	lwi	r5, r0, 14244
900100ac:	b9f405d4 	brlid	r15, 1492	// 90010680 <_lseek_r>
900100b0:	90c30061 	sext16	r6, r3
900100b4:	aa43ffff 	xori	r18, r3, -1
900100b8:	be12002c 	beqid	r18, 44		// 900100e4
900100bc:	10830000 	addk	r4, r3, r0
900100c0:	e473000c 	lhui	r3, r19, 12
900100c4:	f8930054 	swi	r4, r19, 84
900100c8:	a0631000 	ori	r3, r3, 4096
900100cc:	f473000c 	shi	r3, r19, 12
900100d0:	10640000 	addk	r3, r4, r0
900100d4:	e9e10000 	lwi	r15, r1, 0
900100d8:	ea61001c 	lwi	r19, r1, 28
900100dc:	b60f0008 	rtsd	r15, 8
900100e0:	30210020 	addik	r1, r1, 32
900100e4:	e473000c 	lhui	r3, r19, 12
900100e8:	a463efff 	andi	r3, r3, -4097
900100ec:	b810ffe4 	brid	-28		// 900100d0
900100f0:	f473000c 	shi	r3, r19, 12

900100f4 <__swrite>:
900100f4:	3021ffd8 	addik	r1, r1, -40
900100f8:	fa61001c 	swi	r19, r1, 28
900100fc:	fac10020 	swi	r22, r1, 32
90010100:	fae10024 	swi	r23, r1, 36
90010104:	f9e10000 	swi	r15, r1, 0
90010108:	e465000c 	lhui	r3, r5, 12
9001010c:	12c70000 	addk	r22, r7, r0
90010110:	12650000 	addk	r19, r5, r0
90010114:	a4630100 	andi	r3, r3, 256
90010118:	31000002 	addik	r8, r0, 2
9001011c:	12e60000 	addk	r23, r6, r0
90010120:	be03001c 	beqid	r3, 28		// 9001013c
90010124:	10e00000 	addk	r7, r0, r0
90010128:	e4c5000e 	lhui	r6, r5, 14
9001012c:	b0009001 	imm	-28671
90010130:	e8a037a4 	lwi	r5, r0, 14244
90010134:	b9f4054c 	brlid	r15, 1356	// 90010680 <_lseek_r>
90010138:	90c60061 	sext16	r6, r6
9001013c:	e473000c 	lhui	r3, r19, 12
90010140:	e4d3000e 	lhui	r6, r19, 14
90010144:	10f70000 	addk	r7, r23, r0
90010148:	11160000 	addk	r8, r22, r0
9001014c:	b0009001 	imm	-28671
90010150:	e8a037a4 	lwi	r5, r0, 14244
90010154:	a463efff 	andi	r3, r3, -4097
90010158:	f473000c 	shi	r3, r19, 12
9001015c:	b9f40190 	brlid	r15, 400	// 900102ec <_write_r>
90010160:	90c60061 	sext16	r6, r6
90010164:	e9e10000 	lwi	r15, r1, 0
90010168:	ea61001c 	lwi	r19, r1, 28
9001016c:	eac10020 	lwi	r22, r1, 32
90010170:	eae10024 	lwi	r23, r1, 36
90010174:	b60f0008 	rtsd	r15, 8
90010178:	30210028 	addik	r1, r1, 40

9001017c <__sread>:
9001017c:	3021ffe0 	addik	r1, r1, -32
90010180:	fa61001c 	swi	r19, r1, 28
90010184:	f9e10000 	swi	r15, r1, 0
90010188:	e465000e 	lhui	r3, r5, 14
9001018c:	11070000 	addk	r8, r7, r0
90010190:	12650000 	addk	r19, r5, r0
90010194:	10e60000 	addk	r7, r6, r0
90010198:	b0009001 	imm	-28671
9001019c:	e8a037a4 	lwi	r5, r0, 14244
900101a0:	b9f40540 	brlid	r15, 1344	// 900106e0 <_read_r>
900101a4:	90c30061 	sext16	r6, r3
900101a8:	be430028 	bltid	r3, 40		// 900101d0
900101ac:	10830000 	addk	r4, r3, r0
900101b0:	e8730054 	lwi	r3, r19, 84
900101b4:	10632000 	addk	r3, r3, r4
900101b8:	f8730054 	swi	r3, r19, 84
900101bc:	10640000 	addk	r3, r4, r0
900101c0:	e9e10000 	lwi	r15, r1, 0
900101c4:	ea61001c 	lwi	r19, r1, 28
900101c8:	b60f0008 	rtsd	r15, 8
900101cc:	30210020 	addik	r1, r1, 32
900101d0:	e473000c 	lhui	r3, r19, 12
900101d4:	a463efff 	andi	r3, r3, -4097
900101d8:	b810ffe4 	brid	-28		// 900101bc
900101dc:	f473000c 	shi	r3, r19, 12

900101e0 <strcmp>:
900101e0:	81200000 	or	r9, r0, r0

900101e4 <check_alignment>:
900101e4:	a4650003 	andi	r3, r5, 3
900101e8:	a4860003 	andi	r4, r6, 3
900101ec:	bc230048 	bnei	r3, 72		// 90010234
900101f0:	bc240074 	bnei	r4, 116		// 90010264

900101f4 <cmp_loop>:
900101f4:	c8654800 	lw	r3, r5, r9
900101f8:	c8864800 	lw	r4, r6, r9
900101fc:	80e30400 	pcmpbf	r7, r3, r0
90010200:	bc270014 	bnei	r7, 20		// 90010214
90010204:	14e41803 	cmpu	r7, r4, r3
90010208:	bc270078 	bnei	r7, 120		// 90010280
9001020c:	b810ffe8 	brid	-24		// 900101f4
90010210:	31290004 	addik	r9, r9, 4

90010214 <end_cmp_loop>:
90010214:	c0654800 	lbu	r3, r5, r9
90010218:	c0864800 	lbu	r4, r6, r9
9001021c:	14e41803 	cmpu	r7, r4, r3
90010220:	bc27000c 	bnei	r7, 12		// 9001022c
90010224:	be23fff0 	bneid	r3, -16		// 90010214
90010228:	31290001 	addik	r9, r9, 1

9001022c <end_cmp_early>:
9001022c:	b60f0008 	rtsd	r15, 8
90010230:	80603800 	or	r3, r0, r7

90010234 <try_align_args>:
90010234:	88e41800 	xor	r7, r4, r3
90010238:	bc27002c 	bnei	r7, 44		// 90010264
9001023c:	35430004 	rsubik	r10, r3, 4

90010240 <align_loop>:
90010240:	c0654800 	lbu	r3, r5, r9
90010244:	c0864800 	lbu	r4, r6, r9
90010248:	14e41803 	cmpu	r7, r4, r3
9001024c:	bc270034 	bnei	r7, 52		// 90010280
90010250:	bc030030 	beqi	r3, 48		// 90010280
90010254:	314affff 	addik	r10, r10, -1
90010258:	be0aff9c 	beqid	r10, -100		// 900101f4
9001025c:	31290001 	addik	r9, r9, 1
90010260:	b800ffe0 	bri	-32		// 90010240

90010264 <regular_strcmp>:
90010264:	c0654800 	lbu	r3, r5, r9
90010268:	c0864800 	lbu	r4, r6, r9
9001026c:	14e41803 	cmpu	r7, r4, r3
90010270:	bc270010 	bnei	r7, 16		// 90010280
90010274:	bc03000c 	beqi	r3, 12		// 90010280
90010278:	b810ffec 	brid	-20		// 90010264
9001027c:	31290001 	addik	r9, r9, 1

90010280 <end_cmp>:
90010280:	b60f0008 	rtsd	r15, 8
90010284:	80603800 	or	r3, r0, r7
90010288:	b60f0008 	rtsd	r15, 8
9001028c:	80000000 	or	r0, r0, r0

90010290 <strlen>:
90010290:	81200000 	or	r9, r0, r0

90010294 <check_alignment>:
90010294:	a4650003 	andi	r3, r5, 3
90010298:	bc230030 	bnei	r3, 48		// 900102c8

9001029c <len_loop>:
9001029c:	c8654800 	lw	r3, r5, r9
900102a0:	80830400 	pcmpbf	r4, r3, r0
900102a4:	bc24000c 	bnei	r4, 12		// 900102b0
900102a8:	b810fff4 	brid	-12		// 9001029c
900102ac:	31290004 	addik	r9, r9, 4

900102b0 <end_len>:
900102b0:	c0654800 	lbu	r3, r5, r9
900102b4:	bc03000c 	beqi	r3, 12		// 900102c0
900102b8:	b810fff8 	brid	-8		// 900102b0
900102bc:	31290001 	addik	r9, r9, 1

900102c0 <done_len>:
900102c0:	b60f0008 	rtsd	r15, 8
900102c4:	80604800 	or	r3, r0, r9

900102c8 <align_arg>:
900102c8:	35430004 	rsubik	r10, r3, 4

900102cc <align_loop>:
900102cc:	c0654800 	lbu	r3, r5, r9
900102d0:	be03fff0 	beqid	r3, -16		// 900102c0
900102d4:	314affff 	addik	r10, r10, -1
900102d8:	be2afff4 	bneid	r10, -12		// 900102cc
900102dc:	31290001 	addik	r9, r9, 1
900102e0:	b800ffbc 	bri	-68		// 9001029c
900102e4:	b60f0008 	rtsd	r15, 8
900102e8:	80000000 	or	r0, r0, r0

900102ec <_write_r>:
900102ec:	3021ffe0 	addik	r1, r1, -32
900102f0:	fa61001c 	swi	r19, r1, 28
900102f4:	12650000 	addk	r19, r5, r0
900102f8:	10a60000 	addk	r5, r6, r0
900102fc:	10c70000 	addk	r6, r7, r0
90010300:	f9e10000 	swi	r15, r1, 0
90010304:	b0009001 	imm	-28671
90010308:	f8005070 	swi	r0, r0, 20592
9001030c:	b9f40550 	brlid	r15, 1360	// 9001085c <write>
90010310:	10e80000 	addk	r7, r8, r0
90010314:	aa43ffff 	xori	r18, r3, -1
90010318:	be120014 	beqid	r18, 20		// 9001032c
9001031c:	e9e10000 	lwi	r15, r1, 0
90010320:	ea61001c 	lwi	r19, r1, 28
90010324:	b60f0008 	rtsd	r15, 8
90010328:	30210020 	addik	r1, r1, 32
9001032c:	b0009001 	imm	-28671
90010330:	e8805070 	lwi	r4, r0, 20592
90010334:	bc04ffec 	beqi	r4, -20		// 90010320
90010338:	f893000c 	swi	r4, r19, 12
9001033c:	e9e10000 	lwi	r15, r1, 0
90010340:	ea61001c 	lwi	r19, r1, 28
90010344:	b60f0008 	rtsd	r15, 8
90010348:	30210020 	addik	r1, r1, 32

9001034c <_calloc_r>:
9001034c:	3021ffe0 	addik	r1, r1, -32
90010350:	fa61001c 	swi	r19, r1, 28
90010354:	f9e10000 	swi	r15, r1, 0
90010358:	b000ffff 	imm	-1
9001035c:	b9f46e88 	brlid	r15, 28296	// 900071e4 <_malloc_r>
90010360:	40c63800 	mul	r6, r6, r7
90010364:	be030048 	beqid	r3, 72		// 900103ac
90010368:	12630000 	addk	r19, r3, r0
9001036c:	e863fffc 	lwi	r3, r3, -4
90010370:	10b30000 	addk	r5, r19, r0
90010374:	10c00000 	addk	r6, r0, r0
90010378:	a463fffc 	andi	r3, r3, -4
9001037c:	3063fffc 	addik	r3, r3, -4
90010380:	22400024 	addi	r18, r0, 36
90010384:	16439003 	cmpu	r18, r3, r18
90010388:	be520074 	bltid	r18, 116		// 900103fc
9001038c:	10e30000 	addk	r7, r3, r0
90010390:	22400013 	addi	r18, r0, 19
90010394:	16439003 	cmpu	r18, r3, r18
90010398:	be520028 	bltid	r18, 40		// 900103c0
9001039c:	10930000 	addk	r4, r19, r0
900103a0:	f8040008 	swi	r0, r4, 8
900103a4:	f8040000 	swi	r0, r4, 0
900103a8:	f8040004 	swi	r0, r4, 4
900103ac:	10730000 	addk	r3, r19, r0
900103b0:	e9e10000 	lwi	r15, r1, 0
900103b4:	ea61001c 	lwi	r19, r1, 28
900103b8:	b60f0008 	rtsd	r15, 8
900103bc:	30210020 	addik	r1, r1, 32
900103c0:	f8d30000 	swi	r6, r19, 0
900103c4:	f8d30004 	swi	r6, r19, 4
900103c8:	2240001b 	addi	r18, r0, 27
900103cc:	16439003 	cmpu	r18, r3, r18
900103d0:	beb2ffd0 	bgeid	r18, -48		// 900103a0
900103d4:	30930008 	addik	r4, r19, 8
900103d8:	f8d30008 	swi	r6, r19, 8
900103dc:	f8d3000c 	swi	r6, r19, 12
900103e0:	aa430024 	xori	r18, r3, 36
900103e4:	be32ffbc 	bneid	r18, -68		// 900103a0
900103e8:	30930010 	addik	r4, r19, 16
900103ec:	30930018 	addik	r4, r19, 24
900103f0:	f8d30010 	swi	r6, r19, 16
900103f4:	b810ffac 	brid	-84		// 900103a0
900103f8:	f8d30014 	swi	r6, r19, 20
900103fc:	b000ffff 	imm	-1
90010400:	b9f47680 	brlid	r15, 30336	// 90007a80 <memset>
90010404:	80000000 	or	r0, r0, r0
90010408:	b810ffa8 	brid	-88		// 900103b0
9001040c:	10730000 	addk	r3, r19, r0

90010410 <_close_r>:
90010410:	3021ffe0 	addik	r1, r1, -32
90010414:	fa61001c 	swi	r19, r1, 28
90010418:	12650000 	addk	r19, r5, r0
9001041c:	f9e10000 	swi	r15, r1, 0
90010420:	b0009001 	imm	-28671
90010424:	f8005070 	swi	r0, r0, 20592
90010428:	b9f40528 	brlid	r15, 1320	// 90010950 <close>
9001042c:	10a60000 	addk	r5, r6, r0
90010430:	aa43ffff 	xori	r18, r3, -1
90010434:	be120014 	beqid	r18, 20		// 90010448
90010438:	e9e10000 	lwi	r15, r1, 0
9001043c:	ea61001c 	lwi	r19, r1, 28
90010440:	b60f0008 	rtsd	r15, 8
90010444:	30210020 	addik	r1, r1, 32
90010448:	b0009001 	imm	-28671
9001044c:	e8805070 	lwi	r4, r0, 20592
90010450:	bc04ffec 	beqi	r4, -20		// 9001043c
90010454:	f893000c 	swi	r4, r19, 12
90010458:	e9e10000 	lwi	r15, r1, 0
9001045c:	ea61001c 	lwi	r19, r1, 28
90010460:	b60f0008 	rtsd	r15, 8
90010464:	30210020 	addik	r1, r1, 32

90010468 <_fclose_r>:
90010468:	3021ffd8 	addik	r1, r1, -40
9001046c:	fa61001c 	swi	r19, r1, 28
90010470:	fac10020 	swi	r22, r1, 32
90010474:	fae10024 	swi	r23, r1, 36
90010478:	f9e10000 	swi	r15, r1, 0
9001047c:	12660000 	addk	r19, r6, r0
90010480:	12e50000 	addk	r23, r5, r0
90010484:	be0600c4 	beqid	r6, 196		// 90010548
90010488:	12c60000 	addk	r22, r6, r0
9001048c:	b9f4c0c8 	brlid	r15, -16184	// 9000c554 <__sfp_lock_acquire>
90010490:	80000000 	or	r0, r0, r0
90010494:	bc17000c 	beqi	r23, 12		// 900104a0
90010498:	e8770018 	lwi	r3, r23, 24
9001049c:	bc0300d8 	beqi	r3, 216		// 90010574
900104a0:	b0009001 	imm	-28671
900104a4:	aa533414 	xori	r18, r19, 13332
900104a8:	bc1200e0 	beqi	r18, 224		// 90010588
900104ac:	b0009001 	imm	-28671
900104b0:	aa533434 	xori	r18, r19, 13364
900104b4:	bc120138 	beqi	r18, 312		// 900105ec
900104b8:	b0009001 	imm	-28671
900104bc:	aa533454 	xori	r18, r19, 13396
900104c0:	bc120114 	beqi	r18, 276		// 900105d4
900104c4:	e473000c 	lhui	r3, r19, 12
900104c8:	90630061 	sext16	r3, r3
900104cc:	bc030098 	beqi	r3, 152		// 90010564
900104d0:	a4630008 	andi	r3, r3, 8
900104d4:	be2300c4 	bneid	r3, 196		// 90010598
900104d8:	12c30000 	addk	r22, r3, r0
900104dc:	e8730030 	lwi	r3, r19, 48
900104e0:	bc030010 	beqi	r3, 16		// 900104f0
900104e4:	99fc1800 	brald	r15, r3
900104e8:	e8b30020 	lwi	r5, r19, 32
900104ec:	bc4300f8 	blti	r3, 248		// 900105e4
900104f0:	e473000c 	lhui	r3, r19, 12
900104f4:	a4630080 	andi	r3, r3, 128
900104f8:	bc2300bc 	bnei	r3, 188		// 900105b4
900104fc:	e8d30034 	lwi	r6, r19, 52
90010500:	be060024 	beqid	r6, 36		// 90010524
90010504:	30730044 	addik	r3, r19, 68
90010508:	16433000 	rsubk	r18, r3, r6
9001050c:	bc120014 	beqi	r18, 20		// 90010520
90010510:	b0009001 	imm	-28671
90010514:	e8a037a4 	lwi	r5, r0, 14244
90010518:	b9f4c7fc 	brlid	r15, -14340	// 9000cd14 <_free_r>
9001051c:	80000000 	or	r0, r0, r0
90010520:	f8130034 	swi	r0, r19, 52
90010524:	e8d30048 	lwi	r6, r19, 72
90010528:	bc060018 	beqi	r6, 24		// 90010540
9001052c:	b0009001 	imm	-28671
90010530:	e8a037a4 	lwi	r5, r0, 14244
90010534:	b9f4c7e0 	brlid	r15, -14368	// 9000cd14 <_free_r>
90010538:	80000000 	or	r0, r0, r0
9001053c:	f8130048 	swi	r0, r19, 72
90010540:	b9f4c01c 	brlid	r15, -16356	// 9000c55c <__sfp_lock_release>
90010544:	f413000c 	shi	r0, r19, 12
90010548:	10760000 	addk	r3, r22, r0
9001054c:	e9e10000 	lwi	r15, r1, 0
90010550:	ea61001c 	lwi	r19, r1, 28
90010554:	eac10020 	lwi	r22, r1, 32
90010558:	eae10024 	lwi	r23, r1, 36
9001055c:	b60f0008 	rtsd	r15, 8
90010560:	30210028 	addik	r1, r1, 40
90010564:	b9f4bff8 	brlid	r15, -16392	// 9000c55c <__sfp_lock_release>
90010568:	12c30000 	addk	r22, r3, r0
9001056c:	b810ffe0 	brid	-32		// 9001054c
90010570:	10760000 	addk	r3, r22, r0
90010574:	b9f4c118 	brlid	r15, -16104	// 9000c68c <__sinit>
90010578:	10b70000 	addk	r5, r23, r0
9001057c:	b0009001 	imm	-28671
90010580:	aa533414 	xori	r18, r19, 13332
90010584:	bc32ff28 	bnei	r18, -216		// 900104ac
90010588:	b0009001 	imm	-28671
9001058c:	e86037a4 	lwi	r3, r0, 14244
90010590:	b810ff34 	brid	-204		// 900104c4
90010594:	ea630000 	lwi	r19, r3, 0
90010598:	b9f4be68 	brlid	r15, -16792	// 9000c400 <fflush>
9001059c:	10b30000 	addk	r5, r19, r0
900105a0:	12c30000 	addk	r22, r3, r0
900105a4:	e8730030 	lwi	r3, r19, 48
900105a8:	bc23ff3c 	bnei	r3, -196		// 900104e4
900105ac:	b810ff48 	brid	-184		// 900104f4
900105b0:	e473000c 	lhui	r3, r19, 12
900105b4:	e8d30010 	lwi	r6, r19, 16
900105b8:	b9f4c75c 	brlid	r15, -14500	// 9000cd14 <_free_r>
900105bc:	10b70000 	addk	r5, r23, r0
900105c0:	e8d30034 	lwi	r6, r19, 52
900105c4:	be26ff44 	bneid	r6, -188		// 90010508
900105c8:	30730044 	addik	r3, r19, 68
900105cc:	b810ff5c 	brid	-164		// 90010528
900105d0:	e8d30048 	lwi	r6, r19, 72
900105d4:	b0009001 	imm	-28671
900105d8:	e86037a4 	lwi	r3, r0, 14244
900105dc:	b810fee8 	brid	-280		// 900104c4
900105e0:	ea630008 	lwi	r19, r3, 8
900105e4:	b810ff0c 	brid	-244		// 900104f0
900105e8:	32c0ffff 	addik	r22, r0, -1
900105ec:	b0009001 	imm	-28671
900105f0:	e86037a4 	lwi	r3, r0, 14244
900105f4:	b810fed0 	brid	-304		// 900104c4
900105f8:	ea630004 	lwi	r19, r3, 4

900105fc <fclose>:
900105fc:	10c50000 	addk	r6, r5, r0
90010600:	b0009001 	imm	-28671
90010604:	e8a037a4 	lwi	r5, r0, 14244
90010608:	3021ffe4 	addik	r1, r1, -28
9001060c:	f9e10000 	swi	r15, r1, 0
90010610:	b9f4fe58 	brlid	r15, -424	// 90010468 <_fclose_r>
90010614:	80000000 	or	r0, r0, r0
90010618:	e9e10000 	lwi	r15, r1, 0
9001061c:	b60f0008 	rtsd	r15, 8
90010620:	3021001c 	addik	r1, r1, 28

90010624 <_fstat_r>:
90010624:	3021ffe0 	addik	r1, r1, -32
90010628:	fa61001c 	swi	r19, r1, 28
9001062c:	12650000 	addk	r19, r5, r0
90010630:	10a60000 	addk	r5, r6, r0
90010634:	f9e10000 	swi	r15, r1, 0
90010638:	b0009001 	imm	-28671
9001063c:	f8005070 	swi	r0, r0, 20592
90010640:	b9f40164 	brlid	r15, 356	// 900107a4 <fstat>
90010644:	10c70000 	addk	r6, r7, r0
90010648:	aa43ffff 	xori	r18, r3, -1
9001064c:	be120014 	beqid	r18, 20		// 90010660
90010650:	e9e10000 	lwi	r15, r1, 0
90010654:	ea61001c 	lwi	r19, r1, 28
90010658:	b60f0008 	rtsd	r15, 8
9001065c:	30210020 	addik	r1, r1, 32
90010660:	b0009001 	imm	-28671
90010664:	e8805070 	lwi	r4, r0, 20592
90010668:	bc04ffec 	beqi	r4, -20		// 90010654
9001066c:	f893000c 	swi	r4, r19, 12
90010670:	e9e10000 	lwi	r15, r1, 0
90010674:	ea61001c 	lwi	r19, r1, 28
90010678:	b60f0008 	rtsd	r15, 8
9001067c:	30210020 	addik	r1, r1, 32

90010680 <_lseek_r>:
90010680:	3021ffe0 	addik	r1, r1, -32
90010684:	fa61001c 	swi	r19, r1, 28
90010688:	12650000 	addk	r19, r5, r0
9001068c:	10a60000 	addk	r5, r6, r0
90010690:	10c70000 	addk	r6, r7, r0
90010694:	f9e10000 	swi	r15, r1, 0
90010698:	b0009001 	imm	-28671
9001069c:	f8005070 	swi	r0, r0, 20592
900106a0:	b9f40120 	brlid	r15, 288	// 900107c0 <lseek>
900106a4:	10e80000 	addk	r7, r8, r0
900106a8:	aa43ffff 	xori	r18, r3, -1
900106ac:	be120014 	beqid	r18, 20		// 900106c0
900106b0:	e9e10000 	lwi	r15, r1, 0
900106b4:	ea61001c 	lwi	r19, r1, 28
900106b8:	b60f0008 	rtsd	r15, 8
900106bc:	30210020 	addik	r1, r1, 32
900106c0:	b0009001 	imm	-28671
900106c4:	e8805070 	lwi	r4, r0, 20592
900106c8:	bc04ffec 	beqi	r4, -20		// 900106b4
900106cc:	f893000c 	swi	r4, r19, 12
900106d0:	e9e10000 	lwi	r15, r1, 0
900106d4:	ea61001c 	lwi	r19, r1, 28
900106d8:	b60f0008 	rtsd	r15, 8
900106dc:	30210020 	addik	r1, r1, 32

900106e0 <_read_r>:
900106e0:	3021ffe0 	addik	r1, r1, -32
900106e4:	fa61001c 	swi	r19, r1, 28
900106e8:	12650000 	addk	r19, r5, r0
900106ec:	10a60000 	addk	r5, r6, r0
900106f0:	10c70000 	addk	r6, r7, r0
900106f4:	f9e10000 	swi	r15, r1, 0
900106f8:	b0009001 	imm	-28671
900106fc:	f8005070 	swi	r0, r0, 20592
90010700:	b9f401e0 	brlid	r15, 480	// 900108e0 <read>
90010704:	10e80000 	addk	r7, r8, r0
90010708:	aa43ffff 	xori	r18, r3, -1
9001070c:	be120014 	beqid	r18, 20		// 90010720
90010710:	e9e10000 	lwi	r15, r1, 0
90010714:	ea61001c 	lwi	r19, r1, 28
90010718:	b60f0008 	rtsd	r15, 8
9001071c:	30210020 	addik	r1, r1, 32
90010720:	b0009001 	imm	-28671
90010724:	e8805070 	lwi	r4, r0, 20592
90010728:	bc04ffec 	beqi	r4, -20		// 90010714
9001072c:	f893000c 	swi	r4, r19, 12
90010730:	e9e10000 	lwi	r15, r1, 0
90010734:	ea61001c 	lwi	r19, r1, 28
90010738:	b60f0008 	rtsd	r15, 8
9001073c:	30210020 	addik	r1, r1, 32

90010740 <isinf>:
90010740:	11050000 	addk	r8, r5, r0
90010744:	14660000 	rsubk	r3, r6, r0
90010748:	80633000 	or	r3, r3, r6
9001074c:	6463001f 	bsrli	r3, r3, 31
90010750:	b0007fff 	imm	32767
90010754:	a488ffff 	andi	r4, r8, -1
90010758:	80632000 	or	r3, r3, r4
9001075c:	b0007ff0 	imm	32752
90010760:	34630000 	rsubik	r3, r3, 0
90010764:	14830000 	rsubk	r4, r3, r0
90010768:	80632000 	or	r3, r3, r4
9001076c:	6463001f 	bsrli	r3, r3, 31
90010770:	b60f0008 	rtsd	r15, 8
90010774:	34630001 	rsubik	r3, r3, 1

90010778 <isnan>:
90010778:	11050000 	addk	r8, r5, r0
9001077c:	14660000 	rsubk	r3, r6, r0
90010780:	80633000 	or	r3, r3, r6
90010784:	6463001f 	bsrli	r3, r3, 31
90010788:	b0007fff 	imm	32767
9001078c:	a488ffff 	andi	r4, r8, -1
90010790:	80632000 	or	r3, r3, r4
90010794:	b0007ff0 	imm	32752
90010798:	34630000 	rsubik	r3, r3, 0
9001079c:	b60f0008 	rtsd	r15, 8
900107a0:	6463001f 	bsrli	r3, r3, 31

900107a4 <fstat>:
900107a4:	10600000 	addk	r3, r0, r0
900107a8:	30802000 	addik	r4, r0, 8192	// 2000 <_STACK_SIZE>
900107ac:	f8860004 	swi	r4, r6, 4
900107b0:	b60f0008 	rtsd	r15, 8
900107b4:	f866002c 	swi	r3, r6, 44

900107b8 <isatty>:
900107b8:	b60f0008 	rtsd	r15, 8
900107bc:	30600001 	addik	r3, r0, 1

900107c0 <lseek>:
900107c0:	3021ffe4 	addik	r1, r1, -28
900107c4:	f9e10000 	swi	r15, r1, 0
900107c8:	b9f40190 	brlid	r15, 400	// 90010958 <__errno>
900107cc:	80000000 	or	r0, r0, r0
900107d0:	3080001d 	addik	r4, r0, 29
900107d4:	f8830000 	swi	r4, r3, 0
900107d8:	e9e10000 	lwi	r15, r1, 0
900107dc:	3060ffff 	addik	r3, r0, -1
900107e0:	b60f0008 	rtsd	r15, 8
900107e4:	3021001c 	addik	r1, r1, 28

900107e8 <sbrk>:
900107e8:	b0009001 	imm	-28671
900107ec:	e8605014 	lwi	r3, r0, 20500
900107f0:	3021ffe4 	addik	r1, r1, -28
900107f4:	be030050 	beqid	r3, 80		// 90010844
900107f8:	f9e10000 	swi	r15, r1, 0
900107fc:	10830000 	addk	r4, r3, r0
90010800:	10632800 	addk	r3, r3, r5
90010804:	b0009001 	imm	-28671
90010808:	f8605014 	swi	r3, r0, 20500
9001080c:	b00090a1 	imm	-28511
90010810:	22405079 	addi	r18, r0, 20601
90010814:	16439003 	cmpu	r18, r3, r18
90010818:	beb20020 	bgeid	r18, 32		// 90010838
9001081c:	10640000 	addk	r3, r4, r0
90010820:	b9f40138 	brlid	r15, 312	// 90010958 <__errno>
90010824:	80000000 	or	r0, r0, r0
90010828:	3080000c 	addik	r4, r0, 12
9001082c:	f8830000 	swi	r4, r3, 0
90010830:	3080ffff 	addik	r4, r0, -1
90010834:	10640000 	addk	r3, r4, r0
90010838:	e9e10000 	lwi	r15, r1, 0
9001083c:	b60f0008 	rtsd	r15, 8
90010840:	3021001c 	addik	r1, r1, 28
90010844:	b0009001 	imm	-28671
90010848:	30605078 	addik	r3, r0, 20600
9001084c:	b0009001 	imm	-28671
90010850:	f8605014 	swi	r3, r0, 20500
90010854:	b810ffac 	brid	-84		// 90010800
90010858:	10830000 	addk	r4, r3, r0

9001085c <write>:
9001085c:	3021ffd8 	addik	r1, r1, -40
90010860:	fac10020 	swi	r22, r1, 32
90010864:	fae10024 	swi	r23, r1, 36
90010868:	f9e10000 	swi	r15, r1, 0
9001086c:	fa61001c 	swi	r19, r1, 28
90010870:	12c70000 	addk	r22, r7, r0
90010874:	be670050 	bleid	r7, 80		// 900108c4
90010878:	12e60000 	addk	r23, r6, r0
9001087c:	b8100024 	brid	36		// 900108a0
90010880:	12600000 	addk	r19, r0, r0
90010884:	10a30000 	addk	r5, r3, r0
90010888:	b000ffff 	imm	-1
9001088c:	b9f45444 	brlid	r15, 21572	// 90005cd0 <outbyte>
90010890:	32730001 	addik	r19, r19, 1
90010894:	1653b000 	rsubk	r18, r19, r22
90010898:	be120030 	beqid	r18, 48		// 900108c8
9001089c:	10760000 	addk	r3, r22, r0
900108a0:	c0779800 	lbu	r3, r23, r19
900108a4:	aa43000a 	xori	r18, r3, 10
900108a8:	be32ffdc 	bneid	r18, -36		// 90010884
900108ac:	30a0000d 	addik	r5, r0, 13
900108b0:	b000ffff 	imm	-1
900108b4:	b9f4541c 	brlid	r15, 21532	// 90005cd0 <outbyte>
900108b8:	80000000 	or	r0, r0, r0
900108bc:	b810ffc8 	brid	-56		// 90010884
900108c0:	c0779800 	lbu	r3, r23, r19
900108c4:	10760000 	addk	r3, r22, r0
900108c8:	e9e10000 	lwi	r15, r1, 0
900108cc:	ea61001c 	lwi	r19, r1, 28
900108d0:	eac10020 	lwi	r22, r1, 32
900108d4:	eae10024 	lwi	r23, r1, 36
900108d8:	b60f0008 	rtsd	r15, 8
900108dc:	30210028 	addik	r1, r1, 40

900108e0 <read>:
900108e0:	3021ffd8 	addik	r1, r1, -40
900108e4:	fac10020 	swi	r22, r1, 32
900108e8:	fae10024 	swi	r23, r1, 36
900108ec:	f9e10000 	swi	r15, r1, 0
900108f0:	fa61001c 	swi	r19, r1, 28
900108f4:	12e70000 	addk	r23, r7, r0
900108f8:	12c60000 	addk	r22, r6, r0
900108fc:	be67003c 	bleid	r7, 60		// 90010938
90010900:	30600001 	addik	r3, r0, 1
90010904:	12600000 	addk	r19, r0, r0
90010908:	b9f40060 	brlid	r15, 96	// 90010968 <inbyte>
9001090c:	80000000 	or	r0, r0, r0
90010910:	aa43000a 	xori	r18, r3, 10
90010914:	be120020 	beqid	r18, 32		// 90010934
90010918:	d0769800 	sb	r3, r22, r19
9001091c:	aa43000d 	xori	r18, r3, 13
90010920:	be120018 	beqid	r18, 24		// 90010938
90010924:	30730001 	addik	r3, r19, 1
90010928:	32730001 	addik	r19, r19, 1
9001092c:	1653b800 	rsubk	r18, r19, r23
90010930:	bc32ffd8 	bnei	r18, -40		// 90010908
90010934:	30730001 	addik	r3, r19, 1
90010938:	e9e10000 	lwi	r15, r1, 0
9001093c:	ea61001c 	lwi	r19, r1, 28
90010940:	eac10020 	lwi	r22, r1, 32
90010944:	eae10024 	lwi	r23, r1, 36
90010948:	b60f0008 	rtsd	r15, 8
9001094c:	30210028 	addik	r1, r1, 40

90010950 <close>:
90010950:	b60f0008 	rtsd	r15, 8
90010954:	10600000 	addk	r3, r0, r0

90010958 <__errno>:
90010958:	b0009001 	imm	-28671
9001095c:	e86037a4 	lwi	r3, r0, 14244
90010960:	b60f0008 	rtsd	r15, 8
90010964:	3063000c 	addik	r3, r3, 12

90010968 <inbyte>:
90010968:	b0008400 	imm	-31744
9001096c:	30a00000 	addik	r5, r0, 0
90010970:	3021ffe4 	addik	r1, r1, -28
90010974:	f9e10000 	swi	r15, r1, 0
90010978:	b000ffff 	imm	-1
9001097c:	b9f453bc 	brlid	r15, 21436	// 90005d38 <XUartLite_RecvByte>
90010980:	80000000 	or	r0, r0, r0
90010984:	e9e10000 	lwi	r15, r1, 0
90010988:	90630060 	sext8	r3, r3
9001098c:	b60f0008 	rtsd	r15, 8
90010990:	3021001c 	addik	r1, r1, 28

90010994 <__udivdi3>:
90010994:	11660000 	addk	r11, r6, r0
90010998:	11450000 	addk	r10, r5, r0
9001099c:	3021ffb4 	addik	r1, r1, -76
900109a0:	fa610020 	swi	r19, r1, 32
900109a4:	fae10028 	swi	r23, r1, 40
900109a8:	fba10040 	swi	r29, r1, 64
900109ac:	f9e10000 	swi	r15, r1, 0
900109b0:	fac10024 	swi	r22, r1, 36
900109b4:	fb01002c 	swi	r24, r1, 44
900109b8:	fb210030 	swi	r25, r1, 48
900109bc:	fb410034 	swi	r26, r1, 52
900109c0:	fb610038 	swi	r27, r1, 56
900109c4:	fb81003c 	swi	r28, r1, 60
900109c8:	fbc10044 	swi	r30, r1, 68
900109cc:	fbe10048 	swi	r31, r1, 72
900109d0:	12ea0000 	addk	r23, r10, r0
900109d4:	10c80000 	addk	r6, r8, r0
900109d8:	12680000 	addk	r19, r8, r0
900109dc:	be27011c 	bneid	r7, 284		// 90010af8
900109e0:	13ab0000 	addk	r29, r11, r0
900109e4:	16485003 	cmpu	r18, r8, r10
900109e8:	bc5201c0 	blti	r18, 448		// 90010ba8
900109ec:	bc080320 	beqi	r8, 800		// 90010d0c
900109f0:	b0000000 	imm	0
900109f4:	2240ffff 	addi	r18, r0, -1
900109f8:	16539003 	cmpu	r18, r19, r18
900109fc:	bc5202d8 	blti	r18, 728		// 90010cd4
90010a00:	224000ff 	addi	r18, r0, 255
90010a04:	16539003 	cmpu	r18, r19, r18
90010a08:	be520594 	bltid	r18, 1428		// 90010f9c
90010a0c:	30a00008 	addik	r5, r0, 8	// 8 <_vector_sw_exception>
90010a10:	10a00000 	addk	r5, r0, r0
90010a14:	10650000 	addk	r3, r5, r0
90010a18:	44931800 	bsrl	r4, r19, r3
90010a1c:	b0009001 	imm	-28671
90010a20:	e06435f8 	lbui	r3, r4, 13816
90010a24:	10651800 	addk	r3, r5, r3
90010a28:	37230020 	rsubik	r25, r3, 32
90010a2c:	be390450 	bneid	r25, 1104		// 90010e7c
90010a30:	34790020 	rsubik	r3, r25, 32
90010a34:	67130010 	bsrli	r24, r19, 16
90010a38:	16d3b800 	rsubk	r22, r19, r23
90010a3c:	b0000000 	imm	0
90010a40:	a793ffff 	andi	r28, r19, -1
90010a44:	33c00001 	addik	r30, r0, 1
90010a48:	10b60000 	addk	r5, r22, r0
90010a4c:	b9f41dec 	brlid	r15, 7660	// 90012838 <__udivsi3>
90010a50:	10d80000 	addk	r6, r24, r0
90010a54:	10b60000 	addk	r5, r22, r0
90010a58:	10d80000 	addk	r6, r24, r0
90010a5c:	13230000 	addk	r25, r3, r0
90010a60:	b9f41c80 	brlid	r15, 7296	// 900126e0 <__umodsi3>
90010a64:	42dc1800 	mul	r22, r28, r3
90010a68:	64630410 	bslli	r3, r3, 16
90010a6c:	649d0010 	bsrli	r4, r29, 16
90010a70:	80632000 	or	r3, r3, r4
90010a74:	16561803 	cmpu	r18, r22, r3
90010a78:	bcb2001c 	bgei	r18, 28		// 90010a94
90010a7c:	10639800 	addk	r3, r3, r19
90010a80:	16531803 	cmpu	r18, r19, r3
90010a84:	be520010 	bltid	r18, 16		// 90010a94
90010a88:	3339ffff 	addik	r25, r25, -1
90010a8c:	16561803 	cmpu	r18, r22, r3
90010a90:	bc520574 	blti	r18, 1396		// 90011004
90010a94:	16d61800 	rsubk	r22, r22, r3
90010a98:	10b60000 	addk	r5, r22, r0
90010a9c:	b9f41d9c 	brlid	r15, 7580	// 90012838 <__udivsi3>
90010aa0:	10d80000 	addk	r6, r24, r0
90010aa4:	10b60000 	addk	r5, r22, r0
90010aa8:	10d80000 	addk	r6, r24, r0
90010aac:	12e30000 	addk	r23, r3, r0
90010ab0:	b9f41c30 	brlid	r15, 7216	// 900126e0 <__umodsi3>
90010ab4:	42dc1800 	mul	r22, r28, r3
90010ab8:	64630410 	bslli	r3, r3, 16
90010abc:	b0000000 	imm	0
90010ac0:	a49dffff 	andi	r4, r29, -1
90010ac4:	80632000 	or	r3, r3, r4
90010ac8:	16561803 	cmpu	r18, r22, r3
90010acc:	bcb2001c 	bgei	r18, 28		// 90010ae8
90010ad0:	10731800 	addk	r3, r19, r3
90010ad4:	16531803 	cmpu	r18, r19, r3
90010ad8:	be520010 	bltid	r18, 16		// 90010ae8
90010adc:	32f7ffff 	addik	r23, r23, -1
90010ae0:	16561803 	cmpu	r18, r22, r3
90010ae4:	bc520504 	blti	r18, 1284		// 90010fe8
90010ae8:	64790410 	bslli	r3, r25, 16
90010aec:	109e0000 	addk	r4, r30, r0
90010af0:	b8100074 	brid	116		// 90010b64
90010af4:	80771800 	or	r3, r23, r3
90010af8:	16475003 	cmpu	r18, r7, r10
90010afc:	be520060 	bltid	r18, 96		// 90010b5c
90010b00:	10a70000 	addk	r5, r7, r0
90010b04:	b0000000 	imm	0
90010b08:	2240ffff 	addi	r18, r0, -1
90010b0c:	16479003 	cmpu	r18, r7, r18
90010b10:	bc5201a8 	blti	r18, 424		// 90010cb8
90010b14:	224000ff 	addi	r18, r0, 255
90010b18:	16479003 	cmpu	r18, r7, r18
90010b1c:	be52046c 	bltid	r18, 1132		// 90010f88
90010b20:	30c00008 	addik	r6, r0, 8	// 8 <_vector_sw_exception>
90010b24:	10c00000 	addk	r6, r0, r0
90010b28:	10660000 	addk	r3, r6, r0
90010b2c:	44851800 	bsrl	r4, r5, r3
90010b30:	b0009001 	imm	-28671
90010b34:	e06435f8 	lbui	r3, r4, 13816
90010b38:	10661800 	addk	r3, r6, r3
90010b3c:	37830020 	rsubik	r28, r3, 32
90010b40:	bc3c01f4 	bnei	r28, 500		// 90010d34
90010b44:	16572803 	cmpu	r18, r23, r5
90010b48:	be5201e4 	bltid	r18, 484		// 90010d2c
90010b4c:	10800000 	addk	r4, r0, r0
90010b50:	1653e803 	cmpu	r18, r19, r29
90010b54:	beb20010 	bgeid	r18, 16		// 90010b64
90010b58:	30600001 	addik	r3, r0, 1
90010b5c:	10600000 	addk	r3, r0, r0
90010b60:	10830000 	addk	r4, r3, r0
90010b64:	13630000 	addk	r27, r3, r0
90010b68:	e9e10000 	lwi	r15, r1, 0
90010b6c:	10640000 	addk	r3, r4, r0
90010b70:	ea610020 	lwi	r19, r1, 32
90010b74:	109b0000 	addk	r4, r27, r0
90010b78:	eac10024 	lwi	r22, r1, 36
90010b7c:	eae10028 	lwi	r23, r1, 40
90010b80:	eb01002c 	lwi	r24, r1, 44
90010b84:	eb210030 	lwi	r25, r1, 48
90010b88:	eb410034 	lwi	r26, r1, 52
90010b8c:	eb610038 	lwi	r27, r1, 56
90010b90:	eb81003c 	lwi	r28, r1, 60
90010b94:	eba10040 	lwi	r29, r1, 64
90010b98:	ebc10044 	lwi	r30, r1, 68
90010b9c:	ebe10048 	lwi	r31, r1, 72
90010ba0:	b60f0008 	rtsd	r15, 8
90010ba4:	3021004c 	addik	r1, r1, 76
90010ba8:	b0000000 	imm	0
90010bac:	2240ffff 	addi	r18, r0, -1
90010bb0:	16489003 	cmpu	r18, r8, r18
90010bb4:	bc52013c 	blti	r18, 316		// 90010cf0
90010bb8:	224000ff 	addi	r18, r0, 255
90010bbc:	16489003 	cmpu	r18, r8, r18
90010bc0:	bc5203d0 	blti	r18, 976		// 90010f90
90010bc4:	10670000 	addk	r3, r7, r0
90010bc8:	44931800 	bsrl	r4, r19, r3
90010bcc:	b0009001 	imm	-28671
90010bd0:	e06435f8 	lbui	r3, r4, 13816
90010bd4:	10671800 	addk	r3, r7, r3
90010bd8:	34e30020 	rsubik	r7, r3, 32
90010bdc:	be070024 	beqid	r7, 36		// 90010c00
90010be0:	67130010 	bsrli	r24, r19, 16
90010be4:	34670020 	rsubik	r3, r7, 32
90010be8:	447d1800 	bsrl	r3, r29, r3
90010bec:	44973c00 	bsll	r4, r23, r7
90010bf0:	47bd3c00 	bsll	r29, r29, r7
90010bf4:	46733c00 	bsll	r19, r19, r7
90010bf8:	82e41800 	or	r23, r4, r3
90010bfc:	67130010 	bsrli	r24, r19, 16
90010c00:	10b70000 	addk	r5, r23, r0
90010c04:	b0000000 	imm	0
90010c08:	a793ffff 	andi	r28, r19, -1
90010c0c:	b9f41c2c 	brlid	r15, 7212	// 90012838 <__udivsi3>
90010c10:	10d80000 	addk	r6, r24, r0
90010c14:	10b70000 	addk	r5, r23, r0
90010c18:	10d80000 	addk	r6, r24, r0
90010c1c:	13230000 	addk	r25, r3, r0
90010c20:	b9f41ac0 	brlid	r15, 6848	// 900126e0 <__umodsi3>
90010c24:	42dc1800 	mul	r22, r28, r3
90010c28:	64630410 	bslli	r3, r3, 16
90010c2c:	649d0010 	bsrli	r4, r29, 16
90010c30:	80632000 	or	r3, r3, r4
90010c34:	16561803 	cmpu	r18, r22, r3
90010c38:	bcb2001c 	bgei	r18, 28		// 90010c54
90010c3c:	10639800 	addk	r3, r3, r19
90010c40:	16531803 	cmpu	r18, r19, r3
90010c44:	be520010 	bltid	r18, 16		// 90010c54
90010c48:	3339ffff 	addik	r25, r25, -1
90010c4c:	16561803 	cmpu	r18, r22, r3
90010c50:	bc5203a8 	blti	r18, 936		// 90010ff8
90010c54:	16d61800 	rsubk	r22, r22, r3
90010c58:	10b60000 	addk	r5, r22, r0
90010c5c:	b9f41bdc 	brlid	r15, 7132	// 90012838 <__udivsi3>
90010c60:	10d80000 	addk	r6, r24, r0
90010c64:	10b60000 	addk	r5, r22, r0
90010c68:	10d80000 	addk	r6, r24, r0
90010c6c:	12e30000 	addk	r23, r3, r0
90010c70:	b9f41a70 	brlid	r15, 6768	// 900126e0 <__umodsi3>
90010c74:	42dc1800 	mul	r22, r28, r3
90010c78:	64630410 	bslli	r3, r3, 16
90010c7c:	b0000000 	imm	0
90010c80:	a49dffff 	andi	r4, r29, -1
90010c84:	80632000 	or	r3, r3, r4
90010c88:	16561803 	cmpu	r18, r22, r3
90010c8c:	bcb2001c 	bgei	r18, 28		// 90010ca8
90010c90:	10731800 	addk	r3, r19, r3
90010c94:	16531803 	cmpu	r18, r19, r3
90010c98:	be520010 	bltid	r18, 16		// 90010ca8
90010c9c:	32f7ffff 	addik	r23, r23, -1
90010ca0:	16561803 	cmpu	r18, r22, r3
90010ca4:	bc52034c 	blti	r18, 844		// 90010ff0
90010ca8:	64790410 	bslli	r3, r25, 16
90010cac:	10800000 	addk	r4, r0, r0
90010cb0:	b810feb4 	brid	-332		// 90010b64
90010cb4:	80771800 	or	r3, r23, r3
90010cb8:	b00000ff 	imm	255
90010cbc:	2240ffff 	addi	r18, r0, -1
90010cc0:	16479003 	cmpu	r18, r7, r18
90010cc4:	bc5202b8 	blti	r18, 696		// 90010f7c
90010cc8:	30c00010 	addik	r6, r0, 16	// 10 <_vector_interrupt>
90010ccc:	b810fe60 	brid	-416		// 90010b2c
90010cd0:	10660000 	addk	r3, r6, r0
90010cd4:	b00000ff 	imm	255
90010cd8:	2240ffff 	addi	r18, r0, -1
90010cdc:	16539003 	cmpu	r18, r19, r18
90010ce0:	bc5202c4 	blti	r18, 708		// 90010fa4
90010ce4:	30a00010 	addik	r5, r0, 16	// 10 <_vector_interrupt>
90010ce8:	b810fd30 	brid	-720		// 90010a18
90010cec:	10650000 	addk	r3, r5, r0
90010cf0:	b00000ff 	imm	255
90010cf4:	2240ffff 	addi	r18, r0, -1
90010cf8:	16489003 	cmpu	r18, r8, r18
90010cfc:	bc5202b4 	blti	r18, 692		// 90010fb0
90010d00:	30e00010 	addik	r7, r0, 16	// 10 <_vector_interrupt>
90010d04:	b810fec4 	brid	-316		// 90010bc8
90010d08:	10670000 	addk	r3, r7, r0
90010d0c:	b9f41b2c 	brlid	r15, 6956	// 90012838 <__udivsi3>
90010d10:	30a00001 	addik	r5, r0, 1
90010d14:	12630000 	addk	r19, r3, r0
90010d18:	b0000000 	imm	0
90010d1c:	2240ffff 	addi	r18, r0, -1
90010d20:	16539003 	cmpu	r18, r19, r18
90010d24:	bc52ffb0 	blti	r18, -80		// 90010cd4
90010d28:	b800fcd8 	bri	-808		// 90010a00
90010d2c:	b810fe38 	brid	-456		// 90010b64
90010d30:	30600001 	addik	r3, r0, 1
90010d34:	347c0020 	rsubik	r3, r28, 32
90010d38:	44931800 	bsrl	r4, r19, r3
90010d3c:	44a5e400 	bsll	r5, r5, r28
90010d40:	46d71800 	bsrl	r22, r23, r3
90010d44:	83052000 	or	r24, r5, r4
90010d48:	67380010 	bsrli	r25, r24, 16
90010d4c:	10b60000 	addk	r5, r22, r0
90010d50:	10d90000 	addk	r6, r25, r0
90010d54:	4497e400 	bsll	r4, r23, r28
90010d58:	447d1800 	bsrl	r3, r29, r3
90010d5c:	4673e400 	bsll	r19, r19, r28
90010d60:	b9f41ad8 	brlid	r15, 6872	// 90012838 <__udivsi3>
90010d64:	83e41800 	or	r31, r4, r3
90010d68:	10b60000 	addk	r5, r22, r0
90010d6c:	10d90000 	addk	r6, r25, r0
90010d70:	b0000000 	imm	0
90010d74:	a7d8ffff 	andi	r30, r24, -1
90010d78:	12e30000 	addk	r23, r3, r0
90010d7c:	42de1800 	mul	r22, r30, r3
90010d80:	b9f41960 	brlid	r15, 6496	// 900126e0 <__umodsi3>
90010d84:	fa61001c 	swi	r19, r1, 28
90010d88:	64630410 	bslli	r3, r3, 16
90010d8c:	649f0010 	bsrli	r4, r31, 16
90010d90:	80632000 	or	r3, r3, r4
90010d94:	16561803 	cmpu	r18, r22, r3
90010d98:	bcb20014 	bgei	r18, 20		// 90010dac
90010d9c:	1063c000 	addk	r3, r3, r24
90010da0:	16581803 	cmpu	r18, r24, r3
90010da4:	beb20230 	bgeid	r18, 560		// 90010fd4
90010da8:	32f7ffff 	addik	r23, r23, -1
90010dac:	16d61800 	rsubk	r22, r22, r3
90010db0:	10b60000 	addk	r5, r22, r0
90010db4:	b9f41a84 	brlid	r15, 6788	// 90012838 <__udivsi3>
90010db8:	10d90000 	addk	r6, r25, r0
90010dbc:	10b60000 	addk	r5, r22, r0
90010dc0:	10d90000 	addk	r6, r25, r0
90010dc4:	12630000 	addk	r19, r3, r0
90010dc8:	b9f41918 	brlid	r15, 6424	// 900126e0 <__umodsi3>
90010dcc:	42de1800 	mul	r22, r30, r3
90010dd0:	64630410 	bslli	r3, r3, 16
90010dd4:	b0000000 	imm	0
90010dd8:	a49fffff 	andi	r4, r31, -1
90010ddc:	81432000 	or	r10, r3, r4
90010de0:	16565003 	cmpu	r18, r22, r10
90010de4:	beb2001c 	bgeid	r18, 28		// 90010e00
90010de8:	64970410 	bslli	r4, r23, 16
90010dec:	114ac000 	addk	r10, r10, r24
90010df0:	16585003 	cmpu	r18, r24, r10
90010df4:	beb201c8 	bgeid	r18, 456		// 90010fbc
90010df8:	3273ffff 	addik	r19, r19, -1
90010dfc:	64970410 	bslli	r4, r23, 16
90010e00:	e861001c 	lwi	r3, r1, 28
90010e04:	e8a1001c 	lwi	r5, r1, 28
90010e08:	81132000 	or	r8, r19, r4
90010e0c:	64e30010 	bsrli	r7, r3, 16
90010e10:	b0000000 	imm	0
90010e14:	a485ffff 	andi	r4, r5, -1
90010e18:	b0000000 	imm	0
90010e1c:	a468ffff 	andi	r3, r8, -1
90010e20:	64c80010 	bsrli	r6, r8, 16
90010e24:	41232000 	mul	r9, r3, r4
90010e28:	40862000 	mul	r4, r6, r4
90010e2c:	40633800 	mul	r3, r3, r7
90010e30:	64a90010 	bsrli	r5, r9, 16
90010e34:	15565000 	rsubk	r10, r22, r10
90010e38:	10632000 	addk	r3, r3, r4
90010e3c:	10a51800 	addk	r5, r5, r3
90010e40:	16442803 	cmpu	r18, r4, r5
90010e44:	beb20010 	bgeid	r18, 16		// 90010e54
90010e48:	40c63800 	mul	r6, r6, r7
90010e4c:	b0000001 	imm	1
90010e50:	30c60000 	addik	r6, r6, 0
90010e54:	64650010 	bsrli	r3, r5, 16
90010e58:	10c61800 	addk	r6, r6, r3
90010e5c:	16465003 	cmpu	r18, r6, r10
90010e60:	be520114 	bltid	r18, 276		// 90010f74
90010e64:	3068ffff 	addik	r3, r8, -1
90010e68:	16465000 	rsubk	r18, r6, r10
90010e6c:	bc1200e8 	beqi	r18, 232		// 90010f54
90010e70:	10680000 	addk	r3, r8, r0
90010e74:	b810fcf0 	brid	-784		// 90010b64
90010e78:	10800000 	addk	r4, r0, r0
90010e7c:	4673cc00 	bsll	r19, r19, r25
90010e80:	46d71800 	bsrl	r22, r23, r3
90010e84:	67130010 	bsrli	r24, r19, 16
90010e88:	10b60000 	addk	r5, r22, r0
90010e8c:	10d80000 	addk	r6, r24, r0
90010e90:	4497cc00 	bsll	r4, r23, r25
90010e94:	447d1800 	bsrl	r3, r29, r3
90010e98:	b0000000 	imm	0
90010e9c:	a793ffff 	andi	r28, r19, -1
90010ea0:	b9f41998 	brlid	r15, 6552	// 90012838 <__udivsi3>
90010ea4:	83e41800 	or	r31, r4, r3
90010ea8:	10b60000 	addk	r5, r22, r0
90010eac:	10d80000 	addk	r6, r24, r0
90010eb0:	13c30000 	addk	r30, r3, r0
90010eb4:	b9f4182c 	brlid	r15, 6188	// 900126e0 <__umodsi3>
90010eb8:	42dc1800 	mul	r22, r28, r3
90010ebc:	64630410 	bslli	r3, r3, 16
90010ec0:	649f0010 	bsrli	r4, r31, 16
90010ec4:	80632000 	or	r3, r3, r4
90010ec8:	16561803 	cmpu	r18, r22, r3
90010ecc:	bcb20014 	bgei	r18, 20		// 90010ee0
90010ed0:	10639800 	addk	r3, r3, r19
90010ed4:	16531803 	cmpu	r18, r19, r3
90010ed8:	beb20138 	bgeid	r18, 312		// 90011010
90010edc:	33deffff 	addik	r30, r30, -1
90010ee0:	16d61800 	rsubk	r22, r22, r3
90010ee4:	10b60000 	addk	r5, r22, r0
90010ee8:	b9f41950 	brlid	r15, 6480	// 90012838 <__udivsi3>
90010eec:	10d80000 	addk	r6, r24, r0
90010ef0:	10b60000 	addk	r5, r22, r0
90010ef4:	10d80000 	addk	r6, r24, r0
90010ef8:	12e30000 	addk	r23, r3, r0
90010efc:	b9f417e4 	brlid	r15, 6116	// 900126e0 <__umodsi3>
90010f00:	42dc1800 	mul	r22, r28, r3
90010f04:	64630410 	bslli	r3, r3, 16
90010f08:	b0000000 	imm	0
90010f0c:	a49fffff 	andi	r4, r31, -1
90010f10:	80832000 	or	r4, r3, r4
90010f14:	16562003 	cmpu	r18, r22, r4
90010f18:	bcb20028 	bgei	r18, 40		// 90010f40
90010f1c:	10849800 	addk	r4, r4, r19
90010f20:	16532003 	cmpu	r18, r19, r4
90010f24:	be52001c 	bltid	r18, 28		// 90010f40
90010f28:	32f7ffff 	addik	r23, r23, -1
90010f2c:	16562003 	cmpu	r18, r22, r4
90010f30:	beb20014 	bgeid	r18, 20		// 90010f44
90010f34:	647e0410 	bslli	r3, r30, 16
90010f38:	32f7ffff 	addik	r23, r23, -1
90010f3c:	10849800 	addk	r4, r4, r19
90010f40:	647e0410 	bslli	r3, r30, 16
90010f44:	47bdcc00 	bsll	r29, r29, r25
90010f48:	16d62000 	rsubk	r22, r22, r4
90010f4c:	b810fafc 	brid	-1284		// 90010a48
90010f50:	83d71800 	or	r30, r23, r3
90010f54:	64650410 	bslli	r3, r5, 16
90010f58:	b0000000 	imm	0
90010f5c:	a489ffff 	andi	r4, r9, -1
90010f60:	44bde400 	bsll	r5, r29, r28
90010f64:	10632000 	addk	r3, r3, r4
90010f68:	16432803 	cmpu	r18, r3, r5
90010f6c:	bcb2ff04 	bgei	r18, -252		// 90010e70
90010f70:	3068ffff 	addik	r3, r8, -1
90010f74:	b810fbf0 	brid	-1040		// 90010b64
90010f78:	10800000 	addk	r4, r0, r0
90010f7c:	30c00018 	addik	r6, r0, 24
90010f80:	b810fbac 	brid	-1108		// 90010b2c
90010f84:	10660000 	addk	r3, r6, r0
90010f88:	b810fba4 	brid	-1116		// 90010b2c
90010f8c:	10660000 	addk	r3, r6, r0
90010f90:	30e00008 	addik	r7, r0, 8	// 8 <_vector_sw_exception>
90010f94:	b810fc34 	brid	-972		// 90010bc8
90010f98:	10670000 	addk	r3, r7, r0
90010f9c:	b810fa7c 	brid	-1412		// 90010a18
90010fa0:	10650000 	addk	r3, r5, r0
90010fa4:	30a00018 	addik	r5, r0, 24
90010fa8:	b810fa70 	brid	-1424		// 90010a18
90010fac:	10650000 	addk	r3, r5, r0
90010fb0:	30e00018 	addik	r7, r0, 24
90010fb4:	b810fc14 	brid	-1004		// 90010bc8
90010fb8:	10670000 	addk	r3, r7, r0
90010fbc:	16565003 	cmpu	r18, r22, r10
90010fc0:	beb2fe40 	bgeid	r18, -448		// 90010e00
90010fc4:	64970410 	bslli	r4, r23, 16
90010fc8:	114ac000 	addk	r10, r10, r24
90010fcc:	b810fe34 	brid	-460		// 90010e00
90010fd0:	3273ffff 	addik	r19, r19, -1
90010fd4:	16561803 	cmpu	r18, r22, r3
90010fd8:	bcb2fdd4 	bgei	r18, -556		// 90010dac
90010fdc:	32f7ffff 	addik	r23, r23, -1
90010fe0:	b810fdcc 	brid	-564		// 90010dac
90010fe4:	1063c000 	addk	r3, r3, r24
90010fe8:	b810fb00 	brid	-1280		// 90010ae8
90010fec:	32f7ffff 	addik	r23, r23, -1
90010ff0:	b810fcb8 	brid	-840		// 90010ca8
90010ff4:	32f7ffff 	addik	r23, r23, -1
90010ff8:	3339ffff 	addik	r25, r25, -1
90010ffc:	b810fc58 	brid	-936		// 90010c54
90011000:	10639800 	addk	r3, r3, r19
90011004:	3339ffff 	addik	r25, r25, -1
90011008:	b810fa8c 	brid	-1396		// 90010a94
9001100c:	10639800 	addk	r3, r3, r19
90011010:	16561803 	cmpu	r18, r22, r3
90011014:	bcb2fecc 	bgei	r18, -308		// 90010ee0
90011018:	33deffff 	addik	r30, r30, -1
9001101c:	b810fec4 	brid	-316		// 90010ee0
90011020:	10639800 	addk	r3, r3, r19

90011024 <__umoddi3>:
90011024:	10850000 	addk	r4, r5, r0
90011028:	11280000 	addk	r9, r8, r0
9001102c:	10a60000 	addk	r5, r6, r0
90011030:	3021ffb0 	addik	r1, r1, -80
90011034:	fa610024 	swi	r19, r1, 36
90011038:	fae1002c 	swi	r23, r1, 44
9001103c:	fb210034 	swi	r25, r1, 52
90011040:	f9e10000 	swi	r15, r1, 0
90011044:	fac10028 	swi	r22, r1, 40
90011048:	fb010030 	swi	r24, r1, 48
9001104c:	fb410038 	swi	r26, r1, 56
90011050:	fb61003c 	swi	r27, r1, 60
90011054:	fb810040 	swi	r28, r1, 64
90011058:	fba10044 	swi	r29, r1, 68
9001105c:	fbc10048 	swi	r30, r1, 72
90011060:	fbe1004c 	swi	r31, r1, 76
90011064:	10c90000 	addk	r6, r9, r0
90011068:	12690000 	addk	r19, r9, r0
9001106c:	13250000 	addk	r25, r5, r0
90011070:	be2700d0 	bneid	r7, 208		// 90011140
90011074:	12e40000 	addk	r23, r4, r0
90011078:	16492003 	cmpu	r18, r9, r4
9001107c:	bc52017c 	blti	r18, 380		// 900111f8
90011080:	bc09029c 	beqi	r9, 668		// 9001131c
90011084:	b0000000 	imm	0
90011088:	2240ffff 	addi	r18, r0, -1
9001108c:	16539003 	cmpu	r18, r19, r18
90011090:	bc520270 	blti	r18, 624		// 90011300
90011094:	224000ff 	addi	r18, r0, 255
90011098:	16539003 	cmpu	r18, r19, r18
9001109c:	be52057c 	bltid	r18, 1404		// 90011618
900110a0:	30a00008 	addik	r5, r0, 8	// 8 <_vector_sw_exception>
900110a4:	10a00000 	addk	r5, r0, r0
900110a8:	10650000 	addk	r3, r5, r0
900110ac:	44931800 	bsrl	r4, r19, r3
900110b0:	b0009001 	imm	-28671
900110b4:	e06435f8 	lbui	r3, r4, 13816
900110b8:	10651800 	addk	r3, r5, r3
900110bc:	37a30020 	rsubik	r29, r3, 32
900110c0:	be3d0458 	bneid	r29, 1112		// 90011518
900110c4:	347d0020 	rsubik	r3, r29, 32
900110c8:	139d0000 	addk	r28, r29, r0
900110cc:	67130010 	bsrli	r24, r19, 16
900110d0:	16d3b800 	rsubk	r22, r19, r23
900110d4:	b0000000 	imm	0
900110d8:	a6f3ffff 	andi	r23, r19, -1
900110dc:	10b60000 	addk	r5, r22, r0
900110e0:	b9f41758 	brlid	r15, 5976	// 90012838 <__udivsi3>
900110e4:	10d80000 	addk	r6, r24, r0
900110e8:	10b60000 	addk	r5, r22, r0
900110ec:	10d80000 	addk	r6, r24, r0
900110f0:	b9f415f0 	brlid	r15, 5616	// 900126e0 <__umodsi3>
900110f4:	42d71800 	mul	r22, r23, r3
900110f8:	64630410 	bslli	r3, r3, 16
900110fc:	64990010 	bsrli	r4, r25, 16
90011100:	80632000 	or	r3, r3, r4
90011104:	16561803 	cmpu	r18, r22, r3
90011108:	bcb20018 	bgei	r18, 24		// 90011120
9001110c:	10639800 	addk	r3, r3, r19
90011110:	16531803 	cmpu	r18, r19, r3
90011114:	bc52000c 	blti	r18, 12		// 90011120
90011118:	16561803 	cmpu	r18, r22, r3
9001111c:	bc52053c 	blti	r18, 1340		// 90011658
90011120:	16d61800 	rsubk	r22, r22, r3
90011124:	10b60000 	addk	r5, r22, r0
90011128:	b9f41710 	brlid	r15, 5904	// 90012838 <__udivsi3>
9001112c:	10d80000 	addk	r6, r24, r0
90011130:	10b60000 	addk	r5, r22, r0
90011134:	10d80000 	addk	r6, r24, r0
90011138:	b8100180 	brid	384		// 900112b8
9001113c:	42d71800 	mul	r22, r23, r3
90011140:	16472003 	cmpu	r18, r7, r4
90011144:	beb2004c 	bgeid	r18, 76		// 90011190
90011148:	13650000 	addk	r27, r5, r0
9001114c:	13440000 	addk	r26, r4, r0
90011150:	107a0000 	addk	r3, r26, r0
90011154:	109b0000 	addk	r4, r27, r0
90011158:	e9e10000 	lwi	r15, r1, 0
9001115c:	ea610024 	lwi	r19, r1, 36
90011160:	eac10028 	lwi	r22, r1, 40
90011164:	eae1002c 	lwi	r23, r1, 44
90011168:	eb010030 	lwi	r24, r1, 48
9001116c:	eb210034 	lwi	r25, r1, 52
90011170:	eb410038 	lwi	r26, r1, 56
90011174:	eb61003c 	lwi	r27, r1, 60
90011178:	eb810040 	lwi	r28, r1, 64
9001117c:	eba10044 	lwi	r29, r1, 68
90011180:	ebc10048 	lwi	r30, r1, 72
90011184:	ebe1004c 	lwi	r31, r1, 76
90011188:	b60f0008 	rtsd	r15, 8
9001118c:	30210050 	addik	r1, r1, 80
90011190:	b0000000 	imm	0
90011194:	2240ffff 	addi	r18, r0, -1
90011198:	16479003 	cmpu	r18, r7, r18
9001119c:	bc5201bc 	blti	r18, 444		// 90011358
900111a0:	224000ff 	addi	r18, r0, 255
900111a4:	16479003 	cmpu	r18, r7, r18
900111a8:	be520478 	bltid	r18, 1144		// 90011620
900111ac:	30a00008 	addik	r5, r0, 8	// 8 <_vector_sw_exception>
900111b0:	10a00000 	addk	r5, r0, r0
900111b4:	10650000 	addk	r3, r5, r0
900111b8:	44871800 	bsrl	r4, r7, r3
900111bc:	b0009001 	imm	-28671
900111c0:	e06435f8 	lbui	r3, r4, 13816
900111c4:	10651800 	addk	r3, r5, r3
900111c8:	37030020 	rsubik	r24, r3, 32
900111cc:	be3801c4 	bneid	r24, 452		// 90011390
900111d0:	34780020 	rsubik	r3, r24, 32
900111d4:	16573803 	cmpu	r18, r23, r7
900111d8:	be52019c 	bltid	r18, 412		// 90011374
900111dc:	1473c800 	rsubk	r3, r19, r25
900111e0:	1653c803 	cmpu	r18, r19, r25
900111e4:	beb20194 	bgeid	r18, 404		// 90011378
900111e8:	1487b800 	rsubk	r4, r7, r23
900111ec:	13790000 	addk	r27, r25, r0
900111f0:	b810ff60 	brid	-160		// 90011150
900111f4:	13570000 	addk	r26, r23, r0
900111f8:	b0000000 	imm	0
900111fc:	2240ffff 	addi	r18, r0, -1
90011200:	16499003 	cmpu	r18, r9, r18
90011204:	bc520138 	blti	r18, 312		// 9001133c
90011208:	224000ff 	addi	r18, r0, 255
9001120c:	16499003 	cmpu	r18, r9, r18
90011210:	bc520418 	blti	r18, 1048		// 90011628
90011214:	10670000 	addk	r3, r7, r0
90011218:	44931800 	bsrl	r4, r19, r3
9001121c:	b0009001 	imm	-28671
90011220:	e06435f8 	lbui	r3, r4, 13816
90011224:	10671800 	addk	r3, r7, r3
90011228:	34630020 	rsubik	r3, r3, 32
9001122c:	be030020 	beqid	r3, 32		// 9001124c
90011230:	13830000 	addk	r28, r3, r0
90011234:	34630020 	rsubik	r3, r3, 32
90011238:	44791800 	bsrl	r3, r25, r3
9001123c:	4497e400 	bsll	r4, r23, r28
90011240:	4673e400 	bsll	r19, r19, r28
90011244:	4739e400 	bsll	r25, r25, r28
90011248:	82e41800 	or	r23, r4, r3
9001124c:	67130010 	bsrli	r24, r19, 16
90011250:	10b70000 	addk	r5, r23, r0
90011254:	b0000000 	imm	0
90011258:	a7b3ffff 	andi	r29, r19, -1
9001125c:	b9f415dc 	brlid	r15, 5596	// 90012838 <__udivsi3>
90011260:	10d80000 	addk	r6, r24, r0
90011264:	10b70000 	addk	r5, r23, r0
90011268:	10d80000 	addk	r6, r24, r0
9001126c:	b9f41474 	brlid	r15, 5236	// 900126e0 <__umodsi3>
90011270:	42dd1800 	mul	r22, r29, r3
90011274:	64630410 	bslli	r3, r3, 16
90011278:	64990010 	bsrli	r4, r25, 16
9001127c:	80632000 	or	r3, r3, r4
90011280:	16561803 	cmpu	r18, r22, r3
90011284:	bcb20018 	bgei	r18, 24		// 9001129c
90011288:	10639800 	addk	r3, r3, r19
9001128c:	16531803 	cmpu	r18, r19, r3
90011290:	bc52000c 	blti	r18, 12		// 9001129c
90011294:	16561803 	cmpu	r18, r22, r3
90011298:	bc5203b8 	blti	r18, 952		// 90011650
9001129c:	16d61800 	rsubk	r22, r22, r3
900112a0:	10b60000 	addk	r5, r22, r0
900112a4:	b9f41594 	brlid	r15, 5524	// 90012838 <__udivsi3>
900112a8:	10d80000 	addk	r6, r24, r0
900112ac:	10b60000 	addk	r5, r22, r0
900112b0:	10d80000 	addk	r6, r24, r0
900112b4:	42dd1800 	mul	r22, r29, r3
900112b8:	b9f41428 	brlid	r15, 5160	// 900126e0 <__umodsi3>
900112bc:	80000000 	or	r0, r0, r0
900112c0:	64630410 	bslli	r3, r3, 16
900112c4:	b0000000 	imm	0
900112c8:	a499ffff 	andi	r4, r25, -1
900112cc:	80632000 	or	r3, r3, r4
900112d0:	16561803 	cmpu	r18, r22, r3
900112d4:	bcb2001c 	bgei	r18, 28		// 900112f0
900112d8:	10639800 	addk	r3, r3, r19
900112dc:	16531803 	cmpu	r18, r19, r3
900112e0:	bc520010 	blti	r18, 16		// 900112f0
900112e4:	16561803 	cmpu	r18, r22, r3
900112e8:	bcb20008 	bgei	r18, 8		// 900112f0
900112ec:	10639800 	addk	r3, r3, r19
900112f0:	14761800 	rsubk	r3, r22, r3
900112f4:	4763e000 	bsrl	r27, r3, r28
900112f8:	b810fe58 	brid	-424		// 90011150
900112fc:	13400000 	addk	r26, r0, r0
90011300:	b00000ff 	imm	255
90011304:	2240ffff 	addi	r18, r0, -1
90011308:	16539003 	cmpu	r18, r19, r18
9001130c:	bc520300 	blti	r18, 768		// 9001160c
90011310:	30a00010 	addik	r5, r0, 16	// 10 <_vector_interrupt>
90011314:	b810fd98 	brid	-616		// 900110ac
90011318:	10650000 	addk	r3, r5, r0
9001131c:	b9f4151c 	brlid	r15, 5404	// 90012838 <__udivsi3>
90011320:	30a00001 	addik	r5, r0, 1
90011324:	12630000 	addk	r19, r3, r0
90011328:	b0000000 	imm	0
9001132c:	2240ffff 	addi	r18, r0, -1
90011330:	16539003 	cmpu	r18, r19, r18
90011334:	bc52ffcc 	blti	r18, -52		// 90011300
90011338:	b800fd5c 	bri	-676		// 90011094
9001133c:	b00000ff 	imm	255
90011340:	2240ffff 	addi	r18, r0, -1
90011344:	16499003 	cmpu	r18, r9, r18
90011348:	bc5202b8 	blti	r18, 696		// 90011600
9001134c:	30e00010 	addik	r7, r0, 16	// 10 <_vector_interrupt>
90011350:	b810fec8 	brid	-312		// 90011218
90011354:	10670000 	addk	r3, r7, r0
90011358:	b00000ff 	imm	255
9001135c:	2240ffff 	addi	r18, r0, -1
90011360:	16479003 	cmpu	r18, r7, r18
90011364:	bc5202d0 	blti	r18, 720		// 90011634
90011368:	30a00010 	addik	r5, r0, 16	// 10 <_vector_interrupt>
9001136c:	b810fe4c 	brid	-436		// 900111b8
90011370:	10650000 	addk	r3, r5, r0
90011374:	1487b800 	rsubk	r4, r7, r23
90011378:	1643c803 	cmpu	r18, r3, r25
9001137c:	be5202c4 	bltid	r18, 708		// 90011640
90011380:	10a00000 	addk	r5, r0, r0
90011384:	13230000 	addk	r25, r3, r0
90011388:	b810fe64 	brid	-412		// 900111ec
9001138c:	16e52000 	rsubk	r23, r5, r4
90011390:	f8610020 	swi	r3, r1, 32
90011394:	4487c400 	bsll	r4, r7, r24
90011398:	44731800 	bsrl	r3, r19, r3
9001139c:	e8a10020 	lwi	r5, r1, 32
900113a0:	83a41800 	or	r29, r4, r3
900113a4:	e8e10020 	lwi	r7, r1, 32
900113a8:	46d72800 	bsrl	r22, r23, r5
900113ac:	679d0010 	bsrli	r28, r29, 16
900113b0:	44793800 	bsrl	r3, r25, r7
900113b4:	10b60000 	addk	r5, r22, r0
900113b8:	10dc0000 	addk	r6, r28, r0
900113bc:	4497c400 	bsll	r4, r23, r24
900113c0:	b0000000 	imm	0
900113c4:	a6fdffff 	andi	r23, r29, -1
900113c8:	80841800 	or	r4, r4, r3
900113cc:	b9f4146c 	brlid	r15, 5228	// 90012838 <__udivsi3>
900113d0:	f881001c 	swi	r4, r1, 28
900113d4:	10b60000 	addk	r5, r22, r0
900113d8:	10dc0000 	addk	r6, r28, r0
900113dc:	13c30000 	addk	r30, r3, r0
900113e0:	b9f41300 	brlid	r15, 4864	// 900126e0 <__umodsi3>
900113e4:	42d71800 	mul	r22, r23, r3
900113e8:	e8a1001c 	lwi	r5, r1, 28
900113ec:	64630410 	bslli	r3, r3, 16
900113f0:	47f3c400 	bsll	r31, r19, r24
900113f4:	64850010 	bsrli	r4, r5, 16
900113f8:	80632000 	or	r3, r3, r4
900113fc:	16561803 	cmpu	r18, r22, r3
90011400:	beb20018 	bgeid	r18, 24		// 90011418
90011404:	4739c400 	bsll	r25, r25, r24
90011408:	1063e800 	addk	r3, r3, r29
9001140c:	165d1803 	cmpu	r18, r29, r3
90011410:	beb20278 	bgeid	r18, 632		// 90011688
90011414:	33deffff 	addik	r30, r30, -1
90011418:	16d61800 	rsubk	r22, r22, r3
9001141c:	10b60000 	addk	r5, r22, r0
90011420:	b9f41418 	brlid	r15, 5144	// 90012838 <__udivsi3>
90011424:	10dc0000 	addk	r6, r28, r0
90011428:	10b60000 	addk	r5, r22, r0
9001142c:	10dc0000 	addk	r6, r28, r0
90011430:	12630000 	addk	r19, r3, r0
90011434:	b9f412ac 	brlid	r15, 4780	// 900126e0 <__umodsi3>
90011438:	42f71800 	mul	r23, r23, r3
9001143c:	e8e1001c 	lwi	r7, r1, 28
90011440:	64630410 	bslli	r3, r3, 16
90011444:	b0000000 	imm	0
90011448:	a487ffff 	andi	r4, r7, -1
9001144c:	82c32000 	or	r22, r3, r4
90011450:	1657b003 	cmpu	r18, r23, r22
90011454:	beb2001c 	bgeid	r18, 28		// 90011470
90011458:	647e0410 	bslli	r3, r30, 16
9001145c:	12d6e800 	addk	r22, r22, r29
90011460:	165db003 	cmpu	r18, r29, r22
90011464:	beb2020c 	bgeid	r18, 524		// 90011670
90011468:	3273ffff 	addik	r19, r19, -1
9001146c:	647e0410 	bslli	r3, r30, 16
90011470:	b0000000 	imm	0
90011474:	a49fffff 	andi	r4, r31, -1
90011478:	80731800 	or	r3, r19, r3
9001147c:	64e30010 	bsrli	r7, r3, 16
90011480:	64df0010 	bsrli	r6, r31, 16
90011484:	b0000000 	imm	0
90011488:	a463ffff 	andi	r3, r3, -1
9001148c:	41032000 	mul	r8, r3, r4
90011490:	40872000 	mul	r4, r7, r4
90011494:	40633000 	mul	r3, r3, r6
90011498:	64a80010 	bsrli	r5, r8, 16
9001149c:	16d7b000 	rsubk	r22, r23, r22
900114a0:	10632000 	addk	r3, r3, r4
900114a4:	10a51800 	addk	r5, r5, r3
900114a8:	16442803 	cmpu	r18, r4, r5
900114ac:	beb20010 	bgeid	r18, 16		// 900114bc
900114b0:	40e73000 	mul	r7, r7, r6
900114b4:	b0000001 	imm	1
900114b8:	30e70000 	addik	r7, r7, 0
900114bc:	64650010 	bsrli	r3, r5, 16
900114c0:	64a50410 	bslli	r5, r5, 16
900114c4:	b0000000 	imm	0
900114c8:	a488ffff 	andi	r4, r8, -1
900114cc:	10671800 	addk	r3, r7, r3
900114d0:	1643b003 	cmpu	r18, r3, r22
900114d4:	be52010c 	bltid	r18, 268		// 900115e0
900114d8:	10852000 	addk	r4, r5, r4
900114dc:	1643b000 	rsubk	r18, r3, r22
900114e0:	bc1200f4 	beqi	r18, 244		// 900115d4
900114e4:	14c4c800 	rsubk	r6, r4, r25
900114e8:	1463b000 	rsubk	r3, r3, r22
900114ec:	1646c803 	cmpu	r18, r6, r25
900114f0:	beb2000c 	bgeid	r18, 12		// 900114fc
900114f4:	10800000 	addk	r4, r0, r0
900114f8:	30800001 	addik	r4, r0, 1
900114fc:	14a41800 	rsubk	r5, r4, r3
90011500:	e8610020 	lwi	r3, r1, 32
90011504:	4745c000 	bsrl	r26, r5, r24
90011508:	44851c00 	bsll	r4, r5, r3
9001150c:	4466c000 	bsrl	r3, r6, r24
90011510:	b810fc40 	brid	-960		// 90011150
90011514:	83641800 	or	r27, r4, r3
90011518:	4673ec00 	bsll	r19, r19, r29
9001151c:	46d71800 	bsrl	r22, r23, r3
90011520:	67130010 	bsrli	r24, r19, 16
90011524:	10b60000 	addk	r5, r22, r0
90011528:	10d80000 	addk	r6, r24, r0
9001152c:	4497ec00 	bsll	r4, r23, r29
90011530:	44791800 	bsrl	r3, r25, r3
90011534:	b0000000 	imm	0
90011538:	a6f3ffff 	andi	r23, r19, -1
9001153c:	b9f412fc 	brlid	r15, 4860	// 90012838 <__udivsi3>
90011540:	83c41800 	or	r30, r4, r3
90011544:	10b60000 	addk	r5, r22, r0
90011548:	10d80000 	addk	r6, r24, r0
9001154c:	42d71800 	mul	r22, r23, r3
90011550:	b9f41190 	brlid	r15, 4496	// 900126e0 <__umodsi3>
90011554:	139d0000 	addk	r28, r29, r0
90011558:	64630410 	bslli	r3, r3, 16
9001155c:	649e0010 	bsrli	r4, r30, 16
90011560:	80632000 	or	r3, r3, r4
90011564:	16561803 	cmpu	r18, r22, r3
90011568:	bcb20010 	bgei	r18, 16		// 90011578
9001156c:	10639800 	addk	r3, r3, r19
90011570:	16531803 	cmpu	r18, r19, r3
90011574:	bcb200ec 	bgei	r18, 236		// 90011660
90011578:	16d61800 	rsubk	r22, r22, r3
9001157c:	10b60000 	addk	r5, r22, r0
90011580:	b9f412b8 	brlid	r15, 4792	// 90012838 <__udivsi3>
90011584:	10d80000 	addk	r6, r24, r0
90011588:	10b60000 	addk	r5, r22, r0
9001158c:	10d80000 	addk	r6, r24, r0
90011590:	b9f41150 	brlid	r15, 4432	// 900126e0 <__umodsi3>
90011594:	42d71800 	mul	r22, r23, r3
90011598:	64630410 	bslli	r3, r3, 16
9001159c:	b0000000 	imm	0
900115a0:	a49effff 	andi	r4, r30, -1
900115a4:	80632000 	or	r3, r3, r4
900115a8:	16561803 	cmpu	r18, r22, r3
900115ac:	bcb2001c 	bgei	r18, 28		// 900115c8
900115b0:	10639800 	addk	r3, r3, r19
900115b4:	16531803 	cmpu	r18, r19, r3
900115b8:	bc520010 	blti	r18, 16		// 900115c8
900115bc:	16561803 	cmpu	r18, r22, r3
900115c0:	bcb20008 	bgei	r18, 8		// 900115c8
900115c4:	10639800 	addk	r3, r3, r19
900115c8:	4739ec00 	bsll	r25, r25, r29
900115cc:	b810fb10 	brid	-1264		// 900110dc
900115d0:	16d61800 	rsubk	r22, r22, r3
900115d4:	1644c803 	cmpu	r18, r4, r25
900115d8:	beb2ff10 	bgeid	r18, -240		// 900114e8
900115dc:	14c4c800 	rsubk	r6, r4, r25
900115e0:	14df2000 	rsubk	r6, r31, r4
900115e4:	147d1800 	rsubk	r3, r29, r3
900115e8:	16462003 	cmpu	r18, r6, r4
900115ec:	be52005c 	bltid	r18, 92		// 90011648
900115f0:	10a00000 	addk	r5, r0, r0
900115f4:	10860000 	addk	r4, r6, r0
900115f8:	b810feec 	brid	-276		// 900114e4
900115fc:	14651800 	rsubk	r3, r5, r3
90011600:	30e00018 	addik	r7, r0, 24
90011604:	b810fc14 	brid	-1004		// 90011218
90011608:	10670000 	addk	r3, r7, r0
9001160c:	30a00018 	addik	r5, r0, 24
90011610:	b810fa9c 	brid	-1380		// 900110ac
90011614:	10650000 	addk	r3, r5, r0
90011618:	b810fa94 	brid	-1388		// 900110ac
9001161c:	10650000 	addk	r3, r5, r0
90011620:	b810fb98 	brid	-1128		// 900111b8
90011624:	10650000 	addk	r3, r5, r0
90011628:	30e00008 	addik	r7, r0, 8	// 8 <_vector_sw_exception>
9001162c:	b810fbec 	brid	-1044		// 90011218
90011630:	10670000 	addk	r3, r7, r0
90011634:	30a00018 	addik	r5, r0, 24
90011638:	b810fb80 	brid	-1152		// 900111b8
9001163c:	10650000 	addk	r3, r5, r0
90011640:	b810fd44 	brid	-700		// 90011384
90011644:	30a00001 	addik	r5, r0, 1
90011648:	b810ffac 	brid	-84		// 900115f4
9001164c:	30a00001 	addik	r5, r0, 1
90011650:	b810fc4c 	brid	-948		// 9001129c
90011654:	10639800 	addk	r3, r3, r19
90011658:	b810fac8 	brid	-1336		// 90011120
9001165c:	10639800 	addk	r3, r3, r19
90011660:	16561803 	cmpu	r18, r22, r3
90011664:	bcb2ff14 	bgei	r18, -236		// 90011578
90011668:	b810ff10 	brid	-240		// 90011578
9001166c:	10639800 	addk	r3, r3, r19
90011670:	1657b003 	cmpu	r18, r23, r22
90011674:	beb2fdfc 	bgeid	r18, -516		// 90011470
90011678:	647e0410 	bslli	r3, r30, 16
9001167c:	3273ffff 	addik	r19, r19, -1
90011680:	b810fdf0 	brid	-528		// 90011470
90011684:	12d6e800 	addk	r22, r22, r29
90011688:	16561803 	cmpu	r18, r22, r3
9001168c:	bcb2fd8c 	bgei	r18, -628		// 90011418
90011690:	33deffff 	addik	r30, r30, -1
90011694:	b810fd84 	brid	-636		// 90011418
90011698:	1063e800 	addk	r3, r3, r29

9001169c <_fpadd_parts>:
9001169c:	3021ffe4 	addik	r1, r1, -28
900116a0:	fb210014 	swi	r25, r1, 20
900116a4:	fa610004 	swi	r19, r1, 4
900116a8:	fac10008 	swi	r22, r1, 8
900116ac:	fae1000c 	swi	r23, r1, 12
900116b0:	fb010010 	swi	r24, r1, 16
900116b4:	fb410018 	swi	r26, r1, 24
900116b8:	e8850000 	lwi	r4, r5, 0
900116bc:	11250000 	addk	r9, r5, r0
900116c0:	11860000 	addk	r12, r6, r0
900116c4:	22400001 	addi	r18, r0, 1
900116c8:	16449003 	cmpu	r18, r4, r18
900116cc:	beb20048 	bgeid	r18, 72		// 90011714
900116d0:	13270000 	addk	r25, r7, r0
900116d4:	e8660000 	lwi	r3, r6, 0
900116d8:	22400001 	addi	r18, r0, 1
900116dc:	16439003 	cmpu	r18, r3, r18
900116e0:	bcb20060 	bgei	r18, 96		// 90011740
900116e4:	aa440004 	xori	r18, r4, 4
900116e8:	bc320050 	bnei	r18, 80		// 90011738
900116ec:	aa430004 	xori	r18, r3, 4
900116f0:	be320028 	bneid	r18, 40		// 90011718
900116f4:	10690000 	addk	r3, r9, r0
900116f8:	e8860004 	lwi	r4, r6, 4
900116fc:	e8650004 	lwi	r3, r5, 4
90011700:	16441800 	rsubk	r18, r4, r3
90011704:	be120014 	beqid	r18, 20		// 90011718
90011708:	10690000 	addk	r3, r9, r0
9001170c:	b0009001 	imm	-28671
90011710:	312035e4 	addik	r9, r0, 13796
90011714:	10690000 	addk	r3, r9, r0
90011718:	ea610004 	lwi	r19, r1, 4
9001171c:	eac10008 	lwi	r22, r1, 8
90011720:	eae1000c 	lwi	r23, r1, 12
90011724:	eb010010 	lwi	r24, r1, 16
90011728:	eb210014 	lwi	r25, r1, 20
9001172c:	eb410018 	lwi	r26, r1, 24
90011730:	b60f0008 	rtsd	r15, 8
90011734:	3021001c 	addik	r1, r1, 28
90011738:	aa430004 	xori	r18, r3, 4
9001173c:	bc32000c 	bnei	r18, 12		// 90011748
90011740:	b810ffd4 	brid	-44		// 90011714
90011744:	112c0000 	addk	r9, r12, r0
90011748:	aa430002 	xori	r18, r3, 2
9001174c:	bc320050 	bnei	r18, 80		// 9001179c
90011750:	aa440002 	xori	r18, r4, 2
90011754:	be32ffc4 	bneid	r18, -60		// 90011718
90011758:	10690000 	addk	r3, r9, r0
9001175c:	e8650004 	lwi	r3, r5, 4
90011760:	e8850008 	lwi	r4, r5, 8
90011764:	e8e50000 	lwi	r7, r5, 0
90011768:	e8c90010 	lwi	r6, r9, 16
9001176c:	e8a5000c 	lwi	r5, r5, 12
90011770:	f8790004 	swi	r3, r25, 4
90011774:	f8f90000 	swi	r7, r25, 0
90011778:	f8990008 	swi	r4, r25, 8
9001177c:	f8b9000c 	swi	r5, r25, 12
90011780:	f8d90010 	swi	r6, r25, 16
90011784:	e8690004 	lwi	r3, r9, 4
90011788:	e88c0004 	lwi	r4, r12, 4
9001178c:	11390000 	addk	r9, r25, r0
90011790:	84632000 	and	r3, r3, r4
90011794:	b810ff80 	brid	-128		// 90011714
90011798:	f8790004 	swi	r3, r25, 4
9001179c:	aa440002 	xori	r18, r4, 2
900117a0:	bc12ffa0 	beqi	r18, -96		// 90011740
900117a4:	eb450008 	lwi	r26, r5, 8
900117a8:	eb060008 	lwi	r24, r6, 8
900117ac:	eac5000c 	lwi	r22, r5, 12
900117b0:	eae50010 	lwi	r23, r5, 16
900117b4:	e946000c 	lwi	r10, r6, 12
900117b8:	e9660010 	lwi	r11, r6, 16
900117bc:	1678d000 	rsubk	r19, r24, r26
900117c0:	6493021f 	bsrai	r4, r19, 31
900117c4:	88649800 	xor	r3, r4, r19
900117c8:	14641800 	rsubk	r3, r4, r3
900117cc:	3240003f 	addik	r18, r0, 63
900117d0:	16439001 	cmp	r18, r3, r18
900117d4:	bcb20134 	bgei	r18, 308		// 90011908
900117d8:	165ac001 	cmp	r18, r26, r24
900117dc:	bc5201d8 	blti	r18, 472		// 900119b4
900117e0:	13580000 	addk	r26, r24, r0
900117e4:	32c00000 	addik	r22, r0, 0
900117e8:	32e00000 	addik	r23, r0, 0
900117ec:	e8a90004 	lwi	r5, r9, 4
900117f0:	e86c0004 	lwi	r3, r12, 4
900117f4:	16432800 	rsubk	r18, r3, r5
900117f8:	bc12019c 	beqi	r18, 412		// 90011994
900117fc:	bc05018c 	beqi	r5, 396		// 90011988
90011800:	04f75800 	rsub	r7, r23, r11
90011804:	0cd65000 	rsubc	r6, r22, r10
90011808:	be4601bc 	bltid	r6, 444		// 900119c4
9001180c:	30600001 	addik	r3, r0, 1
90011810:	fb590008 	swi	r26, r25, 8
90011814:	f8d9000c 	swi	r6, r25, 12
90011818:	f8f90010 	swi	r7, r25, 16
9001181c:	f8190004 	swi	r0, r25, 4
90011820:	e959000c 	lwi	r10, r25, 12
90011824:	e9790010 	lwi	r11, r25, 16
90011828:	20abffff 	addi	r5, r11, -1
9001182c:	288affff 	addic	r4, r10, -1
90011830:	b0000fff 	imm	4095
90011834:	2240ffff 	addi	r18, r0, -1
90011838:	16449003 	cmpu	r18, r4, r18
9001183c:	be52007c 	bltid	r18, 124		// 900118b8
90011840:	30600003 	addik	r3, r0, 3
90011844:	b0000fff 	imm	4095
90011848:	aa44ffff 	xori	r18, r4, -1
9001184c:	bc120194 	beqi	r18, 404		// 900119e0
90011850:	e8d90008 	lwi	r6, r25, 8
90011854:	646b001f 	bsrli	r3, r11, 31
90011858:	108a5000 	addk	r4, r10, r10
9001185c:	10ab5800 	addk	r5, r11, r11
90011860:	80841800 	or	r4, r4, r3
90011864:	f899000c 	swi	r4, r25, 12
90011868:	f8b90010 	swi	r5, r25, 16
9001186c:	e959000c 	lwi	r10, r25, 12
90011870:	e9790010 	lwi	r11, r25, 16
90011874:	30c6ffff 	addik	r6, r6, -1
90011878:	20abffff 	addi	r5, r11, -1
9001187c:	288affff 	addic	r4, r10, -1
90011880:	b0000fff 	imm	4095
90011884:	2240ffff 	addi	r18, r0, -1
90011888:	16449003 	cmpu	r18, r4, r18
9001188c:	be520028 	bltid	r18, 40		// 900118b4
90011890:	f8d90008 	swi	r6, r25, 8
90011894:	b0000fff 	imm	4095
90011898:	aa44ffff 	xori	r18, r4, -1
9001189c:	be32ffbc 	bneid	r18, -68		// 90011858
900118a0:	646b001f 	bsrli	r3, r11, 31
900118a4:	2240fffe 	addi	r18, r0, -2
900118a8:	16459003 	cmpu	r18, r5, r18
900118ac:	beb2ffb0 	bgeid	r18, -80		// 9001185c
900118b0:	108a5000 	addk	r4, r10, r10
900118b4:	30600003 	addik	r3, r0, 3
900118b8:	f8790000 	swi	r3, r25, 0
900118bc:	b0001fff 	imm	8191
900118c0:	2240ffff 	addi	r18, r0, -1
900118c4:	164a9003 	cmpu	r18, r10, r18
900118c8:	beb2fe4c 	bgeid	r18, -436		// 90011714
900118cc:	11390000 	addk	r9, r25, r0
900118d0:	e8790008 	lwi	r3, r25, 8
900118d4:	650a041f 	bslli	r8, r10, 31
900118d8:	90ab0041 	srl	r5, r11
900118dc:	a4ca0000 	andi	r6, r10, 0
900118e0:	a4eb0001 	andi	r7, r11, 1
900118e4:	80a82800 	or	r5, r8, r5
900118e8:	908a0041 	srl	r4, r10
900118ec:	80c62000 	or	r6, r6, r4
900118f0:	80e72800 	or	r7, r7, r5
900118f4:	30630001 	addik	r3, r3, 1
900118f8:	f8d9000c 	swi	r6, r25, 12
900118fc:	f8f90010 	swi	r7, r25, 16
90011900:	b810fe14 	brid	-492		// 90011714
90011904:	f8790008 	swi	r3, r25, 8
90011908:	165ac001 	cmp	r18, r26, r24
9001190c:	beb20038 	bgeid	r18, 56		// 90011944
90011910:	11000000 	addk	r8, r0, r0
90011914:	646a041f 	bslli	r3, r10, 31
90011918:	90ab0041 	srl	r5, r11
9001191c:	a4ca0000 	andi	r6, r10, 0
90011920:	a4eb0001 	andi	r7, r11, 1
90011924:	80a32800 	or	r5, r3, r5
90011928:	908a0041 	srl	r4, r10
9001192c:	31080001 	addik	r8, r8, 1
90011930:	81462000 	or	r10, r6, r4
90011934:	16489800 	rsubk	r18, r8, r19
90011938:	be32ffdc 	bneid	r18, -36		// 90011914
9001193c:	81672800 	or	r11, r7, r5
90011940:	13189800 	addk	r24, r24, r19
90011944:	1658d001 	cmp	r18, r24, r26
90011948:	beb2fea4 	bgeid	r18, -348		// 900117ec
9001194c:	11000000 	addk	r8, r0, r0
90011950:	167ac000 	rsubk	r19, r26, r24
90011954:	6476041f 	bslli	r3, r22, 31
90011958:	90b70041 	srl	r5, r23
9001195c:	a4d60000 	andi	r6, r22, 0
90011960:	a4f70001 	andi	r7, r23, 1
90011964:	80a32800 	or	r5, r3, r5
90011968:	90960041 	srl	r4, r22
9001196c:	31080001 	addik	r8, r8, 1
90011970:	82c62000 	or	r22, r6, r4
90011974:	16489800 	rsubk	r18, r8, r19
90011978:	be32ffdc 	bneid	r18, -36		// 90011954
9001197c:	82e72800 	or	r23, r7, r5
90011980:	b810fe6c 	brid	-404		// 900117ec
90011984:	135a9800 	addk	r26, r26, r19
90011988:	04ebb800 	rsub	r7, r11, r23
9001198c:	0ccab000 	rsubc	r6, r10, r22
90011990:	b800fe78 	bri	-392		// 90011808
90011994:	016bb800 	add	r11, r11, r23
90011998:	094ab000 	addc	r10, r10, r22
9001199c:	f8b90004 	swi	r5, r25, 4
900119a0:	fb590008 	swi	r26, r25, 8
900119a4:	f959000c 	swi	r10, r25, 12
900119a8:	f9790010 	swi	r11, r25, 16
900119ac:	b810ff0c 	brid	-244		// 900118b8
900119b0:	30600003 	addik	r3, r0, 3
900119b4:	31400000 	addik	r10, r0, 0
900119b8:	31600000 	addik	r11, r0, 0
900119bc:	b810fe34 	brid	-460		// 900117f0
900119c0:	e8a90004 	lwi	r5, r9, 4
900119c4:	05670000 	rsub	r11, r7, r0
900119c8:	0d460000 	rsubc	r10, r6, r0
900119cc:	f8790004 	swi	r3, r25, 4
900119d0:	fb590008 	swi	r26, r25, 8
900119d4:	f959000c 	swi	r10, r25, 12
900119d8:	f9790010 	swi	r11, r25, 16
900119dc:	b800fe44 	bri	-444		// 90011820
900119e0:	2240fffe 	addi	r18, r0, -2
900119e4:	16459003 	cmpu	r18, r5, r18
900119e8:	be52fed0 	bltid	r18, -304		// 900118b8
900119ec:	30600003 	addik	r3, r0, 3
900119f0:	b810fe64 	brid	-412		// 90011854
900119f4:	e8d90008 	lwi	r6, r25, 8

900119f8 <__subdf3>:
900119f8:	3021ff88 	addik	r1, r1, -120
900119fc:	fb210074 	swi	r25, r1, 116
90011a00:	3321002c 	addik	r25, r1, 44
90011a04:	11470000 	addk	r10, r7, r0
90011a08:	11680000 	addk	r11, r8, r0
90011a0c:	fac10068 	swi	r22, r1, 104
90011a10:	fae1006c 	swi	r23, r1, 108
90011a14:	12c50000 	addk	r22, r5, r0
90011a18:	12e60000 	addk	r23, r6, r0
90011a1c:	10d90000 	addk	r6, r25, r0
90011a20:	fb010070 	swi	r24, r1, 112
90011a24:	30a1001c 	addik	r5, r1, 28
90011a28:	f9e10000 	swi	r15, r1, 0
90011a2c:	f9410024 	swi	r10, r1, 36
90011a30:	f9610028 	swi	r11, r1, 40
90011a34:	fac1001c 	swi	r22, r1, 28
90011a38:	fae10020 	swi	r23, r1, 32
90011a3c:	b9f41258 	brlid	r15, 4696	// 90012c94 <__unpack_d>
90011a40:	33010040 	addik	r24, r1, 64
90011a44:	10d80000 	addk	r6, r24, r0
90011a48:	b9f4124c 	brlid	r15, 4684	// 90012c94 <__unpack_d>
90011a4c:	30a10024 	addik	r5, r1, 36
90011a50:	e8610044 	lwi	r3, r1, 68
90011a54:	10d80000 	addk	r6, r24, r0
90011a58:	10b90000 	addk	r5, r25, r0
90011a5c:	30e10054 	addik	r7, r1, 84
90011a60:	a8630001 	xori	r3, r3, 1
90011a64:	b9f4fc38 	brlid	r15, -968	// 9001169c <_fpadd_parts>
90011a68:	f8610044 	swi	r3, r1, 68
90011a6c:	b9f40f20 	brlid	r15, 3872	// 9001298c <__pack_d>
90011a70:	10a30000 	addk	r5, r3, r0
90011a74:	e9e10000 	lwi	r15, r1, 0
90011a78:	eac10068 	lwi	r22, r1, 104
90011a7c:	eae1006c 	lwi	r23, r1, 108
90011a80:	eb010070 	lwi	r24, r1, 112
90011a84:	eb210074 	lwi	r25, r1, 116
90011a88:	b60f0008 	rtsd	r15, 8
90011a8c:	30210078 	addik	r1, r1, 120

90011a90 <__adddf3>:
90011a90:	3021ff88 	addik	r1, r1, -120
90011a94:	fb210074 	swi	r25, r1, 116
90011a98:	3321002c 	addik	r25, r1, 44
90011a9c:	11470000 	addk	r10, r7, r0
90011aa0:	11680000 	addk	r11, r8, r0
90011aa4:	fac10068 	swi	r22, r1, 104
90011aa8:	fae1006c 	swi	r23, r1, 108
90011aac:	12c50000 	addk	r22, r5, r0
90011ab0:	12e60000 	addk	r23, r6, r0
90011ab4:	10d90000 	addk	r6, r25, r0
90011ab8:	fb010070 	swi	r24, r1, 112
90011abc:	30a1001c 	addik	r5, r1, 28
90011ac0:	f9e10000 	swi	r15, r1, 0
90011ac4:	f9410024 	swi	r10, r1, 36
90011ac8:	f9610028 	swi	r11, r1, 40
90011acc:	fac1001c 	swi	r22, r1, 28
90011ad0:	fae10020 	swi	r23, r1, 32
90011ad4:	b9f411c0 	brlid	r15, 4544	// 90012c94 <__unpack_d>
90011ad8:	33010040 	addik	r24, r1, 64
90011adc:	10d80000 	addk	r6, r24, r0
90011ae0:	b9f411b4 	brlid	r15, 4532	// 90012c94 <__unpack_d>
90011ae4:	30a10024 	addik	r5, r1, 36
90011ae8:	10d80000 	addk	r6, r24, r0
90011aec:	10b90000 	addk	r5, r25, r0
90011af0:	b9f4fbac 	brlid	r15, -1108	// 9001169c <_fpadd_parts>
90011af4:	30e10054 	addik	r7, r1, 84
90011af8:	b9f40e94 	brlid	r15, 3732	// 9001298c <__pack_d>
90011afc:	10a30000 	addk	r5, r3, r0
90011b00:	e9e10000 	lwi	r15, r1, 0
90011b04:	eac10068 	lwi	r22, r1, 104
90011b08:	eae1006c 	lwi	r23, r1, 108
90011b0c:	eb010070 	lwi	r24, r1, 112
90011b10:	eb210074 	lwi	r25, r1, 116
90011b14:	b60f0008 	rtsd	r15, 8
90011b18:	30210078 	addik	r1, r1, 120

90011b1c <__muldf3>:
90011b1c:	3021ff68 	addik	r1, r1, -152
90011b20:	fb010078 	swi	r24, r1, 120
90011b24:	3301002c 	addik	r24, r1, 44
90011b28:	11470000 	addk	r10, r7, r0
90011b2c:	11680000 	addk	r11, r8, r0
90011b30:	fac10070 	swi	r22, r1, 112
90011b34:	fae10074 	swi	r23, r1, 116
90011b38:	12c50000 	addk	r22, r5, r0
90011b3c:	12e60000 	addk	r23, r6, r0
90011b40:	10d80000 	addk	r6, r24, r0
90011b44:	fb410080 	swi	r26, r1, 128
90011b48:	30a1001c 	addik	r5, r1, 28
90011b4c:	f9e10000 	swi	r15, r1, 0
90011b50:	f9410024 	swi	r10, r1, 36
90011b54:	f9610028 	swi	r11, r1, 40
90011b58:	fb21007c 	swi	r25, r1, 124
90011b5c:	fb610084 	swi	r27, r1, 132
90011b60:	fb810088 	swi	r28, r1, 136
90011b64:	fba1008c 	swi	r29, r1, 140
90011b68:	fbc10090 	swi	r30, r1, 144
90011b6c:	fbe10094 	swi	r31, r1, 148
90011b70:	fac1001c 	swi	r22, r1, 28
90011b74:	fae10020 	swi	r23, r1, 32
90011b78:	b9f4111c 	brlid	r15, 4380	// 90012c94 <__unpack_d>
90011b7c:	33410040 	addik	r26, r1, 64
90011b80:	10da0000 	addk	r6, r26, r0
90011b84:	b9f41110 	brlid	r15, 4368	// 90012c94 <__unpack_d>
90011b88:	30a10024 	addik	r5, r1, 36
90011b8c:	e861002c 	lwi	r3, r1, 44
90011b90:	22400001 	addi	r18, r0, 1
90011b94:	16439003 	cmpu	r18, r3, r18
90011b98:	beb20068 	bgeid	r18, 104		// 90011c00
90011b9c:	e8810040 	lwi	r4, r1, 64
90011ba0:	22400001 	addi	r18, r0, 1
90011ba4:	16449003 	cmpu	r18, r4, r18
90011ba8:	bcb20024 	bgei	r18, 36		// 90011bcc
90011bac:	aa430004 	xori	r18, r3, 4
90011bb0:	bc120040 	beqi	r18, 64		// 90011bf0
90011bb4:	aa440004 	xori	r18, r4, 4
90011bb8:	bc3200a4 	bnei	r18, 164		// 90011c5c
90011bbc:	b0009001 	imm	-28671
90011bc0:	30c035e4 	addik	r6, r0, 13796
90011bc4:	aa430002 	xori	r18, r3, 2
90011bc8:	bc120058 	beqi	r18, 88		// 90011c20
90011bcc:	e8a10044 	lwi	r5, r1, 68
90011bd0:	e8610030 	lwi	r3, r1, 48
90011bd4:	10da0000 	addk	r6, r26, r0
90011bd8:	88632800 	xor	r3, r3, r5
90011bdc:	14830000 	rsubk	r4, r3, r0
90011be0:	80841800 	or	r4, r4, r3
90011be4:	6484001f 	bsrli	r4, r4, 31
90011be8:	b8100038 	brid	56		// 90011c20
90011bec:	f8810044 	swi	r4, r1, 68
90011bf0:	b0009001 	imm	-28671
90011bf4:	30c035e4 	addik	r6, r0, 13796
90011bf8:	aa440002 	xori	r18, r4, 2
90011bfc:	bc120024 	beqi	r18, 36		// 90011c20
90011c00:	e8610030 	lwi	r3, r1, 48
90011c04:	e8a10044 	lwi	r5, r1, 68
90011c08:	10d80000 	addk	r6, r24, r0
90011c0c:	88632800 	xor	r3, r3, r5
90011c10:	14830000 	rsubk	r4, r3, r0
90011c14:	80841800 	or	r4, r4, r3
90011c18:	6484001f 	bsrli	r4, r4, 31
90011c1c:	f8810030 	swi	r4, r1, 48
90011c20:	b9f40d6c 	brlid	r15, 3436	// 9001298c <__pack_d>
90011c24:	10a60000 	addk	r5, r6, r0
90011c28:	e9e10000 	lwi	r15, r1, 0
90011c2c:	eac10070 	lwi	r22, r1, 112
90011c30:	eae10074 	lwi	r23, r1, 116
90011c34:	eb010078 	lwi	r24, r1, 120
90011c38:	eb21007c 	lwi	r25, r1, 124
90011c3c:	eb410080 	lwi	r26, r1, 128
90011c40:	eb610084 	lwi	r27, r1, 132
90011c44:	eb810088 	lwi	r28, r1, 136
90011c48:	eba1008c 	lwi	r29, r1, 140
90011c4c:	ebc10090 	lwi	r30, r1, 144
90011c50:	ebe10094 	lwi	r31, r1, 148
90011c54:	b60f0008 	rtsd	r15, 8
90011c58:	30210098 	addik	r1, r1, 152
90011c5c:	aa430002 	xori	r18, r3, 2
90011c60:	be12ffa4 	beqid	r18, -92		// 90011c04
90011c64:	e8610030 	lwi	r3, r1, 48
90011c68:	aa440002 	xori	r18, r4, 2
90011c6c:	be12ff68 	beqid	r18, -152		// 90011bd4
90011c70:	e8a10044 	lwi	r5, r1, 68
90011c74:	eb410038 	lwi	r26, r1, 56
90011c78:	eb61003c 	lwi	r27, r1, 60
90011c7c:	eac1004c 	lwi	r22, r1, 76
90011c80:	eae10050 	lwi	r23, r1, 80
90011c84:	13000000 	addk	r24, r0, r0
90011c88:	10b80000 	addk	r5, r24, r0
90011c8c:	10d70000 	addk	r6, r23, r0
90011c90:	10f80000 	addk	r7, r24, r0
90011c94:	111b0000 	addk	r8, r27, r0
90011c98:	13b70000 	addk	r29, r23, r0
90011c9c:	b9f40c44 	brlid	r15, 3140	// 900128e0 <__muldi3>
90011ca0:	12f60000 	addk	r23, r22, r0
90011ca4:	13980000 	addk	r28, r24, r0
90011ca8:	10b80000 	addk	r5, r24, r0
90011cac:	10db0000 	addk	r6, r27, r0
90011cb0:	10f80000 	addk	r7, r24, r0
90011cb4:	11170000 	addk	r8, r23, r0
90011cb8:	f8610068 	swi	r3, r1, 104
90011cbc:	f881006c 	swi	r4, r1, 108
90011cc0:	b9f40c20 	brlid	r15, 3104	// 900128e0 <__muldi3>
90011cc4:	12d80000 	addk	r22, r24, r0
90011cc8:	10dd0000 	addk	r6, r29, r0
90011ccc:	10fc0000 	addk	r7, r28, r0
90011cd0:	111a0000 	addk	r8, r26, r0
90011cd4:	10bc0000 	addk	r5, r28, r0
90011cd8:	13240000 	addk	r25, r4, r0
90011cdc:	13d80000 	addk	r30, r24, r0
90011ce0:	b9f40c00 	brlid	r15, 3072	// 900128e0 <__muldi3>
90011ce4:	13030000 	addk	r24, r3, r0
90011ce8:	10c30000 	addk	r6, r3, r0
90011cec:	10e40000 	addk	r7, r4, r0
90011cf0:	13f70000 	addk	r31, r23, r0
90011cf4:	12fa0000 	addk	r23, r26, r0
90011cf8:	03793800 	add	r27, r25, r7
90011cfc:	0b583000 	addc	r26, r24, r6
90011d00:	1658d003 	cmpu	r18, r24, r26
90011d04:	bc5201c4 	blti	r18, 452		// 90011ec8
90011d08:	165ac000 	rsubk	r18, r26, r24
90011d0c:	bc1201b4 	beqi	r18, 436		// 90011ec0
90011d10:	33800000 	addik	r28, r0, 0
90011d14:	33a00000 	addik	r29, r0, 0
90011d18:	109b0000 	addk	r4, r27, r0
90011d1c:	e8c10068 	lwi	r6, r1, 104
90011d20:	e8e1006c 	lwi	r7, r1, 108
90011d24:	10a00000 	addk	r5, r0, r0
90011d28:	03272800 	add	r25, r7, r5
90011d2c:	0b062000 	addc	r24, r6, r4
90011d30:	1646c003 	cmpu	r18, r6, r24
90011d34:	be52017c 	bltid	r18, 380		// 90011eb0
90011d38:	e8e10068 	lwi	r7, r1, 104
90011d3c:	16583800 	rsubk	r18, r24, r7
90011d40:	be120168 	beqid	r18, 360		// 90011ea8
90011d44:	e861006c 	lwi	r3, r1, 108
90011d48:	10be0000 	addk	r5, r30, r0
90011d4c:	10df0000 	addk	r6, r31, r0
90011d50:	10f60000 	addk	r7, r22, r0
90011d54:	b9f40b8c 	brlid	r15, 2956	// 900128e0 <__muldi3>
90011d58:	11170000 	addk	r8, r23, r0
90011d5c:	10c30000 	addk	r6, r3, r0
90011d60:	10e40000 	addk	r7, r4, r0
90011d64:	e8610030 	lwi	r3, r1, 48
90011d68:	e8810044 	lwi	r4, r1, 68
90011d6c:	10ba0000 	addk	r5, r26, r0
90011d70:	88632000 	xor	r3, r3, r4
90011d74:	15030000 	rsubk	r8, r3, r0
90011d78:	81081800 	or	r8, r8, r3
90011d7c:	10800000 	addk	r4, r0, r0
90011d80:	e8610034 	lwi	r3, r1, 52
90011d84:	00e72800 	add	r7, r7, r5
90011d88:	08c62000 	addc	r6, r6, r4
90011d8c:	e8810048 	lwi	r4, r1, 72
90011d90:	30630004 	addik	r3, r3, 4
90011d94:	6508001f 	bsrli	r8, r8, 31
90011d98:	10841800 	addk	r4, r4, r3
90011d9c:	017d3800 	add	r11, r29, r7
90011da0:	095c3000 	addc	r10, r28, r6
90011da4:	f9010058 	swi	r8, r1, 88
90011da8:	b0001fff 	imm	8191
90011dac:	2240ffff 	addi	r18, r0, -1
90011db0:	164a9003 	cmpu	r18, r10, r18
90011db4:	beb20064 	bgeid	r18, 100		// 90011e18
90011db8:	f881005c 	swi	r4, r1, 92
90011dbc:	11040000 	addk	r8, r4, r0
90011dc0:	646a041f 	bslli	r3, r10, 31
90011dc4:	90ab0041 	srl	r5, r11
90011dc8:	80a32800 	or	r5, r3, r5
90011dcc:	908a0041 	srl	r4, r10
90011dd0:	a46b0001 	andi	r3, r11, 1
90011dd4:	6538041f 	bslli	r9, r24, 31
90011dd8:	31080001 	addik	r8, r8, 1
90011ddc:	11440000 	addk	r10, r4, r0
90011de0:	be030020 	beqid	r3, 32		// 90011e00
90011de4:	11650000 	addk	r11, r5, r0
90011de8:	90f90041 	srl	r7, r25
90011dec:	80e93800 	or	r7, r9, r7
90011df0:	90d80041 	srl	r6, r24
90011df4:	b0008000 	imm	-32768
90011df8:	a3060000 	ori	r24, r6, 0
90011dfc:	a3270000 	ori	r25, r7, 0
90011e00:	b0001fff 	imm	8191
90011e04:	2240ffff 	addi	r18, r0, -1
90011e08:	164a9003 	cmpu	r18, r10, r18
90011e0c:	be52ffb8 	bltid	r18, -72		// 90011dc4
90011e10:	646a041f 	bslli	r3, r10, 31
90011e14:	f901005c 	swi	r8, r1, 92
90011e18:	b0000fff 	imm	4095
90011e1c:	2240ffff 	addi	r18, r0, -1
90011e20:	164a9003 	cmpu	r18, r10, r18
90011e24:	be520054 	bltid	r18, 84		// 90011e78
90011e28:	e8e1005c 	lwi	r7, r1, 92
90011e2c:	64cb001f 	bsrli	r6, r11, 31
90011e30:	108a5000 	addk	r4, r10, r10
90011e34:	6479001f 	bsrli	r3, r25, 31
90011e38:	1118c000 	addk	r8, r24, r24
90011e3c:	80862000 	or	r4, r6, r4
90011e40:	10ab5800 	addk	r5, r11, r11
90011e44:	81034000 	or	r8, r3, r8
90011e48:	1139c800 	addk	r9, r25, r25
90011e4c:	30e7ffff 	addik	r7, r7, -1
90011e50:	11440000 	addk	r10, r4, r0
90011e54:	be580084 	bltid	r24, 132		// 90011ed8
90011e58:	11650000 	addk	r11, r5, r0
90011e5c:	13080000 	addk	r24, r8, r0
90011e60:	b0000fff 	imm	4095
90011e64:	2240ffff 	addi	r18, r0, -1
90011e68:	164a9003 	cmpu	r18, r10, r18
90011e6c:	beb2ffc0 	bgeid	r18, -64		// 90011e2c
90011e70:	13290000 	addk	r25, r9, r0
90011e74:	f8e1005c 	swi	r7, r1, 92
90011e78:	a48a0000 	andi	r4, r10, 0
90011e7c:	a4ab00ff 	andi	r5, r11, 255
90011e80:	be240014 	bneid	r4, 20		// 90011e94
90011e84:	30600003 	addik	r3, r0, 3
90011e88:	aa450080 	xori	r18, r5, 128
90011e8c:	bc12005c 	beqi	r18, 92		// 90011ee8
90011e90:	30600003 	addik	r3, r0, 3
90011e94:	30c10054 	addik	r6, r1, 84
90011e98:	f9410060 	swi	r10, r1, 96
90011e9c:	f9610064 	swi	r11, r1, 100
90011ea0:	b810fd80 	brid	-640		// 90011c20
90011ea4:	f8610054 	swi	r3, r1, 84
90011ea8:	1643c803 	cmpu	r18, r3, r25
90011eac:	bcb2fe9c 	bgei	r18, -356		// 90011d48
90011eb0:	23bd0001 	addi	r29, r29, 1
90011eb4:	2b9c0000 	addic	r28, r28, 0
90011eb8:	b810fe94 	brid	-364		// 90011d4c
90011ebc:	10be0000 	addk	r5, r30, r0
90011ec0:	1659d803 	cmpu	r18, r25, r27
90011ec4:	bcb2fe4c 	bgei	r18, -436		// 90011d10
90011ec8:	33800001 	addik	r28, r0, 1
90011ecc:	33a00000 	addik	r29, r0, 0
90011ed0:	b810fe4c 	brid	-436		// 90011d1c
90011ed4:	109b0000 	addk	r4, r27, r0
90011ed8:	a14a0000 	ori	r10, r10, 0
90011edc:	a16b0001 	ori	r11, r11, 1
90011ee0:	b810ff80 	brid	-128		// 90011e60
90011ee4:	13080000 	addk	r24, r8, r0
90011ee8:	a48a0000 	andi	r4, r10, 0
90011eec:	a4ab0100 	andi	r5, r11, 256
90011ef0:	80842800 	or	r4, r4, r5
90011ef4:	be24ffa0 	bneid	r4, -96		// 90011e94
90011ef8:	30600003 	addik	r3, r0, 3
90011efc:	8078c800 	or	r3, r24, r25
90011f00:	be03ff90 	beqid	r3, -112		// 90011e90
90011f04:	30600003 	addik	r3, r0, 3
90011f08:	20ab0080 	addi	r5, r11, 128
90011f0c:	288a0000 	addic	r4, r10, 0
90011f10:	a544ffff 	andi	r10, r4, -1
90011f14:	a565ff00 	andi	r11, r5, -256
90011f18:	b810ff80 	brid	-128		// 90011e98
90011f1c:	30c10054 	addik	r6, r1, 84

90011f20 <__divdf3>:
90011f20:	3021ff98 	addik	r1, r1, -104
90011f24:	fa610054 	swi	r19, r1, 84
90011f28:	3261002c 	addik	r19, r1, 44
90011f2c:	11470000 	addk	r10, r7, r0
90011f30:	11680000 	addk	r11, r8, r0
90011f34:	fac10058 	swi	r22, r1, 88
90011f38:	fae1005c 	swi	r23, r1, 92
90011f3c:	12c50000 	addk	r22, r5, r0
90011f40:	12e60000 	addk	r23, r6, r0
90011f44:	10d30000 	addk	r6, r19, r0
90011f48:	fb010060 	swi	r24, r1, 96
90011f4c:	30a1001c 	addik	r5, r1, 28
90011f50:	f9e10000 	swi	r15, r1, 0
90011f54:	f9410024 	swi	r10, r1, 36
90011f58:	f9610028 	swi	r11, r1, 40
90011f5c:	fb210064 	swi	r25, r1, 100
90011f60:	fac1001c 	swi	r22, r1, 28
90011f64:	fae10020 	swi	r23, r1, 32
90011f68:	b9f40d2c 	brlid	r15, 3372	// 90012c94 <__unpack_d>
90011f6c:	33010040 	addik	r24, r1, 64
90011f70:	10d80000 	addk	r6, r24, r0
90011f74:	b9f40d20 	brlid	r15, 3360	// 90012c94 <__unpack_d>
90011f78:	30a10024 	addik	r5, r1, 36
90011f7c:	e8c1002c 	lwi	r6, r1, 44
90011f80:	22400001 	addi	r18, r0, 1
90011f84:	16469003 	cmpu	r18, r6, r18
90011f88:	beb2005c 	bgeid	r18, 92		// 90011fe4
90011f8c:	10b30000 	addk	r5, r19, r0
90011f90:	e8e10040 	lwi	r7, r1, 64
90011f94:	22400001 	addi	r18, r0, 1
90011f98:	16479003 	cmpu	r18, r7, r18
90011f9c:	beb20048 	bgeid	r18, 72		// 90011fe4
90011fa0:	10b80000 	addk	r5, r24, r0
90011fa4:	e8610030 	lwi	r3, r1, 48
90011fa8:	e8810044 	lwi	r4, r1, 68
90011fac:	88632000 	xor	r3, r3, r4
90011fb0:	aa460004 	xori	r18, r6, 4
90011fb4:	be120058 	beqid	r18, 88		// 9001200c
90011fb8:	f8610030 	swi	r3, r1, 48
90011fbc:	aa460002 	xori	r18, r6, 2
90011fc0:	bc12004c 	beqi	r18, 76		// 9001200c
90011fc4:	aa470004 	xori	r18, r7, 4
90011fc8:	be32005c 	bneid	r18, 92		// 90012024
90011fcc:	10b30000 	addk	r5, r19, r0
90011fd0:	30c00000 	addik	r6, r0, 0
90011fd4:	30e00000 	addik	r7, r0, 0
90011fd8:	f8c10038 	swi	r6, r1, 56
90011fdc:	f8e1003c 	swi	r7, r1, 60
90011fe0:	f8010034 	swi	r0, r1, 52
90011fe4:	b9f409a8 	brlid	r15, 2472	// 9001298c <__pack_d>
90011fe8:	80000000 	or	r0, r0, r0
90011fec:	e9e10000 	lwi	r15, r1, 0
90011ff0:	ea610054 	lwi	r19, r1, 84
90011ff4:	eac10058 	lwi	r22, r1, 88
90011ff8:	eae1005c 	lwi	r23, r1, 92
90011ffc:	eb010060 	lwi	r24, r1, 96
90012000:	eb210064 	lwi	r25, r1, 100
90012004:	b60f0008 	rtsd	r15, 8
90012008:	30210068 	addik	r1, r1, 104
9001200c:	b0009001 	imm	-28671
90012010:	30a035e4 	addik	r5, r0, 13796
90012014:	16463800 	rsubk	r18, r6, r7
90012018:	bc12ffcc 	beqi	r18, -52		// 90011fe4
9001201c:	b810ffc8 	brid	-56		// 90011fe4
90012020:	10b30000 	addk	r5, r19, r0
90012024:	aa470002 	xori	r18, r7, 2
90012028:	be1200c0 	beqid	r18, 192		// 900120e8
9001202c:	30600004 	addik	r3, r0, 4
90012030:	e8810034 	lwi	r4, r1, 52
90012034:	e8610048 	lwi	r3, r1, 72
90012038:	e9010038 	lwi	r8, r1, 56
9001203c:	e921003c 	lwi	r9, r1, 60
90012040:	eac1004c 	lwi	r22, r1, 76
90012044:	eae10050 	lwi	r23, r1, 80
90012048:	14c32000 	rsubk	r6, r3, r4
9001204c:	16564003 	cmpu	r18, r22, r8
90012050:	be5200cc 	bltid	r18, 204		// 9001211c
90012054:	f8c10034 	swi	r6, r1, 52
90012058:	1648b000 	rsubk	r18, r8, r22
9001205c:	bc1200b8 	beqi	r18, 184		// 90012114
90012060:	b0001000 	imm	4096
90012064:	31400000 	addik	r10, r0, 0
90012068:	31600000 	addik	r11, r0, 0
9001206c:	33000000 	addik	r24, r0, 0
90012070:	33200000 	addik	r25, r0, 0
90012074:	b810004c 	brid	76		// 900120c0
90012078:	11800000 	addk	r12, r0, r0
9001207c:	05374800 	rsub	r9, r23, r9
90012080:	0d164000 	rsubc	r8, r22, r8
90012084:	83185000 	or	r24, r24, r10
90012088:	83395800 	or	r25, r25, r11
9001208c:	90ab0041 	srl	r5, r11
90012090:	80a32800 	or	r5, r3, r5
90012094:	6469001f 	bsrli	r3, r9, 31
90012098:	10c84000 	addk	r6, r8, r8
9001209c:	908a0041 	srl	r4, r10
900120a0:	80c33000 	or	r6, r3, r6
900120a4:	10e94800 	addk	r7, r9, r9
900120a8:	11440000 	addk	r10, r4, r0
900120ac:	11650000 	addk	r11, r5, r0
900120b0:	11060000 	addk	r8, r6, r0
900120b4:	aa4c003d 	xori	r18, r12, 61
900120b8:	be120038 	beqid	r18, 56		// 900120f0
900120bc:	11270000 	addk	r9, r7, r0
900120c0:	318c0001 	addik	r12, r12, 1
900120c4:	16564003 	cmpu	r18, r22, r8
900120c8:	be52ffc4 	bltid	r18, -60		// 9001208c
900120cc:	646a041f 	bslli	r3, r10, 31
900120d0:	1648b000 	rsubk	r18, r8, r22
900120d4:	bc32ffa8 	bnei	r18, -88		// 9001207c
900120d8:	16574803 	cmpu	r18, r23, r9
900120dc:	be52ffb4 	bltid	r18, -76		// 90012090
900120e0:	90ab0041 	srl	r5, r11
900120e4:	b800ff98 	bri	-104		// 9001207c
900120e8:	b810fefc 	brid	-260		// 90011fe4
900120ec:	f861002c 	swi	r3, r1, 44
900120f0:	a4980000 	andi	r4, r24, 0
900120f4:	a4b900ff 	andi	r5, r25, 255
900120f8:	bc24000c 	bnei	r4, 12		// 90012104
900120fc:	aa450080 	xori	r18, r5, 128
90012100:	bc120040 	beqi	r18, 64		// 90012140
90012104:	fb010038 	swi	r24, r1, 56
90012108:	fb21003c 	swi	r25, r1, 60
9001210c:	b810fed8 	brid	-296		// 90011fe4
90012110:	10b30000 	addk	r5, r19, r0
90012114:	16574803 	cmpu	r18, r23, r9
90012118:	bcb2ff48 	bgei	r18, -184		// 90012060
9001211c:	6469001f 	bsrli	r3, r9, 31
90012120:	10884000 	addk	r4, r8, r8
90012124:	80832000 	or	r4, r3, r4
90012128:	10a94800 	addk	r5, r9, r9
9001212c:	11040000 	addk	r8, r4, r0
90012130:	11250000 	addk	r9, r5, r0
90012134:	3066ffff 	addik	r3, r6, -1
90012138:	b810ff28 	brid	-216		// 90012060
9001213c:	f8610034 	swi	r3, r1, 52
90012140:	a4980000 	andi	r4, r24, 0
90012144:	a4b90100 	andi	r5, r25, 256
90012148:	80842800 	or	r4, r4, r5
9001214c:	be24ffb8 	bneid	r4, -72		// 90012104
90012150:	80663800 	or	r3, r6, r7
90012154:	bc03ffb0 	beqi	r3, -80		// 90012104
90012158:	20b90080 	addi	r5, r25, 128
9001215c:	28980000 	addic	r4, r24, 0
90012160:	a704ffff 	andi	r24, r4, -1
90012164:	a725ff00 	andi	r25, r5, -256
90012168:	b800ff9c 	bri	-100		// 90012104

9001216c <__eqdf2>:
9001216c:	3021ff9c 	addik	r1, r1, -100
90012170:	fb010060 	swi	r24, r1, 96
90012174:	3301002c 	addik	r24, r1, 44
90012178:	11450000 	addk	r10, r5, r0
9001217c:	11660000 	addk	r11, r6, r0
90012180:	fac10058 	swi	r22, r1, 88
90012184:	fae1005c 	swi	r23, r1, 92
90012188:	12c70000 	addk	r22, r7, r0
9001218c:	12e80000 	addk	r23, r8, r0
90012190:	10d80000 	addk	r6, r24, r0
90012194:	fa610054 	swi	r19, r1, 84
90012198:	30a1001c 	addik	r5, r1, 28
9001219c:	f9e10000 	swi	r15, r1, 0
900121a0:	f941001c 	swi	r10, r1, 28
900121a4:	f9610020 	swi	r11, r1, 32
900121a8:	fac10024 	swi	r22, r1, 36
900121ac:	fae10028 	swi	r23, r1, 40
900121b0:	b9f40ae4 	brlid	r15, 2788	// 90012c94 <__unpack_d>
900121b4:	32610040 	addik	r19, r1, 64
900121b8:	10d30000 	addk	r6, r19, r0
900121bc:	b9f40ad8 	brlid	r15, 2776	// 90012c94 <__unpack_d>
900121c0:	30a10024 	addik	r5, r1, 36
900121c4:	e861002c 	lwi	r3, r1, 44
900121c8:	22400001 	addi	r18, r0, 1
900121cc:	16439003 	cmpu	r18, r3, r18
900121d0:	beb20020 	bgeid	r18, 32		// 900121f0
900121d4:	30800001 	addik	r4, r0, 1
900121d8:	e8610040 	lwi	r3, r1, 64
900121dc:	10b80000 	addk	r5, r24, r0
900121e0:	22400001 	addi	r18, r0, 1
900121e4:	16439003 	cmpu	r18, r3, r18
900121e8:	be520028 	bltid	r18, 40		// 90012210
900121ec:	10d30000 	addk	r6, r19, r0
900121f0:	10640000 	addk	r3, r4, r0
900121f4:	e9e10000 	lwi	r15, r1, 0
900121f8:	ea610054 	lwi	r19, r1, 84
900121fc:	eac10058 	lwi	r22, r1, 88
90012200:	eae1005c 	lwi	r23, r1, 92
90012204:	eb010060 	lwi	r24, r1, 96
90012208:	b60f0008 	rtsd	r15, 8
9001220c:	30210064 	addik	r1, r1, 100
90012210:	b9f40bc4 	brlid	r15, 3012	// 90012dd4 <__fpcmp_parts_d>
90012214:	80000000 	or	r0, r0, r0
90012218:	b810ffd8 	brid	-40		// 900121f0
9001221c:	10830000 	addk	r4, r3, r0

90012220 <__nedf2>:
90012220:	3021ff9c 	addik	r1, r1, -100
90012224:	fb010060 	swi	r24, r1, 96
90012228:	3301002c 	addik	r24, r1, 44
9001222c:	11450000 	addk	r10, r5, r0
90012230:	11660000 	addk	r11, r6, r0
90012234:	fac10058 	swi	r22, r1, 88
90012238:	fae1005c 	swi	r23, r1, 92
9001223c:	12c70000 	addk	r22, r7, r0
90012240:	12e80000 	addk	r23, r8, r0
90012244:	10d80000 	addk	r6, r24, r0
90012248:	fa610054 	swi	r19, r1, 84
9001224c:	30a1001c 	addik	r5, r1, 28
90012250:	f9e10000 	swi	r15, r1, 0
90012254:	f941001c 	swi	r10, r1, 28
90012258:	f9610020 	swi	r11, r1, 32
9001225c:	fac10024 	swi	r22, r1, 36
90012260:	fae10028 	swi	r23, r1, 40
90012264:	b9f40a30 	brlid	r15, 2608	// 90012c94 <__unpack_d>
90012268:	32610040 	addik	r19, r1, 64
9001226c:	10d30000 	addk	r6, r19, r0
90012270:	b9f40a24 	brlid	r15, 2596	// 90012c94 <__unpack_d>
90012274:	30a10024 	addik	r5, r1, 36
90012278:	e861002c 	lwi	r3, r1, 44
9001227c:	22400001 	addi	r18, r0, 1
90012280:	16439003 	cmpu	r18, r3, r18
90012284:	beb20020 	bgeid	r18, 32		// 900122a4
90012288:	30800001 	addik	r4, r0, 1
9001228c:	e8610040 	lwi	r3, r1, 64
90012290:	10b80000 	addk	r5, r24, r0
90012294:	22400001 	addi	r18, r0, 1
90012298:	16439003 	cmpu	r18, r3, r18
9001229c:	be520028 	bltid	r18, 40		// 900122c4
900122a0:	10d30000 	addk	r6, r19, r0
900122a4:	10640000 	addk	r3, r4, r0
900122a8:	e9e10000 	lwi	r15, r1, 0
900122ac:	ea610054 	lwi	r19, r1, 84
900122b0:	eac10058 	lwi	r22, r1, 88
900122b4:	eae1005c 	lwi	r23, r1, 92
900122b8:	eb010060 	lwi	r24, r1, 96
900122bc:	b60f0008 	rtsd	r15, 8
900122c0:	30210064 	addik	r1, r1, 100
900122c4:	b9f40b10 	brlid	r15, 2832	// 90012dd4 <__fpcmp_parts_d>
900122c8:	80000000 	or	r0, r0, r0
900122cc:	b810ffd8 	brid	-40		// 900122a4
900122d0:	10830000 	addk	r4, r3, r0

900122d4 <__gtdf2>:
900122d4:	3021ff9c 	addik	r1, r1, -100
900122d8:	fb010060 	swi	r24, r1, 96
900122dc:	3301002c 	addik	r24, r1, 44
900122e0:	11450000 	addk	r10, r5, r0
900122e4:	11660000 	addk	r11, r6, r0
900122e8:	fac10058 	swi	r22, r1, 88
900122ec:	fae1005c 	swi	r23, r1, 92
900122f0:	12c70000 	addk	r22, r7, r0
900122f4:	12e80000 	addk	r23, r8, r0
900122f8:	10d80000 	addk	r6, r24, r0
900122fc:	fa610054 	swi	r19, r1, 84
90012300:	30a1001c 	addik	r5, r1, 28
90012304:	f9e10000 	swi	r15, r1, 0
90012308:	f941001c 	swi	r10, r1, 28
9001230c:	f9610020 	swi	r11, r1, 32
90012310:	fac10024 	swi	r22, r1, 36
90012314:	fae10028 	swi	r23, r1, 40
90012318:	b9f4097c 	brlid	r15, 2428	// 90012c94 <__unpack_d>
9001231c:	32610040 	addik	r19, r1, 64
90012320:	10d30000 	addk	r6, r19, r0
90012324:	b9f40970 	brlid	r15, 2416	// 90012c94 <__unpack_d>
90012328:	30a10024 	addik	r5, r1, 36
9001232c:	e861002c 	lwi	r3, r1, 44
90012330:	22400001 	addi	r18, r0, 1
90012334:	16439003 	cmpu	r18, r3, r18
90012338:	be520028 	bltid	r18, 40		// 90012360
9001233c:	3080ffff 	addik	r4, r0, -1
90012340:	10640000 	addk	r3, r4, r0
90012344:	e9e10000 	lwi	r15, r1, 0
90012348:	ea610054 	lwi	r19, r1, 84
9001234c:	eac10058 	lwi	r22, r1, 88
90012350:	eae1005c 	lwi	r23, r1, 92
90012354:	eb010060 	lwi	r24, r1, 96
90012358:	b60f0008 	rtsd	r15, 8
9001235c:	30210064 	addik	r1, r1, 100
90012360:	e8610040 	lwi	r3, r1, 64
90012364:	10b80000 	addk	r5, r24, r0
90012368:	22400001 	addi	r18, r0, 1
9001236c:	16439003 	cmpu	r18, r3, r18
90012370:	beb2ffd0 	bgeid	r18, -48		// 90012340
90012374:	10d30000 	addk	r6, r19, r0
90012378:	b9f40a5c 	brlid	r15, 2652	// 90012dd4 <__fpcmp_parts_d>
9001237c:	80000000 	or	r0, r0, r0
90012380:	b810ffc0 	brid	-64		// 90012340
90012384:	10830000 	addk	r4, r3, r0

90012388 <__gedf2>:
90012388:	3021ff9c 	addik	r1, r1, -100
9001238c:	fb010060 	swi	r24, r1, 96
90012390:	3301002c 	addik	r24, r1, 44
90012394:	11450000 	addk	r10, r5, r0
90012398:	11660000 	addk	r11, r6, r0
9001239c:	fac10058 	swi	r22, r1, 88
900123a0:	fae1005c 	swi	r23, r1, 92
900123a4:	12c70000 	addk	r22, r7, r0
900123a8:	12e80000 	addk	r23, r8, r0
900123ac:	10d80000 	addk	r6, r24, r0
900123b0:	fa610054 	swi	r19, r1, 84
900123b4:	30a1001c 	addik	r5, r1, 28
900123b8:	f9e10000 	swi	r15, r1, 0
900123bc:	f941001c 	swi	r10, r1, 28
900123c0:	f9610020 	swi	r11, r1, 32
900123c4:	fac10024 	swi	r22, r1, 36
900123c8:	fae10028 	swi	r23, r1, 40
900123cc:	b9f408c8 	brlid	r15, 2248	// 90012c94 <__unpack_d>
900123d0:	32610040 	addik	r19, r1, 64
900123d4:	10d30000 	addk	r6, r19, r0
900123d8:	b9f408bc 	brlid	r15, 2236	// 90012c94 <__unpack_d>
900123dc:	30a10024 	addik	r5, r1, 36
900123e0:	e861002c 	lwi	r3, r1, 44
900123e4:	22400001 	addi	r18, r0, 1
900123e8:	16439003 	cmpu	r18, r3, r18
900123ec:	be520028 	bltid	r18, 40		// 90012414
900123f0:	3080ffff 	addik	r4, r0, -1
900123f4:	10640000 	addk	r3, r4, r0
900123f8:	e9e10000 	lwi	r15, r1, 0
900123fc:	ea610054 	lwi	r19, r1, 84
90012400:	eac10058 	lwi	r22, r1, 88
90012404:	eae1005c 	lwi	r23, r1, 92
90012408:	eb010060 	lwi	r24, r1, 96
9001240c:	b60f0008 	rtsd	r15, 8
90012410:	30210064 	addik	r1, r1, 100
90012414:	e8610040 	lwi	r3, r1, 64
90012418:	10b80000 	addk	r5, r24, r0
9001241c:	22400001 	addi	r18, r0, 1
90012420:	16439003 	cmpu	r18, r3, r18
90012424:	beb2ffd0 	bgeid	r18, -48		// 900123f4
90012428:	10d30000 	addk	r6, r19, r0
9001242c:	b9f409a8 	brlid	r15, 2472	// 90012dd4 <__fpcmp_parts_d>
90012430:	80000000 	or	r0, r0, r0
90012434:	b810ffc0 	brid	-64		// 900123f4
90012438:	10830000 	addk	r4, r3, r0

9001243c <__ltdf2>:
9001243c:	3021ff9c 	addik	r1, r1, -100
90012440:	fb010060 	swi	r24, r1, 96
90012444:	3301002c 	addik	r24, r1, 44
90012448:	11450000 	addk	r10, r5, r0
9001244c:	11660000 	addk	r11, r6, r0
90012450:	fac10058 	swi	r22, r1, 88
90012454:	fae1005c 	swi	r23, r1, 92
90012458:	12c70000 	addk	r22, r7, r0
9001245c:	12e80000 	addk	r23, r8, r0
90012460:	10d80000 	addk	r6, r24, r0
90012464:	fa610054 	swi	r19, r1, 84
90012468:	30a1001c 	addik	r5, r1, 28
9001246c:	f9e10000 	swi	r15, r1, 0
90012470:	f941001c 	swi	r10, r1, 28
90012474:	f9610020 	swi	r11, r1, 32
90012478:	fac10024 	swi	r22, r1, 36
9001247c:	fae10028 	swi	r23, r1, 40
90012480:	b9f40814 	brlid	r15, 2068	// 90012c94 <__unpack_d>
90012484:	32610040 	addik	r19, r1, 64
90012488:	10d30000 	addk	r6, r19, r0
9001248c:	b9f40808 	brlid	r15, 2056	// 90012c94 <__unpack_d>
90012490:	30a10024 	addik	r5, r1, 36
90012494:	e861002c 	lwi	r3, r1, 44
90012498:	22400001 	addi	r18, r0, 1
9001249c:	16439003 	cmpu	r18, r3, r18
900124a0:	beb20020 	bgeid	r18, 32		// 900124c0
900124a4:	30800001 	addik	r4, r0, 1
900124a8:	e8610040 	lwi	r3, r1, 64
900124ac:	10b80000 	addk	r5, r24, r0
900124b0:	22400001 	addi	r18, r0, 1
900124b4:	16439003 	cmpu	r18, r3, r18
900124b8:	be520028 	bltid	r18, 40		// 900124e0
900124bc:	10d30000 	addk	r6, r19, r0
900124c0:	10640000 	addk	r3, r4, r0
900124c4:	e9e10000 	lwi	r15, r1, 0
900124c8:	ea610054 	lwi	r19, r1, 84
900124cc:	eac10058 	lwi	r22, r1, 88
900124d0:	eae1005c 	lwi	r23, r1, 92
900124d4:	eb010060 	lwi	r24, r1, 96
900124d8:	b60f0008 	rtsd	r15, 8
900124dc:	30210064 	addik	r1, r1, 100
900124e0:	b9f408f4 	brlid	r15, 2292	// 90012dd4 <__fpcmp_parts_d>
900124e4:	80000000 	or	r0, r0, r0
900124e8:	b810ffd8 	brid	-40		// 900124c0
900124ec:	10830000 	addk	r4, r3, r0

900124f0 <__floatsidf>:
900124f0:	3021ffd0 	addik	r1, r1, -48
900124f4:	30600003 	addik	r3, r0, 3
900124f8:	f9e10000 	swi	r15, r1, 0
900124fc:	f861001c 	swi	r3, r1, 28
90012500:	be4500fc 	bltid	r5, 252		// 900125fc
90012504:	f8010020 	swi	r0, r1, 32
90012508:	be250034 	bneid	r5, 52		// 9001253c
9001250c:	e8610020 	lwi	r3, r1, 32
90012510:	30600002 	addik	r3, r0, 2
90012514:	f861001c 	swi	r3, r1, 28
90012518:	b9f40474 	brlid	r15, 1140	// 9001298c <__pack_d>
9001251c:	30a1001c 	addik	r5, r1, 28
90012520:	10c30000 	addk	r6, r3, r0
90012524:	10e40000 	addk	r7, r4, r0
90012528:	10660000 	addk	r3, r6, r0
9001252c:	10870000 	addk	r4, r7, r0
90012530:	e9e10000 	lwi	r15, r1, 0
90012534:	b60f0008 	rtsd	r15, 8
90012538:	30210030 	addik	r1, r1, 48
9001253c:	3100003c 	addik	r8, r0, 60
90012540:	be03009c 	beqid	r3, 156		// 900125dc
90012544:	f9010024 	swi	r8, r1, 36
90012548:	b000c1e0 	imm	-15904
9001254c:	30c00000 	addik	r6, r0, 0
90012550:	30e00000 	addik	r7, r0, 0
90012554:	b0008000 	imm	-32768
90012558:	aa450000 	xori	r18, r5, 0
9001255c:	be12ffcc 	beqid	r18, -52		// 90012528
90012560:	14850000 	rsubk	r4, r5, r0
90012564:	10a02000 	addk	r5, r0, r4
90012568:	00852800 	add	r4, r5, r5
9001256c:	08800000 	addc	r4, r0, r0
90012570:	bc040008 	beqi	r4, 8		// 90012578
90012574:	2080ffff 	addi	r4, r0, -1
90012578:	f8810028 	swi	r4, r1, 40
9001257c:	f8a1002c 	swi	r5, r1, 44
90012580:	e8c10028 	lwi	r6, r1, 40
90012584:	e8e1002c 	lwi	r7, r1, 44
90012588:	b0000fff 	imm	4095
9001258c:	2240ffff 	addi	r18, r0, -1
90012590:	16469003 	cmpu	r18, r6, r18
90012594:	be52ff84 	bltid	r18, -124		// 90012518
90012598:	e9010024 	lwi	r8, r1, 36
9001259c:	6487001f 	bsrli	r4, r7, 31
900125a0:	10663000 	addk	r3, r6, r6
900125a4:	80632000 	or	r3, r3, r4
900125a8:	10a73800 	addk	r5, r7, r7
900125ac:	f8610028 	swi	r3, r1, 40
900125b0:	f8a1002c 	swi	r5, r1, 44
900125b4:	e8c10028 	lwi	r6, r1, 40
900125b8:	e8e1002c 	lwi	r7, r1, 44
900125bc:	3068ffff 	addik	r3, r8, -1
900125c0:	11030000 	addk	r8, r3, r0
900125c4:	b0000fff 	imm	4095
900125c8:	2240ffff 	addi	r18, r0, -1
900125cc:	16469003 	cmpu	r18, r6, r18
900125d0:	beb2ffcc 	bgeid	r18, -52		// 9001259c
900125d4:	f8610024 	swi	r3, r1, 36
900125d8:	b800ff40 	bri	-192		// 90012518
900125dc:	10a02800 	addk	r5, r0, r5
900125e0:	00852800 	add	r4, r5, r5
900125e4:	08800000 	addc	r4, r0, r0
900125e8:	bc040008 	beqi	r4, 8		// 900125f0
900125ec:	2080ffff 	addi	r4, r0, -1
900125f0:	f8810028 	swi	r4, r1, 40
900125f4:	f8a1002c 	swi	r5, r1, 44
900125f8:	b800ff88 	bri	-120		// 90012580
900125fc:	30600001 	addik	r3, r0, 1
90012600:	b810ff08 	brid	-248		// 90012508
90012604:	f8610020 	swi	r3, r1, 32

90012608 <__fixdfsi>:
90012608:	11050000 	addk	r8, r5, r0
9001260c:	11260000 	addk	r9, r6, r0
90012610:	3021ffc8 	addik	r1, r1, -56
90012614:	30a1001c 	addik	r5, r1, 28
90012618:	f9e10000 	swi	r15, r1, 0
9001261c:	f901001c 	swi	r8, r1, 28
90012620:	f9210020 	swi	r9, r1, 32
90012624:	b9f40670 	brlid	r15, 1648	// 90012c94 <__unpack_d>
90012628:	30c10024 	addik	r6, r1, 36
9001262c:	e8610024 	lwi	r3, r1, 36
90012630:	aa430002 	xori	r18, r3, 2
90012634:	be120040 	beqid	r18, 64		// 90012674
90012638:	10800000 	addk	r4, r0, r0
9001263c:	22400001 	addi	r18, r0, 1
90012640:	16439003 	cmpu	r18, r3, r18
90012644:	bcb20030 	bgei	r18, 48		// 90012674
90012648:	aa430004 	xori	r18, r3, 4
9001264c:	be320038 	bneid	r18, 56		// 90012684
90012650:	e861002c 	lwi	r3, r1, 44
90012654:	e8610028 	lwi	r3, r1, 40
90012658:	b0007fff 	imm	32767
9001265c:	3080ffff 	addik	r4, r0, -1
90012660:	bc030014 	beqi	r3, 20		// 90012674
90012664:	b0008000 	imm	-32768
90012668:	30800000 	addik	r4, r0, 0
9001266c:	b810000c 	brid	12		// 90012678
90012670:	10640000 	addk	r3, r4, r0
90012674:	10640000 	addk	r3, r4, r0
90012678:	e9e10000 	lwi	r15, r1, 0
9001267c:	b60f0008 	rtsd	r15, 8
90012680:	30210038 	addik	r1, r1, 56
90012684:	be43fff0 	bltid	r3, -16		// 90012674
90012688:	10800000 	addk	r4, r0, r0
9001268c:	3240001e 	addik	r18, r0, 30
90012690:	16439001 	cmp	r18, r3, r18
90012694:	be52ffc0 	bltid	r18, -64		// 90012654
90012698:	34e3003c 	rsubik	r7, r3, 60
9001269c:	a4670020 	andi	r3, r7, 32
900126a0:	be030024 	beqid	r3, 36		// 900126c4
900126a4:	e8c10030 	lwi	r6, r1, 48
900126a8:	e8610030 	lwi	r3, r1, 48
900126ac:	45233800 	bsrl	r9, r3, r7
900126b0:	e8610028 	lwi	r3, r1, 40
900126b4:	be03ffc0 	beqid	r3, -64		// 90012674
900126b8:	10890000 	addk	r4, r9, r0
900126bc:	b810ffb8 	brid	-72		// 90012674
900126c0:	14890000 	rsubk	r4, r9, r0
900126c4:	e8810034 	lwi	r4, r1, 52
900126c8:	a8a7ffff 	xori	r5, r7, -1
900126cc:	10663000 	addk	r3, r6, r6
900126d0:	44632c00 	bsll	r3, r3, r5
900126d4:	45243800 	bsrl	r9, r4, r7
900126d8:	b810ffd8 	brid	-40		// 900126b0
900126dc:	81234800 	or	r9, r3, r9

900126e0 <__umodsi3>:
900126e0:	3021fff4 	addik	r1, r1, -12
900126e4:	fba10000 	swi	r29, r1, 0
900126e8:	fbc10004 	swi	r30, r1, 4
900126ec:	fbe10008 	swi	r31, r1, 8
900126f0:	bc060094 	beqi	r6, 148		// 90012784
900126f4:	be050090 	beqid	r5, 144		// 90012784
900126f8:	30600000 	addik	r3, r0, 0
900126fc:	33c00000 	addik	r30, r0, 0
90012700:	33a00020 	addik	r29, r0, 32	// 20 <_vector_hw_exception>
90012704:	06453000 	rsub	r18, r5, r6
90012708:	bc120080 	beqi	r18, 128		// 90012788
9001270c:	8a453000 	xor	r18, r5, r6
90012710:	beb20010 	bgeid	r18, 16		// 90012720
90012714:	30650000 	addik	r3, r5, 0
90012718:	bc460070 	blti	r6, 112		// 90012788
9001271c:	b800000c 	bri	12		// 90012728
90012720:	06453000 	rsub	r18, r5, r6
90012724:	bc920064 	bgti	r18, 100		// 90012788
90012728:	be860020 	bgtid	r6, 32		// 90012748
9001272c:	30600000 	addik	r3, r0, 0
90012730:	b0007fff 	imm	32767
90012734:	3240ffff 	addik	r18, r0, -1
90012738:	84a59000 	and	r5, r5, r18
9001273c:	84c69000 	and	r6, r6, r18
90012740:	b8100048 	brid	72		// 90012788
90012744:	04662800 	rsub	r3, r6, r5
90012748:	bc450010 	blti	r5, 16		// 90012758
9001274c:	00a52800 	add	r5, r5, r5
90012750:	bea5fffc 	bgeid	r5, -4		// 9001274c
90012754:	33bdffff 	addik	r29, r29, -1
90012758:	00a52800 	add	r5, r5, r5
9001275c:	08631800 	addc	r3, r3, r3
90012760:	07e61800 	rsub	r31, r6, r3
90012764:	bc5f000c 	blti	r31, 12		// 90012770
90012768:	8060f800 	or	r3, r0, r31
9001276c:	33de0001 	addik	r30, r30, 1
90012770:	33bdffff 	addik	r29, r29, -1
90012774:	bc1d000c 	beqi	r29, 12		// 90012780
90012778:	03def000 	add	r30, r30, r30
9001277c:	b800ffdc 	bri	-36		// 90012758
90012780:	b8000008 	bri	8		// 90012788
90012784:	80600000 	or	r3, r0, r0
90012788:	eba10000 	lwi	r29, r1, 0
9001278c:	ebc10004 	lwi	r30, r1, 4
90012790:	ebe10008 	lwi	r31, r1, 8
90012794:	b60f0008 	rtsd	r15, 8
90012798:	3021000c 	addik	r1, r1, 12

9001279c <__divsi3>:
9001279c:	3021fff0 	addik	r1, r1, -16
900127a0:	fb810000 	swi	r28, r1, 0
900127a4:	fba10004 	swi	r29, r1, 4
900127a8:	fbc10008 	swi	r30, r1, 8
900127ac:	fbe1000c 	swi	r31, r1, 12
900127b0:	bc06006c 	beqi	r6, 108		// 9001281c
900127b4:	bc050068 	beqi	r5, 104		// 9001281c
900127b8:	bea5000c 	bgeid	r5, 12		// 900127c4
900127bc:	8b853000 	xor	r28, r5, r6
900127c0:	24a50000 	rsubi	r5, r5, 0
900127c4:	bca60008 	bgei	r6, 8		// 900127cc
900127c8:	24c60000 	rsubi	r6, r6, 0
900127cc:	33c00000 	addik	r30, r0, 0
900127d0:	30600000 	addik	r3, r0, 0
900127d4:	33a00020 	addik	r29, r0, 32	// 20 <_vector_hw_exception>
900127d8:	bc450010 	blti	r5, 16		// 900127e8
900127dc:	00a52800 	add	r5, r5, r5
900127e0:	be85fffc 	bgtid	r5, -4		// 900127dc
900127e4:	33bdffff 	addik	r29, r29, -1
900127e8:	00a52800 	add	r5, r5, r5
900127ec:	0bdef000 	addc	r30, r30, r30
900127f0:	07e6f000 	rsub	r31, r6, r30
900127f4:	bc5f000c 	blti	r31, 12		// 90012800
900127f8:	83c0f800 	or	r30, r0, r31
900127fc:	30630001 	addik	r3, r3, 1
90012800:	33bdffff 	addik	r29, r29, -1
90012804:	bc1d000c 	beqi	r29, 12		// 90012810
90012808:	00631800 	add	r3, r3, r3
9001280c:	b800ffdc 	bri	-36		// 900127e8
90012810:	bcbc0010 	bgei	r28, 16		// 90012820
90012814:	b810000c 	brid	12		// 90012820
90012818:	24630000 	rsubi	r3, r3, 0
9001281c:	80600000 	or	r3, r0, r0
90012820:	eb810000 	lwi	r28, r1, 0
90012824:	eba10004 	lwi	r29, r1, 4
90012828:	ebc10008 	lwi	r30, r1, 8
9001282c:	ebe1000c 	lwi	r31, r1, 12
90012830:	b60f0008 	rtsd	r15, 8
90012834:	30210010 	addik	r1, r1, 16

90012838 <__udivsi3>:
90012838:	3021fff4 	addik	r1, r1, -12
9001283c:	fba10000 	swi	r29, r1, 0
90012840:	fbc10004 	swi	r30, r1, 4
90012844:	fbe10008 	swi	r31, r1, 8
90012848:	bc060080 	beqi	r6, 128		// 900128c8
9001284c:	be05007c 	beqid	r5, 124		// 900128c8
90012850:	33c00000 	addik	r30, r0, 0
90012854:	33a00020 	addik	r29, r0, 32	// 20 <_vector_hw_exception>
90012858:	06453000 	rsub	r18, r5, r6
9001285c:	be120070 	beqid	r18, 112		// 900128cc
90012860:	30600001 	addik	r3, r0, 1
90012864:	8a453000 	xor	r18, r5, r6
90012868:	beb20010 	bgeid	r18, 16		// 90012878
9001286c:	00600000 	add	r3, r0, r0
90012870:	bc46005c 	blti	r6, 92		// 900128cc
90012874:	b800000c 	bri	12		// 90012880
90012878:	06462800 	rsub	r18, r6, r5
9001287c:	bc520050 	blti	r18, 80		// 900128cc
90012880:	bc86000c 	bgti	r6, 12		// 9001288c
90012884:	b8100048 	brid	72		// 900128cc
90012888:	30600001 	addik	r3, r0, 1
9001288c:	bc450010 	blti	r5, 16		// 9001289c
90012890:	00a52800 	add	r5, r5, r5
90012894:	be85fffc 	bgtid	r5, -4		// 90012890
90012898:	33bdffff 	addik	r29, r29, -1
9001289c:	00a52800 	add	r5, r5, r5
900128a0:	0bdef000 	addc	r30, r30, r30
900128a4:	07e6f000 	rsub	r31, r6, r30
900128a8:	bc5f000c 	blti	r31, 12		// 900128b4
900128ac:	83c0f800 	or	r30, r0, r31
900128b0:	30630001 	addik	r3, r3, 1
900128b4:	33bdffff 	addik	r29, r29, -1
900128b8:	bc1d000c 	beqi	r29, 12		// 900128c4
900128bc:	00631800 	add	r3, r3, r3
900128c0:	b800ffdc 	bri	-36		// 9001289c
900128c4:	b8000008 	bri	8		// 900128cc
900128c8:	80600000 	or	r3, r0, r0
900128cc:	eba10000 	lwi	r29, r1, 0
900128d0:	ebc10004 	lwi	r30, r1, 4
900128d4:	ebe10008 	lwi	r31, r1, 8
900128d8:	b60f0008 	rtsd	r15, 8
900128dc:	3021000c 	addik	r1, r1, 12

900128e0 <__muldi3>:
900128e0:	3021ffec 	addik	r1, r1, -20
900128e4:	b0000000 	imm	0
900128e8:	a486ffff 	andi	r4, r6, -1
900128ec:	65260010 	bsrli	r9, r6, 16
900128f0:	11680000 	addk	r11, r8, r0
900128f4:	fac10004 	swi	r22, r1, 4
900128f8:	12c50000 	addk	r22, r5, r0
900128fc:	b0000000 	imm	0
90012900:	a4a8ffff 	andi	r5, r8, -1
90012904:	65080010 	bsrli	r8, r8, 16
90012908:	40642800 	mul	r3, r4, r5
9001290c:	11470000 	addk	r10, r7, r0
90012910:	40a92800 	mul	r5, r9, r5
90012914:	40844000 	mul	r4, r4, r8
90012918:	41865000 	mul	r12, r6, r10
9001291c:	b0000000 	imm	0
90012920:	a543ffff 	andi	r10, r3, -1
90012924:	64630010 	bsrli	r3, r3, 16
90012928:	10842800 	addk	r4, r4, r5
9001292c:	10632000 	addk	r3, r3, r4
90012930:	fae10008 	swi	r23, r1, 8
90012934:	fb01000c 	swi	r24, r1, 12
90012938:	fb210010 	swi	r25, r1, 16
9001293c:	416bb000 	mul	r11, r11, r22
90012940:	64830010 	bsrli	r4, r3, 16
90012944:	64c30410 	bslli	r6, r3, 16
90012948:	16451803 	cmpu	r18, r5, r3
9001294c:	beb20010 	bgeid	r18, 16		// 9001295c
90012950:	41294000 	mul	r9, r9, r8
90012954:	b0000001 	imm	1
90012958:	31290000 	addik	r9, r9, 0
9001295c:	13092000 	addk	r24, r9, r4
90012960:	106cc000 	addk	r3, r12, r24
90012964:	13265000 	addk	r25, r6, r10
90012968:	10cb1800 	addk	r6, r11, r3
9001296c:	10990000 	addk	r4, r25, r0
90012970:	10660000 	addk	r3, r6, r0
90012974:	eac10004 	lwi	r22, r1, 4
90012978:	eae10008 	lwi	r23, r1, 8
9001297c:	eb01000c 	lwi	r24, r1, 12
90012980:	eb210010 	lwi	r25, r1, 16
90012984:	b60f0008 	rtsd	r15, 8
90012988:	30210014 	addik	r1, r1, 20

9001298c <__pack_d>:
9001298c:	3021fff0 	addik	r1, r1, -16
90012990:	fa610004 	swi	r19, r1, 4
90012994:	fac10008 	swi	r22, r1, 8
90012998:	fae1000c 	swi	r23, r1, 12
9001299c:	e8650000 	lwi	r3, r5, 0
900129a0:	e905000c 	lwi	r8, r5, 12
900129a4:	e9250010 	lwi	r9, r5, 16
900129a8:	22400001 	addi	r18, r0, 1
900129ac:	16439003 	cmpu	r18, r3, r18
900129b0:	be520070 	bltid	r18, 112		// 90012a20
900129b4:	ea650004 	lwi	r19, r5, 4
900129b8:	b0000008 	imm	8
900129bc:	a0880000 	ori	r4, r8, 0
900129c0:	a0a90000 	ori	r5, r9, 0
900129c4:	b000000f 	imm	15
900129c8:	a544ffff 	andi	r10, r4, -1
900129cc:	a565ffff 	andi	r11, r5, -1
900129d0:	b0007ff0 	imm	32752
900129d4:	31000000 	addik	r8, r0, 0
900129d8:	31200000 	addik	r9, r0, 0
900129dc:	10b30000 	addk	r5, r19, r0
900129e0:	10800000 	addk	r4, r0, r0
900129e4:	ea610004 	lwi	r19, r1, 4
900129e8:	a4840000 	andi	r4, r4, 0
900129ec:	a4a50001 	andi	r5, r5, 1
900129f0:	6485041f 	bslli	r4, r5, 31
900129f4:	10a00000 	addk	r5, r0, r0
900129f8:	808a2000 	or	r4, r10, r4
900129fc:	80ab2800 	or	r5, r11, r5
90012a00:	80c82000 	or	r6, r8, r4
90012a04:	80e92800 	or	r7, r9, r5
90012a08:	10660000 	addk	r3, r6, r0
90012a0c:	10870000 	addk	r4, r7, r0
90012a10:	eac10008 	lwi	r22, r1, 8
90012a14:	eae1000c 	lwi	r23, r1, 12
90012a18:	b60f0008 	rtsd	r15, 8
90012a1c:	30210010 	addik	r1, r1, 16
90012a20:	aa430004 	xori	r18, r3, 4
90012a24:	bc1200fc 	beqi	r18, 252		// 90012b20
90012a28:	aa430002 	xori	r18, r3, 2
90012a2c:	be120110 	beqid	r18, 272		// 90012b3c
90012a30:	80684800 	or	r3, r8, r9
90012a34:	bc030108 	beqi	r3, 264		// 90012b3c
90012a38:	e8850008 	lwi	r4, r5, 8
90012a3c:	3240fc02 	addik	r18, r0, -1022
90012a40:	16522001 	cmp	r18, r18, r4
90012a44:	beb2010c 	bgeid	r18, 268		// 90012b50
90012a48:	34a4fc02 	rsubik	r5, r4, -1022
90012a4c:	32400038 	addik	r18, r0, 56
90012a50:	16459001 	cmp	r18, r5, r18
90012a54:	bc520188 	blti	r18, 392		// 90012bdc
90012a58:	a5850020 	andi	r12, r5, 32
90012a5c:	be0c01b4 	beqid	r12, 436		// 90012c10
90012a60:	10684000 	addk	r3, r8, r8
90012a64:	45682800 	bsrl	r11, r8, r5
90012a68:	11400000 	addk	r10, r0, r0
90012a6c:	32c00000 	addik	r22, r0, 0
90012a70:	32e00000 	addik	r23, r0, 0
90012a74:	be0c01b4 	beqid	r12, 436		// 90012c28
90012a78:	30600001 	addik	r3, r0, 1
90012a7c:	44c32c00 	bsll	r6, r3, r5
90012a80:	10e00000 	addk	r7, r0, r0
90012a84:	20a7ffff 	addi	r5, r7, -1
90012a88:	2886ffff 	addic	r4, r6, -1
90012a8c:	84882000 	and	r4, r8, r4
90012a90:	84a92800 	and	r5, r9, r5
90012a94:	80842800 	or	r4, r4, r5
90012a98:	be040014 	beqid	r4, 20		// 90012aac
90012a9c:	810ab000 	or	r8, r10, r22
90012aa0:	32c00000 	addik	r22, r0, 0
90012aa4:	32e00001 	addik	r23, r0, 1
90012aa8:	810ab000 	or	r8, r10, r22
90012aac:	812bb800 	or	r9, r11, r23
90012ab0:	a4880000 	andi	r4, r8, 0
90012ab4:	a4a900ff 	andi	r5, r9, 255
90012ab8:	bc24000c 	bnei	r4, 12		// 90012ac4
90012abc:	aa450080 	xori	r18, r5, 128
90012ac0:	bc120174 	beqi	r18, 372		// 90012c34
90012ac4:	20a9007f 	addi	r5, r9, 127
90012ac8:	28880000 	addic	r4, r8, 0
90012acc:	b0000fff 	imm	4095
90012ad0:	2240ffff 	addi	r18, r0, -1
90012ad4:	16449003 	cmpu	r18, r4, r18
90012ad8:	beb2000c 	bgeid	r18, 12		// 90012ae4
90012adc:	10600000 	addk	r3, r0, r0
90012ae0:	30600001 	addik	r3, r0, 1
90012ae4:	11430000 	addk	r10, r3, r0
90012ae8:	64e50008 	bsrli	r7, r5, 8
90012aec:	64640418 	bslli	r3, r4, 24
90012af0:	64c40008 	bsrli	r6, r4, 8
90012af4:	80e33800 	or	r7, r3, r7
90012af8:	10aa0000 	addk	r5, r10, r0
90012afc:	10800000 	addk	r4, r0, r0
90012b00:	b000000f 	imm	15
90012b04:	a546ffff 	andi	r10, r6, -1
90012b08:	a567ffff 	andi	r11, r7, -1
90012b0c:	a4840000 	andi	r4, r4, 0
90012b10:	a4a507ff 	andi	r5, r5, 2047
90012b14:	65050414 	bslli	r8, r5, 20
90012b18:	b810fec4 	brid	-316		// 900129dc
90012b1c:	11200000 	addk	r9, r0, r0
90012b20:	31400000 	addik	r10, r0, 0
90012b24:	31600000 	addik	r11, r0, 0
90012b28:	b0007ff0 	imm	32752
90012b2c:	31000000 	addik	r8, r0, 0
90012b30:	31200000 	addik	r9, r0, 0
90012b34:	b810feac 	brid	-340		// 900129e0
90012b38:	10b30000 	addk	r5, r19, r0
90012b3c:	31000000 	addik	r8, r0, 0
90012b40:	31200000 	addik	r9, r0, 0
90012b44:	11480000 	addk	r10, r8, r0
90012b48:	b810fe94 	brid	-364		// 900129dc
90012b4c:	11690000 	addk	r11, r9, r0
90012b50:	324003ff 	addik	r18, r0, 1023
90012b54:	16449001 	cmp	r18, r4, r18
90012b58:	bc52ffc8 	blti	r18, -56		// 90012b20
90012b5c:	a4c80000 	andi	r6, r8, 0
90012b60:	a4e900ff 	andi	r7, r9, 255
90012b64:	be060088 	beqid	r6, 136		// 90012bec
90012b68:	314403ff 	addik	r10, r4, 1023
90012b6c:	2129007f 	addi	r9, r9, 127
90012b70:	29080000 	addic	r8, r8, 0
90012b74:	b0001fff 	imm	8191
90012b78:	2240ffff 	addi	r18, r0, -1
90012b7c:	16489003 	cmpu	r18, r8, r18
90012b80:	beb20028 	bgeid	r18, 40		// 90012ba8
90012b84:	10ea0000 	addk	r7, r10, r0
90012b88:	6468041f 	bslli	r3, r8, 31
90012b8c:	90a90041 	srl	r5, r9
90012b90:	80a32800 	or	r5, r3, r5
90012b94:	90880041 	srl	r4, r8
90012b98:	11040000 	addk	r8, r4, r0
90012b9c:	11250000 	addk	r9, r5, r0
90012ba0:	314a0001 	addik	r10, r10, 1
90012ba4:	10ea0000 	addk	r7, r10, r0
90012ba8:	64680418 	bslli	r3, r8, 24
90012bac:	64a90008 	bsrli	r5, r9, 8
90012bb0:	10c00000 	addk	r6, r0, r0
90012bb4:	64880008 	bsrli	r4, r8, 8
90012bb8:	a4c60000 	andi	r6, r6, 0
90012bbc:	a4e707ff 	andi	r7, r7, 2047
90012bc0:	80a32800 	or	r5, r3, r5
90012bc4:	65070414 	bslli	r8, r7, 20
90012bc8:	b000000f 	imm	15
90012bcc:	a544ffff 	andi	r10, r4, -1
90012bd0:	a565ffff 	andi	r11, r5, -1
90012bd4:	b810fe08 	brid	-504		// 900129dc
90012bd8:	11200000 	addk	r9, r0, r0
90012bdc:	30c00000 	addik	r6, r0, 0
90012be0:	30e00000 	addik	r7, r0, 0
90012be4:	b810ff14 	brid	-236		// 90012af8
90012be8:	11400000 	addk	r10, r0, r0
90012bec:	aa470080 	xori	r18, r7, 128
90012bf0:	bc32ff7c 	bnei	r18, -132		// 90012b6c
90012bf4:	a4880000 	andi	r4, r8, 0
90012bf8:	a4a90100 	andi	r5, r9, 256
90012bfc:	80842800 	or	r4, r4, r5
90012c00:	bc04ff74 	beqi	r4, -140		// 90012b74
90012c04:	21290080 	addi	r9, r9, 128
90012c08:	29080000 	addic	r8, r8, 0
90012c0c:	b800ff68 	bri	-152		// 90012b74
90012c10:	a885ffff 	xori	r4, r5, -1
90012c14:	44632400 	bsll	r3, r3, r4
90012c18:	45692800 	bsrl	r11, r9, r5
90012c1c:	45482800 	bsrl	r10, r8, r5
90012c20:	b810fe4c 	brid	-436		// 90012a6c
90012c24:	81635800 	or	r11, r3, r11
90012c28:	10cc0000 	addk	r6, r12, r0
90012c2c:	b810fe58 	brid	-424		// 90012a84
90012c30:	44e32c00 	bsll	r7, r3, r5
90012c34:	a4880000 	andi	r4, r8, 0
90012c38:	a4a90100 	andi	r5, r9, 256
90012c3c:	80842800 	or	r4, r4, r5
90012c40:	bc240030 	bnei	r4, 48		// 90012c70
90012c44:	b0000fff 	imm	4095
90012c48:	2240ffff 	addi	r18, r0, -1
90012c4c:	16489003 	cmpu	r18, r8, r18
90012c50:	beb2000c 	bgeid	r18, 12		// 90012c5c
90012c54:	64680418 	bslli	r3, r8, 24
90012c58:	30800001 	addik	r4, r0, 1
90012c5c:	64e90008 	bsrli	r7, r9, 8
90012c60:	11440000 	addk	r10, r4, r0
90012c64:	64c80008 	bsrli	r6, r8, 8
90012c68:	b810fe90 	brid	-368		// 90012af8
90012c6c:	80e33800 	or	r7, r3, r7
90012c70:	20a90080 	addi	r5, r9, 128
90012c74:	28880000 	addic	r4, r8, 0
90012c78:	b0000fff 	imm	4095
90012c7c:	2240ffff 	addi	r18, r0, -1
90012c80:	16449003 	cmpu	r18, r4, r18
90012c84:	beb2fe60 	bgeid	r18, -416		// 90012ae4
90012c88:	10600000 	addk	r3, r0, r0
90012c8c:	b810fe58 	brid	-424		// 90012ae4
90012c90:	30600001 	addik	r3, r0, 1

90012c94 <__unpack_d>:
90012c94:	e9050000 	lwi	r8, r5, 0
90012c98:	e9250004 	lwi	r9, r5, 4
90012c9c:	11460000 	addk	r10, r6, r0
90012ca0:	64e80014 	bsrli	r7, r8, 20
90012ca4:	64a8001f 	bsrli	r5, r8, 31
90012ca8:	a4c707ff 	andi	r6, r7, 2047
90012cac:	a4650001 	andi	r3, r5, 1
90012cb0:	b000000f 	imm	15
90012cb4:	a508ffff 	andi	r8, r8, -1
90012cb8:	a529ffff 	andi	r9, r9, -1
90012cbc:	be260088 	bneid	r6, 136		// 90012d44
90012cc0:	f86a0004 	swi	r3, r10, 4
90012cc4:	80684800 	or	r3, r8, r9
90012cc8:	be0300bc 	beqid	r3, 188		// 90012d84
90012ccc:	30600002 	addik	r3, r0, 2
90012cd0:	64690018 	bsrli	r3, r9, 24
90012cd4:	64c80408 	bslli	r6, r8, 8
90012cd8:	3080fc02 	addik	r4, r0, -1022
90012cdc:	80c33000 	or	r6, r3, r6
90012ce0:	30600003 	addik	r3, r0, 3
90012ce4:	64e90408 	bslli	r7, r9, 8
90012ce8:	f86a0000 	swi	r3, r10, 0
90012cec:	b0000fff 	imm	4095
90012cf0:	2240ffff 	addi	r18, r0, -1
90012cf4:	16469003 	cmpu	r18, r6, r18
90012cf8:	be52003c 	bltid	r18, 60		// 90012d34
90012cfc:	f88a0008 	swi	r4, r10, 8
90012d00:	11040000 	addk	r8, r4, r0
90012d04:	6467001f 	bsrli	r3, r7, 31
90012d08:	10863000 	addk	r4, r6, r6
90012d0c:	80832000 	or	r4, r3, r4
90012d10:	10a73800 	addk	r5, r7, r7
90012d14:	10c40000 	addk	r6, r4, r0
90012d18:	10e50000 	addk	r7, r5, r0
90012d1c:	b0000fff 	imm	4095
90012d20:	2240ffff 	addi	r18, r0, -1
90012d24:	16449003 	cmpu	r18, r4, r18
90012d28:	beb2ffdc 	bgeid	r18, -36		// 90012d04
90012d2c:	3108ffff 	addik	r8, r8, -1
90012d30:	f90a0008 	swi	r8, r10, 8
90012d34:	f8ca000c 	swi	r6, r10, 12
90012d38:	f8ea0010 	swi	r7, r10, 16
90012d3c:	b60f0008 	rtsd	r15, 8
90012d40:	80000000 	or	r0, r0, r0
90012d44:	aa4607ff 	xori	r18, r6, 2047
90012d48:	be120044 	beqid	r18, 68		// 90012d8c
90012d4c:	64690018 	bsrli	r3, r9, 24
90012d50:	64880408 	bslli	r4, r8, 8
90012d54:	64a90408 	bslli	r5, r9, 8
90012d58:	80832000 	or	r4, r3, r4
90012d5c:	30c6fc01 	addik	r6, r6, -1023
90012d60:	b0001000 	imm	4096
90012d64:	a0840000 	ori	r4, r4, 0
90012d68:	a0a50000 	ori	r5, r5, 0
90012d6c:	30600003 	addik	r3, r0, 3
90012d70:	f88a000c 	swi	r4, r10, 12
90012d74:	f8aa0010 	swi	r5, r10, 16
90012d78:	f8ca0008 	swi	r6, r10, 8
90012d7c:	b60f0008 	rtsd	r15, 8
90012d80:	f86a0000 	swi	r3, r10, 0
90012d84:	b60f0008 	rtsd	r15, 8
90012d88:	f86a0000 	swi	r3, r10, 0
90012d8c:	80684800 	or	r3, r8, r9
90012d90:	be230010 	bneid	r3, 16		// 90012da0
90012d94:	30600004 	addik	r3, r0, 4
90012d98:	b60f0008 	rtsd	r15, 8
90012d9c:	f86a0000 	swi	r3, r10, 0
90012da0:	b0000008 	imm	8
90012da4:	a4880000 	andi	r4, r8, 0
90012da8:	a4a90000 	andi	r5, r9, 0
90012dac:	80842800 	or	r4, r4, r5
90012db0:	be04001c 	beqid	r4, 28		// 90012dcc
90012db4:	30600001 	addik	r3, r0, 1
90012db8:	f86a0000 	swi	r3, r10, 0
90012dbc:	f90a000c 	swi	r8, r10, 12
90012dc0:	f92a0010 	swi	r9, r10, 16
90012dc4:	b60f0008 	rtsd	r15, 8
90012dc8:	80000000 	or	r0, r0, r0
90012dcc:	b810fff0 	brid	-16		// 90012dbc
90012dd0:	f88a0000 	swi	r4, r10, 0

90012dd4 <__fpcmp_parts_d>:
90012dd4:	e8650000 	lwi	r3, r5, 0
90012dd8:	22400001 	addi	r18, r0, 1
90012ddc:	16439003 	cmpu	r18, r3, r18
90012de0:	bcb2002c 	bgei	r18, 44		// 90012e0c
90012de4:	e8860000 	lwi	r4, r6, 0
90012de8:	22400001 	addi	r18, r0, 1
90012dec:	16449003 	cmpu	r18, r4, r18
90012df0:	bcb2001c 	bgei	r18, 28		// 90012e0c
90012df4:	aa430004 	xori	r18, r3, 4
90012df8:	bc32001c 	bnei	r18, 28		// 90012e14
90012dfc:	aa440004 	xori	r18, r4, 4
90012e00:	bc120048 	beqi	r18, 72		// 90012e48
90012e04:	e8650004 	lwi	r3, r5, 4
90012e08:	bc2300b4 	bnei	r3, 180		// 90012ebc
90012e0c:	b60f0008 	rtsd	r15, 8
90012e10:	30600001 	addik	r3, r0, 1
90012e14:	aa440004 	xori	r18, r4, 4
90012e18:	bc1200b0 	beqi	r18, 176		// 90012ec8
90012e1c:	aa430002 	xori	r18, r3, 2
90012e20:	bc120038 	beqi	r18, 56		// 90012e58
90012e24:	aa440002 	xori	r18, r4, 2
90012e28:	bc12ffdc 	beqi	r18, -36		// 90012e04
90012e2c:	e8850004 	lwi	r4, r5, 4
90012e30:	e8660004 	lwi	r3, r6, 4
90012e34:	16432000 	rsubk	r18, r3, r4
90012e38:	bc120030 	beqi	r18, 48		// 90012e68
90012e3c:	bc04ffd0 	beqi	r4, -48		// 90012e0c
90012e40:	b60f0008 	rtsd	r15, 8
90012e44:	3060ffff 	addik	r3, r0, -1
90012e48:	e8860004 	lwi	r4, r6, 4
90012e4c:	e8650004 	lwi	r3, r5, 4
90012e50:	b60f0008 	rtsd	r15, 8
90012e54:	14632000 	rsubk	r3, r3, r4
90012e58:	aa440002 	xori	r18, r4, 2
90012e5c:	bc32006c 	bnei	r18, 108		// 90012ec8
90012e60:	b60f0008 	rtsd	r15, 8
90012e64:	10600000 	addk	r3, r0, r0
90012e68:	e8e50008 	lwi	r7, r5, 8
90012e6c:	e8660008 	lwi	r3, r6, 8
90012e70:	16471801 	cmp	r18, r7, r3
90012e74:	bc52ffc8 	blti	r18, -56		// 90012e3c
90012e78:	16433801 	cmp	r18, r3, r7
90012e7c:	bc52003c 	blti	r18, 60		// 90012eb8
90012e80:	e905000c 	lwi	r8, r5, 12
90012e84:	e9250010 	lwi	r9, r5, 16
90012e88:	e8e60010 	lwi	r7, r6, 16
90012e8c:	e8c6000c 	lwi	r6, r6, 12
90012e90:	16483003 	cmpu	r18, r8, r6
90012e94:	bc52ffa8 	blti	r18, -88		// 90012e3c
90012e98:	16464000 	rsubk	r18, r6, r8
90012e9c:	bc12003c 	beqi	r18, 60		// 90012ed8
90012ea0:	16464003 	cmpu	r18, r6, r8
90012ea4:	bc520014 	blti	r18, 20		// 90012eb8
90012ea8:	16483000 	rsubk	r18, r8, r6
90012eac:	bc32ffb4 	bnei	r18, -76		// 90012e60
90012eb0:	16474803 	cmpu	r18, r7, r9
90012eb4:	bcb2ffac 	bgei	r18, -84		// 90012e60
90012eb8:	bc24ff54 	bnei	r4, -172		// 90012e0c
90012ebc:	3060ffff 	addik	r3, r0, -1
90012ec0:	b60f0008 	rtsd	r15, 8
90012ec4:	80000000 	or	r0, r0, r0
90012ec8:	e8660004 	lwi	r3, r6, 4
90012ecc:	bc23ff40 	bnei	r3, -192		// 90012e0c
90012ed0:	b60f0008 	rtsd	r15, 8
90012ed4:	3060ffff 	addik	r3, r0, -1
90012ed8:	16493803 	cmpu	r18, r9, r7
90012edc:	bcb2ffc4 	bgei	r18, -60		// 90012ea0
90012ee0:	b800ff5c 	bri	-164		// 90012e3c

90012ee4 <__do_global_ctors_aux>:
90012ee4:	b0009001 	imm	-28671
90012ee8:	e8603cbc 	lwi	r3, r0, 15548
90012eec:	3021ffe0 	addik	r1, r1, -32
90012ef0:	fa61001c 	swi	r19, r1, 28
90012ef4:	b0009001 	imm	-28671
90012ef8:	32603cbc 	addik	r19, r0, 15548
90012efc:	aa43ffff 	xori	r18, r3, -1
90012f00:	be12001c 	beqid	r18, 28		// 90012f1c
90012f04:	f9e10000 	swi	r15, r1, 0
90012f08:	99fc1800 	brald	r15, r3
90012f0c:	3273fffc 	addik	r19, r19, -4
90012f10:	e8730000 	lwi	r3, r19, 0
90012f14:	aa43ffff 	xori	r18, r3, -1
90012f18:	bc32fff0 	bnei	r18, -16		// 90012f08
90012f1c:	e9e10000 	lwi	r15, r1, 0
90012f20:	ea61001c 	lwi	r19, r1, 28
90012f24:	b60f0008 	rtsd	r15, 8
90012f28:	30210020 	addik	r1, r1, 32
Disassembly of section .init:

90012f2c <__init>:
90012f2c:	3021fff8 	addik	r1, r1, -8
90012f30:	d9e00800 	sw	r15, r0, r1
90012f34:	b00090a1 	imm	-28511
90012f38:	31607068 	addik	r11, r0, 28776
90012f3c:	940bc802 	mts	rshr, r11
90012f40:	b00090a1 	imm	-28511
90012f44:	3160507c 	addik	r11, r0, 20604
90012f48:	940bc800 	mts	rslr, r11
90012f4c:	b000fffe 	imm	-2
90012f50:	b9f4d950 	brlid	r15, -9904	// 900008a0 <frame_dummy>
90012f54:	80000000 	or	r0, r0, r0
90012f58:	b9f4ff8c 	brlid	r15, -116	// 90012ee4 <__do_global_ctors_aux>
90012f5c:	80000000 	or	r0, r0, r0
90012f60:	c9e00800 	lw	r15, r0, r1
90012f64:	b60f0008 	rtsd	r15, 8
90012f68:	30210008 	addik	r1, r1, 8
Disassembly of section .fini:

90012f6c <__fini>:
90012f6c:	3021fff8 	addik	r1, r1, -8
90012f70:	d9e00800 	sw	r15, r0, r1
90012f74:	b000fffe 	imm	-2
90012f78:	b9f4d8b4 	brlid	r15, -10060	// 9000082c <__do_global_dtors_aux>
90012f7c:	80000000 	or	r0, r0, r0
90012f80:	c9e00800 	lw	r15, r0, r1
90012f84:	b60f0008 	rtsd	r15, 8
90012f88:	30210008 	addik	r1, r1, 8
